 TS2EXTRA

 Timestamp is 65b1ed46 (Thu Jan 25 08:10:30 2024)

 Preferred load address is 00400000

 Start         Length     Name                   Class
 0001:00000000 00000140H .text$di                CODE
 0001:00000140 000265a0H .text$mn                CODE
 0001:000266e0 00000490H .text$x                 CODE
 0001:00026b70 000000d6H .text$yd                CODE
 0002:00000000 00000218H .idata$5                DATA
 0002:00000218 00000008H .00cfg                  DATA
 0002:00000220 00000004H .CRT$XCA                DATA
 0002:00000224 00000004H .CRT$XCAA               DATA
 0002:00000228 0000001cH .CRT$XCC                DATA
 0002:00000244 00000008H .CRT$XCL                DATA
 0002:0000024c 00000008H .CRT$XCU                DATA
 0002:00000254 00000004H .CRT$XCZ                DATA
 0002:00000258 00000004H .CRT$XIA                DATA
 0002:0000025c 00000004H .CRT$XIAA               DATA
 0002:00000260 00000004H .CRT$XIAC               DATA
 0002:00000264 00000014H .CRT$XIC                DATA
 0002:00000278 00000004H .CRT$XIZ                DATA
 0002:0000027c 00000004H .CRT$XLA                DATA
 0002:00000280 00000004H .CRT$XLZ                DATA
 0002:00000284 00000004H .CRT$XPA                DATA
 0002:00000288 00000008H .CRT$XPX                DATA
 0002:00000290 00000004H .CRT$XPXA               DATA
 0002:00000294 00000004H .CRT$XPZ                DATA
 0002:00000298 00000004H .CRT$XTA                DATA
 0002:0000029c 00000004H .CRT$XTZ                DATA
 0002:000002a0 00000000H .gfids$y                DATA
 0002:000002a0 000086e0H .rdata                  DATA
 0002:00008980 00000000H .rdata$CastGuardVftablesA DATA
 0002:00008980 00000000H .rdata$CastGuardVftablesC DATA
 0002:00008980 00000018H .rdata$T                DATA
 0002:00008998 000008a8H .rdata$r                DATA
 0002:00009240 0000007cH .rdata$sxdata           DATA
 0002:000092bc 00000320H .rdata$voltmd           DATA
 0002:000095dc 00000454H .rdata$zzzdbg           DATA
 0002:00009a30 00000004H .rtc$IAA                DATA
 0002:00009a34 00000004H .rtc$IZZ                DATA
 0002:00009a38 00000004H .rtc$TAA                DATA
 0002:00009a3c 00000004H .rtc$TZZ                DATA
 0002:00009a40 00000004H .tls                    DATA
 0002:00009a44 00000004H .tls$                   DATA
 0002:00009a48 00000008H .tls$ZZZ                DATA
 0002:00009a50 00000d74H .xdata$x                DATA
 0002:0000a7c4 00000000H .edata                  DATA
 0002:0000a7c4 00000078H .idata$2                DATA
 0002:0000a83c 00000014H .idata$3                DATA
 0002:0000a850 00000218H .idata$4                DATA
 0002:0000aa68 00000860H .idata$6                DATA
 0003:00000000 00000ad0H .data                   DATA
 0003:00000ad0 00000160H .data$r                 DATA
 0003:00000c30 000002a0H .data$rs                DATA
 0003:00000ed0 00020094H .bss                    DATA
 0004:00000000 00000060H .rsrc$01                DATA
 0004:00000060 00000180H .rsrc$02                DATA

  Address         Publics by Value              Rva+Base       Lib:Object

 0000:00000000       ___AbsoluteZero            00000000     <absolute>
 0000:00000000       ___arm64x_extra_rfe_table  00000000     <absolute>
 0000:00000000       ___arm64x_extra_rfe_table_size 00000000     <absolute>
 0000:00000000       ___arm64x_native_entrypoint 00000000     <absolute>
 0000:00000000       ___arm64x_redirection_metadata 00000000     <absolute>
 0000:00000000       ___arm64x_redirection_metadata_count 00000000     <absolute>
 0000:00000000       ___dynamic_value_reloc_table 00000000     <absolute>
 0000:00000000       ___enclave_config          00000000     <absolute>
 0000:00000000       ___guard_check_icall_a64n_fptr 00000000     <absolute>
 0000:00000000       ___guard_eh_cont_count     00000000     <absolute>
 0000:00000000       ___guard_eh_cont_table     00000000     <absolute>
 0000:00000000       ___guard_fids_count        00000000     <absolute>
 0000:00000000       ___guard_fids_table        00000000     <absolute>
 0000:00000000       ___guard_iat_count         00000000     <absolute>
 0000:00000000       ___guard_iat_table         00000000     <absolute>
 0000:00000000       ___guard_longjmp_count     00000000     <absolute>
 0000:00000000       ___guard_longjmp_table     00000000     <absolute>
 0000:00000000       ___hybrid_auxiliary_delayload_iat 00000000     <absolute>
 0000:00000000       ___hybrid_auxiliary_delayload_iat_copy 00000000     <absolute>
 0000:00000000       ___hybrid_auxiliary_iat    00000000     <absolute>
 0000:00000000       ___hybrid_auxiliary_iat_copy 00000000     <absolute>
 0000:00000000       ___hybrid_code_map         00000000     <absolute>
 0000:00000000       ___hybrid_code_map_count   00000000     <absolute>
 0000:00000000       ___hybrid_image_info_bitfield 00000000     <absolute>
 0000:00000000       ___x64_code_ranges_to_entry_points 00000000     <absolute>
 0000:00000000       ___x64_code_ranges_to_entry_points_count 00000000     <absolute>
 0000:00000000       __except_list              00000000     <absolute>
 0000:0000001f       ___safe_se_handler_count   0000001f     <absolute>
 0000:0000002c       __tls_array                0000002c     <absolute>
 0000:00000100       ___guard_flags             00000100     <absolute>
 0000:00000000       ___ImageBase               00400000     <linker-defined>
 0001:00000140       ??$_Allocate_for_capacity@$0A@@?$basic_string@DU?$char_traits@D@std@@V?$allocator@D@2@@std@@CAPADAAV?$allocator@D@1@AAI@Z 00401140 f i cts_mysql.obj
 0001:000001a0       ??$_Allocate_manually_vector_aligned@U_Default_allocate_traits@std@@@std@@YAPAXI@Z 004011a0 f i cts_mysql.obj
 0001:000001d0       ??0CMySQL@@QAE@XZ          004011d0 f   cts_mysql.obj
 0001:00000250       ??0bad_alloc@std@@QAE@ABV01@@Z 00401250 f i cts_mysql.obj
 0001:00000290       ??0bad_array_new_length@std@@QAE@ABV01@@Z 00401290 f i cts_mysql.obj
 0001:000002d0       ??0bad_array_new_length@std@@QAE@XZ 004012d0 f i cts_mysql.obj
 0001:000002f0       ??0exception@std@@QAE@ABV01@@Z 004012f0 f i cts_mysql.obj
 0001:00000320       ??1CMySQL@@QAE@XZ          00401320 f   cts_mysql.obj
 0001:000003f0       ??1bad_alloc@std@@UAE@XZ   004013f0 f i libcpmt:xthrow.obj
 0001:000003f0       ??1bad_array_new_length@std@@UAE@XZ 004013f0 f i cts_mysql.obj
 0001:000003f0       ??1bad_cast@std@@UAE@XZ    004013f0 f i libcpmt:cout.obj
 0001:000003f0       ??1bad_exception@std@@UAE@XZ 004013f0 f i libvcruntime:frame.obj
 0001:000003f0       ??1failure@ios_base@std@@UAE@XZ 004013f0 f i TimeLog.obj
 0001:000003f0       ??1length_error@std@@UAE@XZ 004013f0 f i libcpmt:xthrow.obj
 0001:000003f0       ??1runtime_error@std@@UAE@XZ 004013f0 f i libcpmt:xthrow.obj
 0001:00000410       ??4?$basic_string@DU?$char_traits@D@std@@V?$allocator@D@2@@std@@QAEAAV01@QBD@Z 00401410 f i cts_mysql.obj
 0001:00000520       ??_Ebad_alloc@std@@UAEPAXI@Z 00401520 f i cts_mysql.obj
 0001:00000520       ??_Ebad_array_new_length@std@@UAEPAXI@Z 00401520 f i cts_mysql.obj
 0001:00000520       ??_Eexception@std@@UAEPAXI@Z 00401520 f i cts_mysql.obj
 0001:00000520       ??_Eruntime_error@std@@UAEPAXI@Z 00401520 f i TimeLog.obj
 0001:00000520       ??_Gbad_alloc@std@@UAEPAXI@Z 00401520 f i cts_mysql.obj
 0001:00000520       ??_Gbad_array_new_length@std@@UAEPAXI@Z 00401520 f i cts_mysql.obj
 0001:00000520       ??_Gexception@std@@UAEPAXI@Z 00401520 f i cts_mysql.obj
 0001:00000520       ??_Gruntime_error@std@@UAEPAXI@Z 00401520 f i TimeLog.obj
 0001:00000550       ?IsConnected@CMySQL@@QAEHXZ 00401550 f   cts_mysql.obj
 0001:00000570       ?Reconnect@CMySQL@@QAEHXZ  00401570 f   cts_mysql.obj
 0001:00000670       ?_Throw_bad_array_new_length@std@@YAXXZ 00401670 f i cts_mysql.obj
 0001:00000670       ?__scrt_throw_std_bad_array_new_length@@YAXXZ 00401670 f i LIBCMT:throw_bad_alloc.obj
 0001:00000690       ?_Xlen_string@std@@YAXXZ   00401690 f i cts_mysql.obj
 0001:000006a0       ?clear_res@CMySQL@@QAEXXZ  004016a0 f   cts_mysql.obj
 0001:000006b0       ?connect@CMySQL@@QAEPAUst_mysql@@XZ 004016b0 f   cts_mysql.obj
 0001:00000740       ?exec_query@CMySQL@@QAEHPAD@Z 00401740 f   cts_mysql.obj
 0001:000007b0       ?exec_query@CMySQL@@QAEHPADW4CFLAG@1@@Z 004017b0 f   cts_mysql.obj
 0001:00000830       ?get_res@CMySQL@@QAEPAUst_mysql_res@@XZ 00401830 f   cts_mysql.obj
 0001:00000840       ?set_db_conn_info@CMySQL@@QAEHPBD0H000@Z 00401840 f   cts_mysql.obj
 0001:000008e0       ?unset_db_conn_info@CMySQL@@QAEXXZ 004018e0 f i cts_mysql.obj
 0001:00000940       ?what@exception@std@@UBEPBDXZ 00401940 f i cts_mysql.obj
 0001:00000950       ??$?6U?$char_traits@D@std@@@std@@YAAAV?$basic_ostream@DU?$char_traits@D@std@@@0@AAV10@PBD@Z 00401950 f i TimeLog.obj
 0001:00000bf0       ??$_Construct@$00PBD@?$basic_string@DU?$char_traits@D@std@@V?$allocator@D@2@@std@@AAEXQBDI@Z 00401bf0 f i TimeLog.obj
 0001:00000c80       ??0_System_error@std@@IAE@Verror_code@1@ABV?$basic_string@DU?$char_traits@D@std@@V?$allocator@D@2@@1@@Z 00401c80 f i TimeLog.obj
 0001:00000e90       ??0_System_error@std@@QAE@ABV01@@Z 00401e90 f i TimeLog.obj
 0001:00000ee0       ??0failure@ios_base@std@@QAE@ABV012@@Z 00401ee0 f i TimeLog.obj
 0001:00000f30       ??0failure@ios_base@std@@QAE@PBDABVerror_code@2@@Z 00401f30 f i TimeLog.obj
 0001:00001020       ??0runtime_error@std@@QAE@ABV01@@Z 00402020 f i TimeLog.obj
 0001:00001060       ??0sentry@?$basic_ostream@DU?$char_traits@D@std@@@std@@QAE@AAV12@@Z 00402060 f i TimeLog.obj
 0001:00001100       ??0system_error@std@@QAE@ABV01@@Z 00402100 f i TimeLog.obj
 0001:00001150       ??1?$basic_string@DU?$char_traits@D@std@@V?$allocator@D@2@@std@@QAE@XZ 00402150 f i TimeLog.obj
 0001:000011a0       ??1_Sentry_base@?$basic_ostream@DU?$char_traits@D@std@@@std@@QAE@XZ 004021a0 f i TimeLog.obj
 0001:000011f0       ??1sentry@?$basic_ostream@DU?$char_traits@D@std@@@std@@QAE@XZ 004021f0 f i TimeLog.obj
 0001:00001260       ??_E_Iostream_error_category2@std@@UAEPAXI@Z 00402260 f i TimeLog.obj
 0001:00001260       ??_G_Iostream_error_category2@std@@UAEPAXI@Z 00402260 f i TimeLog.obj
 0001:00001280       ??_E_System_error@std@@UAEPAXI@Z 00402280 f i TimeLog.obj
 0001:00001280       ??_Efailure@ios_base@std@@UAEPAXI@Z 00402280 f i TimeLog.obj
 0001:00001280       ??_Esystem_error@std@@UAEPAXI@Z 00402280 f i TimeLog.obj
 0001:00001280       ??_G_System_error@std@@UAEPAXI@Z 00402280 f i TimeLog.obj
 0001:00001280       ??_Gfailure@ios_base@std@@UAEPAXI@Z 00402280 f i TimeLog.obj
 0001:00001280       ??_Gsystem_error@std@@UAEPAXI@Z 00402280 f i TimeLog.obj
 0001:000012b0       ?Log@R_ProLog@@QAAXPBDZZ   004022b0 f   TimeLog.obj
 0001:00001350       ?_Osfx@?$basic_ostream@DU?$char_traits@D@std@@@std@@QAEXXZ 00402350 f i TimeLog.obj
 0001:00001430       ?__LogMgr@@YAPAVR_ProLog@@XZ 00402430 f   TimeLog.obj
 0001:000014a0       ?append@?$basic_string@DU?$char_traits@D@std@@V?$allocator@D@2@@std@@QAEAAV12@QBDI@Z 004024a0 f i TimeLog.obj
 0001:00001600       ?clear@ios_base@std@@QAEXH_N@Z 00402600 f i TimeLog.obj
 0001:00001680       ?default_error_condition@error_category@std@@UBE?AVerror_condition@2@H@Z 00402680 f i TimeLog.obj
 0001:000016a0       ?equivalent@error_category@std@@UBE_NABVerror_code@2@H@Z 004026a0 f i TimeLog.obj
 0001:000016d0       ?equivalent@error_category@std@@UBE_NHABVerror_condition@2@@Z 004026d0 f i TimeLog.obj
 0001:00001710       ?flush@?$basic_ostream@DU?$char_traits@D@std@@@std@@QAEAAV12@XZ 00402710 f i TimeLog.obj
 0001:00001860       ?make_error_code@std@@YA?AVerror_code@1@W4io_errc@1@@Z 00402860 f i TimeLog.obj
 0001:00001880       ?message@_Iostream_error_category2@std@@UBE?AV?$basic_string@DU?$char_traits@D@std@@V?$allocator@D@2@@2@H@Z 00402880 f i TimeLog.obj
 0001:00001940       ?name@_Iostream_error_category2@std@@UBEPBDXZ 00402940 f i TimeLog.obj
 0001:00001950       ?setstate@?$basic_ios@DU?$char_traits@D@std@@@std@@QAEXH_N@Z 00402950 f i TimeLog.obj
 0001:00001980       ___local_stdio_printf_options 00402980 f i TimeLog.obj
 0001:00001990       _sprintf                   00402990 f i TimeLog.obj
 0001:000019d0       ?Init@MyServer@@QAEHPAH@Z  004029d0 f   S02_MyServer.obj
 0001:00001c90       ?PROCESS_FOR_NETWORK@MyServer@@QAEHPAUHWND__@@IJ@Z 00402c90 f   S02_MyServer.obj
 0001:00002160       ?PROCESS_FOR_TIMER@MyServer@@QAEXXZ 00403160 f   S02_MyServer.obj
 0001:000021d0       ?Init@MyUser@@QAEHHH@Z     004031d0 f   S03_MyUser.obj
 0001:00002220       ?Quit@MyUser@@QAEXH@Z      00403220 f   S03_MyUser.obj
 0001:000022d0       ?Send@MyUser@@QAEXHPADH_N@Z 004032d0 f   S03_MyUser.obj
 0001:000024f0       ?Init@MyWork@@QAEHXZ       004034f0 f   S04_MyWork01.obj
 0001:000025c0       ?W_BLOOD_ITEM_INFO@@YAXH@Z 004035c0 f   S04_MyWork02.obj
 0001:000026c0       ?W_BUY_CASH_ITEM_FOR_EXTRA_SEND@@YAXH@Z 004036c0 f   S04_MyWork02.obj
 0001:000028f0       ?W_GET_CASH_ITEM_INFO_FOR_EXTRA_SEND@@YAXH@Z 004038f0 f   S04_MyWork02.obj
 0001:00002980       ?W_GET_CASH_SIZE_FOR_EXTRA_SEND@@YAXH@Z 00403980 f   S04_MyWork02.obj
 0001:00002a70       ?W_GUILD_WORK_FOR_EXTRA_SEND@@YAXH@Z 00403a70 f   S04_MyWork02.obj
 0001:000039b0       ?W_UPDATE_CASH_ITEM_INFO_FOR_EXTRA_SEND@@YAXH@Z 004049b0 f   S04_MyWork02.obj
 0001:00003ab0       ?W_USE_PACKAGE_ITEM_FOR_EXTRA_SEND@@YAXH@Z 00404ab0 f   S04_MyWork02.obj
 0001:00003b10       ?W_ZONE_FOR_EXTRA_SEND@@YAXH@Z 00404b10 f   S04_MyWork02.obj
 0001:00003c00       ?W_ZONE_OK_FOR_EXTRA_SEND@@YAXH@Z 00404c00 f   S04_MyWork02.obj
 0001:00003c50       _printf                    00404c50 f i S04_MyWork02.obj
 0001:00003c80       ?B_BLOOD_ITEM_FOR_EXTRA_SEND@MyTransfer@@QAEXHQAY1DC@2$$CBH@Z 00404c80 f   S05_MyTransfer.obj
 0001:00003cb0       ?B_BUY_CASH_ITEM_FOR_EXTRA_RECV@MyTransfer@@QAEXHHHHH@Z 00404cb0 f   S05_MyTransfer.obj
 0001:00003cf0       ?B_CONNECT_OK@MyTransfer@@QAEXXZ 00404cf0 f   S05_MyTransfer.obj
 0001:00003d00       ?B_GET_CASH_ITEM_INFO_FOR_EXTRA_RECV@MyTransfer@@QAEXHHQAY2O@93$$CBH@Z 00404d00 f   S05_MyTransfer.obj
 0001:00003d40       ?B_GET_CASH_SIZE_FOR_EXTRA_RECV@MyTransfer@@QAEXHH@Z 00404d40 f   S05_MyTransfer.obj
 0001:00003d60       ?B_GUILD_WORK_FOR_EXTRA_RECV@MyTransfer@@QAEXHPAUGUILD_INFO@@@Z 00404d60 f   S05_MyTransfer.obj
 0001:00003d90       ?B_UPDATE_CASH_ITEM_INFO_FOR_EXTRA_RECV@MyTransfer@@QAEXH@Z 00404d90 f   S05_MyTransfer.obj
 0001:00003db0       ?B_USE_PACKAGE_ITEM_FOR_EXTRA_SEND@MyTransfer@@QAEXH@Z 00404db0 f   S05_MyTransfer.obj
 0001:00003dd0       ?B_ZONE_FOR_EXTRA_RECV@MyTransfer@@QAEXHQAY2O@93$$CBH@Z 00404dd0 f   S05_MyTransfer.obj
 0001:00003e10       ?Init@MyTransfer@@QAEHXZ   00404e10 f   S05_MyTransfer.obj
 0001:00003e20       ?GetOneValueFromFile@MyGame@@AAEHPAXHPAD@Z 00404e20 f   S07_MyGame01.obj
 0001:00003eb0       ?GetOneValueFromFile@MyGame@@AAE_NPADPBDH@Z 00404eb0 f   S07_MyGame01.obj
 0001:00003f60       ?GetOneValueFromFile@MyGame@@AAE_NPBDHPAH@Z 00404f60 f   S07_MyGame01.obj
 0001:00004020       ?Init@MyGame@@QAEHXZ       00405020 f   S07_MyGame01.obj
 0001:00004080       ?LoadBloodInfo@MyGame@@QAE_NPAHQAY03HQAY0DD@D@Z 00405080 f   S07_MyGame01.obj
 0001:000042b0       ?LoadCostInfo@MyGame@@QAE_NPAH0QAY04HQAY0DD@D@Z 004052b0 f   S07_MyGame01.obj
 0001:00004540       ?MakeBloodItemInfo@MyGame@@QAE_NQAY1DC@2HQAY03$$CBHH@Z 00405540 f   S07_MyGame01.obj
 0001:00004690       ?UpdateBloodItem@MyGame@@QAEHXZ 00405690 f   S07_MyGame01.obj
 0001:00004910       ?UpdateCashItem@MyGame@@QAEHXZ 00405910 f   S07_MyGame01.obj
 0001:00004cf0       ?DB_PROCESS_01@MyDB@@QAEHQAD0H0@Z 00405cf0 f   S08_MyDB.obj
 0001:00004d70       ?DB_PROCESS_02@MyDB@@QAEHQAD@Z 00405d70 f   S08_MyDB.obj
 0001:00004e30       ?DB_PROCESS_03@MyDB@@QAEHQAD0@Z 00405e30 f   S08_MyDB.obj
 0001:00004f20       ?DB_PROCESS_04@MyDB@@QAEHQADPAUGUILD_INFO@@@Z 00405f20 f   S08_MyDB.obj
 0001:000053c0       ?DB_PROCESS_05@MyDB@@QAEHQADPAUGUILD_INFO@@@Z 004063c0 f   S08_MyDB.obj
 0001:000055e0       ?DB_PROCESS_06@MyDB@@QAEHQAD@Z 004065e0 f   S08_MyDB.obj
 0001:00005650       ?DB_PROCESS_07@MyDB@@QAEHQADPAH1@Z 00406650 f   S08_MyDB.obj
 0001:00005730       ?DB_PROCESS_08@MyDB@@QAEHQADHH@Z 00406730 f   S08_MyDB.obj
 0001:000057b0       ?Init@MyDB@@QAEHXZ         004067b0 f   S08_MyDB.obj
 0001:00005840       ?RECONNECT_TO_DATABASE01@MyDB@@AAEHXZ 00406840 f   S08_MyDB.obj
 0001:000058a0       ?GetOneValueFromFile@@YAHPAXPADH@Z 004068a0 f   Server_EXTRA.obj
 0001:00005930       ?ReadServerInfo@@YAHXZ     00406930 f   Server_EXTRA.obj
 0001:00005d10       ?WindowProc@@YGJPAUHWND__@@IIJ@Z 00406d10 f   Server_EXTRA.obj
 0001:00005d70       _main                      00406d70 f   Server_EXTRA.obj
 0001:00005f59       _mysql_errno@4             00406f59 f   libmysql:libmysql.dll
 0001:00005f5f       _mysql_error@4             00406f5f f   libmysql:libmysql.dll
 0001:00005f65       _mysql_init@4              00406f65 f   libmysql:libmysql.dll
 0001:00005f6b       _mysql_real_connect@32     00406f6b f   libmysql:libmysql.dll
 0001:00005f71       _mysql_query@8             00406f71 f   libmysql:libmysql.dll
 0001:00005f77       _mysql_use_result@4        00406f77 f   libmysql:libmysql.dll
 0001:00005f7d       _mysql_ping@4              00406f7d f   libmysql:libmysql.dll
 0001:00005f83       _mysql_free_result@4       00406f83 f   libmysql:libmysql.dll
 0001:00005f89       _mysql_fetch_row@4         00406f89 f   libmysql:libmysql.dll
 0001:00005f8f       _mysql_autocommit@8        00406f8f f   libmysql:libmysql.dll
 0001:00005f95       _mysql_close@4             00406f95 f   libmysql:libmysql.dll
 0001:00005f9b       ??0bad_alloc@std@@QAE@XZ   00406f9b f i libcpmt:xthrow.obj
 0001:00005fb3       ??0exception@std@@QAE@QBD@Z 00406fb3 f i libcpmt:xthrow.obj
 0001:00005fe8       ??0length_error@std@@QAE@ABV01@@Z 00406fe8 f i libcpmt:xthrow.obj
 0001:00006003       ??0length_error@std@@QAE@PBD@Z 00407003 f i libcpmt:xthrow.obj
 0001:00006022       ??0logic_error@std@@QAE@ABV01@@Z 00407022 f i libcpmt:xthrow.obj
 0001:0000603d       ??0runtime_error@std@@QAE@PBD@Z 0040703d f i libcpmt:xthrow.obj
 0001:0000605c       ??_Ebad_cast@std@@UAEPAXI@Z 0040705c f i libcpmt:cout.obj
 0001:0000605c       ??_Ebad_exception@std@@UAEPAXI@Z 0040705c f i libvcruntime:frame.obj
 0001:0000605c       ??_Elength_error@std@@UAEPAXI@Z 0040705c f i libcpmt:xthrow.obj
 0001:0000605c       ??_Elogic_error@std@@UAEPAXI@Z 0040705c f i libcpmt:xthrow.obj
 0001:0000605c       ??_Gbad_cast@std@@UAEPAXI@Z 0040705c f i libcpmt:cout.obj
 0001:0000605c       ??_Gbad_exception@std@@UAEPAXI@Z 0040705c f i libvcruntime:frame.obj
 0001:0000605c       ??_Glength_error@std@@UAEPAXI@Z 0040705c f i libcpmt:xthrow.obj
 0001:0000605c       ??_Glogic_error@std@@UAEPAXI@Z 0040705c f i libcpmt:xthrow.obj
 0001:00006089       ?_Xlength_error@std@@YAXPBD@Z 00407089 f   libcpmt:xthrow.obj
 0001:000060a9       ?_Xruntime_error@std@@YAXPBD@Z 004070a9 f   libcpmt:xthrow.obj
 0001:000060c9       ?uncaught_exception@std@@YA_NXZ 004070c9 f   libcpmt:uncaught_exception.obj
 0001:000060ce       ?_Syserror_map@std@@YAPBDH@Z 004070ce f   libcpmt:syserror.obj
 0001:000060f3       ??$_Allocate@$07U_Default_allocate_traits@std@@$0A@@std@@YAPAXI@Z 004070f3 f i libcpmt:cout.obj
 0001:00006119       ??$_Deallocate@$07$0A@@std@@YAXPAXI@Z 00407119 f i libcpmt:cout.obj
 0001:00006145       ??$_Fgetc@D@std@@YA_NAADPAU_iobuf@@@Z 00407145 f i libcpmt:cout.obj
 0001:00006165       ??$_Fputc@D@std@@YA_NDPAU_iobuf@@@Z 00407165 f i libcpmt:cout.obj
 0001:0000617f       ??$_Reallocate_grow_by@V<lambda_1>@?1??push_back@?$basic_string@DU?$char_traits@D@std@@V?$allocator@D@2@@std@@QAEXD@Z@D@?$basic_string@DU?$char_traits@D@std@@V?$allocator@D@2@@std@@AAEAAV01@IV<lambda_1>@?1??push_back@01@QAEXD@Z@D@Z 0040717f f i libcpmt:cout.obj
 0001:00006239       ??$use_facet@V?$codecvt@DDU_Mbstatet@@@std@@@std@@YAABV?$codecvt@DDU_Mbstatet@@@0@ABVlocale@0@@Z 00407239 f i libcpmt:cout.obj
 0001:000062ce       ??$use_facet@V?$ctype@D@std@@@std@@YAABV?$ctype@D@0@ABVlocale@0@@Z 004072ce f i libcpmt:cout.obj
 0001:00006363       ??0?$basic_ios@DU?$char_traits@D@std@@@std@@IAE@XZ 00407363 f i libcpmt:cout.obj
 0001:00006388       ??0?$basic_ostream@DU?$char_traits@D@std@@@std@@QAE@PAV?$basic_streambuf@DU?$char_traits@D@std@@@1@_N@Z 00407388 f i libcpmt:cout.obj
 0001:000063f0       ??0?$basic_streambuf@DU?$char_traits@D@std@@@std@@IAE@XZ 004073f0 f i libcpmt:cout.obj
 0001:00006461       ??0?$ctype@D@std@@QAE@ABV_Locinfo@1@I@Z 00407461 f i libcpmt:cout.obj
 0001:00006497       ??0_Init_cout@std@@QAE@XZ  00407497 f i libcpmt:cout.obj
 0001:000064d7       ??0_Locinfo@std@@QAE@PBD@Z 004074d7 f i libcpmt:cout.obj
 0001:00006544       ??0bad_cast@std@@QAE@ABV01@@Z 00407544 f i libcpmt:cout.obj
 0001:0000655f       ??0bad_cast@std@@QAE@XZ    0040755f f i libcpmt:cout.obj
 0001:00006577       ??0ios_base@std@@IAE@XZ    00407577 f i libcpmt:cout.obj
 0001:000065a3       ??0locale@std@@QAE@ABV01@@Z 004075a3 f i libcpmt:cout.obj
 0001:000065ce       ??1?$_Yarn@D@std@@QAE@XZ   004075ce f i libcpmt:cout.obj
 0001:000065ce       ??1?$_Yarn@_W@std@@QAE@XZ  004075ce f i libcpmt:cout.obj
 0001:000065e3       ??1?$basic_filebuf@DU?$char_traits@D@std@@@std@@UAE@XZ 004075e3 f i libcpmt:cout.obj
 0001:00006640       ??1?$basic_ios@DU?$char_traits@D@std@@@std@@UAE@XZ 00407640 f i libcpmt:cout.obj
 0001:00006685       ??1?$basic_streambuf@DU?$char_traits@D@std@@@std@@UAE@XZ 00407685 f i libcpmt:cout.obj
 0001:000066a6       ??1?$unique_ptr@V_Facet_base@std@@U?$default_delete@V_Facet_base@std@@@2@@std@@QAE@XZ 004076a6 f i libcpmt:cout.obj
 0001:000066b3       ??1_Locinfo@std@@QAE@XZ    004076b3 f i libcpmt:cout.obj
 0001:00006764       ??1locale@std@@QAE@XZ      00407764 f i libcpmt:cout.obj
 0001:00006799       ??Bid@locale@std@@QAEIXZ   00407799 f i libcpmt:cout.obj
 0001:000067ce       ??R?$default_delete@V_Facet_base@std@@@std@@QBEXPAV_Facet_base@1@@Z 004077ce f i libcpmt:cout.obj
 0001:000067f2       ??_D?$basic_ostream@DU?$char_traits@D@std@@@std@@QAEXXZ 004077f2 f i libcpmt:cout.obj
 0001:00006853       ??_E?$basic_ostream@DU?$char_traits@D@std@@@std@@$4PPPPPPPM@A@AEPAXI@Z 00407853 f i libcpmt:cout.obj
 0001:0000685b       ??_E?$basic_filebuf@DU?$char_traits@D@std@@@std@@UAEPAXI@Z 0040785b f i libcpmt:cout.obj
 0001:0000685b       ??_G?$basic_filebuf@DU?$char_traits@D@std@@@std@@UAEPAXI@Z 0040785b f i libcpmt:cout.obj
 0001:0000687d       ??_E?$basic_ios@DU?$char_traits@D@std@@@std@@UAEPAXI@Z 0040787d f i libcpmt:cout.obj
 0001:0000687d       ??_G?$basic_ios@DU?$char_traits@D@std@@@std@@UAEPAXI@Z 0040787d f i libcpmt:cout.obj
 0001:000068da       ??_E?$basic_ostream@DU?$char_traits@D@std@@@std@@UAEPAXI@Z 004078da f i libcpmt:cout.obj
 0001:000068da       ??_G?$basic_ostream@DU?$char_traits@D@std@@@std@@UAEPAXI@Z 004078da f i libcpmt:cout.obj
 0001:000068ff       ??_E?$basic_streambuf@DU?$char_traits@D@std@@@std@@UAEPAXI@Z 004078ff f i libcpmt:cout.obj
 0001:000068ff       ??_G?$basic_streambuf@DU?$char_traits@D@std@@@std@@UAEPAXI@Z 004078ff f i libcpmt:cout.obj
 0001:00006921       ??_E?$codecvt@DDU_Mbstatet@@@std@@MAEPAXI@Z 00407921 f i libcpmt:cout.obj
 0001:00006921       ??_G?$codecvt@DDU_Mbstatet@@@std@@MAEPAXI@Z 00407921 f i libcpmt:cout.obj
 0001:00006944       ??_E?$ctype@D@std@@MAEPAXI@Z 00407944 f i libcpmt:cout.obj
 0001:00006944       ??_G?$ctype@D@std@@MAEPAXI@Z 00407944 f i libcpmt:cout.obj
 0001:00006972       ??_E_Facet_base@std@@UAEPAXI@Z 00407972 f i libcpmt:cout.obj
 0001:00006972       ??_G_Facet_base@std@@UAEPAXI@Z 00407972 f i libcpmt:cout.obj
 0001:00006995       ??_Eios_base@std@@UAEPAXI@Z 00407995 f i libcpmt:cout.obj
 0001:00006995       ??_Gios_base@std@@UAEPAXI@Z 00407995 f i libcpmt:cout.obj
 0001:000069f2       ?_Adjust_manually_vector_aligned@std@@YAXAAPAXAAI@Z 004079f2 f i libcpmt:cout.obj
 0001:00006a16       ?_Apply_annotation@?$basic_string@DU?$char_traits@D@std@@V?$allocator@D@2@@std@@CAXQBDIII@Z 00407a16 f i libcpmt:cout.obj
 0001:00006a65       ?_C_str@locale@std@@QBEPBDXZ 00407a65 f i libcpmt:cout.obj
 0001:00006a7d       ?_Calculate_growth@?$basic_string@DU?$char_traits@D@std@@V?$allocator@D@2@@std@@CAIIII@Z 00407a7d f i libcpmt:cout.obj
 0001:00006aad       ?_Create_annotation@?$basic_string@DU?$char_traits@D@std@@V?$allocator@D@2@@std@@ABEXXZ 00407aad f i libcpmt:cout.obj
 0001:00006ac7       ?_Decref@facet@locale@std@@UAEPAV_Facet_base@3@XZ 00407ac7 f i libcpmt:cout.obj
 0001:00006ad9       ?_Endwrite@?$basic_filebuf@DU?$char_traits@D@std@@@std@@IAE_NXZ 00407ad9 f i libcpmt:cout.obj
 0001:00006b88       ?_Erase_noexcept@?$basic_string@DU?$char_traits@D@std@@V?$allocator@D@2@@std@@AAEAAV12@II@Z 00407b88 f i libcpmt:cout.obj
 0001:00006bdc       ?_Getcat@?$codecvt@DDU_Mbstatet@@@std@@SAIPAPBVfacet@locale@2@PBV42@@Z 00407bdc f i libcpmt:cout.obj
 0001:00006c44       ?_Getcat@?$ctype@D@std@@SAIPAPBVfacet@locale@2@PBV42@@Z 00407c44 f i libcpmt:cout.obj
 0001:00006caa       ?_Getfacet@locale@std@@QBEPBVfacet@12@I@Z 00407caa f i libcpmt:cout.obj
 0001:00006ceb       ?_Incref@facet@locale@std@@UAEXXZ 00407ceb f i libcpmt:cout.obj
 0001:00006cf0       ?_Init@?$basic_filebuf@DU?$char_traits@D@std@@@std@@IAEXPAU_iobuf@@W4_Initfl@12@@Z 00407cf0 f i libcpmt:cout.obj
 0001:00006d6d       ?_Init@?$basic_streambuf@DU?$char_traits@D@std@@@std@@IAEXXZ 00407d6d f i libcpmt:cout.obj
 0001:00006daa       ?_Init@ios_base@std@@IAEXXZ 00407daa f i libcpmt:cout.obj
 0001:00006e15       ?_Initcvt@?$basic_filebuf@DU?$char_traits@D@std@@@std@@IAEXABV?$codecvt@DDU_Mbstatet@@@2@@Z 00407e15 f i libcpmt:cout.obj
 0001:00006e40       ?_Lock@?$basic_filebuf@DU?$char_traits@D@std@@@std@@UAEXXZ 00407e40 f i libcpmt:cout.obj
 0001:00006e50       ?_Lock@?$basic_streambuf@DU?$char_traits@D@std@@@std@@UAEXXZ 00407e50 f i libcpmt:cout.obj
 0001:00006e50       ?_Unlock@?$basic_streambuf@DU?$char_traits@D@std@@@std@@UAEXXZ 00407e50 f i libcpmt:cout.obj
 0001:00006e50       @_guard_check_icall_nop@4  00407e50 f i LIBCMT:guard_support.obj
 0001:00006e50       ___sanitizer_annotate_contiguous_container 00407e50 f i libcpmt:asan_noop.obj
 0001:00006e50       ___sanitizer_annotate_contiguous_container_default 00407e50 f i libcpmt:asan_noop.obj
 0001:00006e50       __initialize_denormal_control 00407e50 f i LIBCMT:denormal_control.obj
 0001:00006e50       __initialize_invalid_parameter_handler 00407e50 f i LIBCMT:invalid_parameter_handler.obj
 0001:00006e53       ?_Modify_annotation@?$basic_string@DU?$char_traits@D@std@@V?$allocator@D@2@@std@@ABEXII@Z 00407e53 f i libcpmt:cout.obj
 0001:00006e7a       ?_Remove_annotation@?$basic_string@DU?$char_traits@D@std@@V?$allocator@D@2@@std@@ABEXXZ 00407e7a f i libcpmt:cout.obj
 0001:00006e94       ?_Reset_back@?$basic_filebuf@DU?$char_traits@D@std@@@std@@AAEXXZ 00407e94 f i libcpmt:cout.obj
 0001:00006eb7       ?_Set_back@?$basic_filebuf@DU?$char_traits@D@std@@@std@@AAEXXZ 00407eb7 f i libcpmt:cout.obj
 0001:00006ef4       ?_Throw_bad_cast@std@@YAXXZ 00407ef4 f i libcpmt:cout.obj
 0001:00006f11       ?_Tidy@?$ctype@D@std@@IAEXXZ 00407f11 f i libcpmt:cout.obj
 0001:00006f3b       ?_Tidy_deallocate@?$basic_string@DU?$char_traits@D@std@@V?$allocator@D@2@@std@@AAEXXZ 00407f3b f i libcpmt:cout.obj
 0001:00006f67       ?_Unlock@?$basic_filebuf@DU?$char_traits@D@std@@@std@@UAEXXZ 00407f67 f i libcpmt:cout.obj
 0001:00006f77       ?always_noconv@codecvt_base@std@@QBE_NXZ 00407f77 f i libcpmt:cout.obj
 0001:00006f8f       ?close@?$basic_filebuf@DU?$char_traits@D@std@@@std@@QAEPAV12@XZ 00407f8f f i libcpmt:cout.obj
 0001:00006ff3       ?do_always_noconv@?$codecvt@DDU_Mbstatet@@@std@@MBE_NXZ 00407ff3 f i libcpmt:cout.obj
 0001:00006ff3       ___acrt_uninitialize_command_line 00407ff3 f i libucrt:argv_data.obj
 0001:00006ff3       __should_initialize_environment 00407ff3 f i LIBCMT:env_mode.obj
 0001:00006ff6       ?do_encoding@codecvt_base@std@@MBEHXZ 00407ff6 f i libcpmt:cout.obj
 0001:00006ff6       ?do_max_length@codecvt_base@std@@MBEHXZ 00407ff6 f i libcpmt:cout.obj
 0001:00006ff6       __get_startup_argv_mode    00407ff6 f i LIBCMT:argv_mode.obj
 0001:00006ffa       ?do_in@?$codecvt@DDU_Mbstatet@@@std@@MBEHAAU_Mbstatet@@PBD1AAPBDPAD3AAPAD@Z 00407ffa f i libcpmt:cout.obj
 0001:00006ffa       ?do_out@?$codecvt@DDU_Mbstatet@@@std@@MBEHAAU_Mbstatet@@PBD1AAPBDPAD3AAPAD@Z 00407ffa f i libcpmt:cout.obj
 0001:00007014       ?do_length@?$codecvt@DDU_Mbstatet@@@std@@MBEHAAU_Mbstatet@@PBD1I@Z 00408014 f i libcpmt:cout.obj
 0001:00007029       ?do_narrow@?$ctype@D@std@@MBEDDD@Z 00408029 f i libcpmt:cout.obj
 0001:00007033       ?do_narrow@?$ctype@D@std@@MBEPBDPBD0DPAD@Z 00408033 f i libcpmt:cout.obj
 0001:00007052       ?do_tolower@?$ctype@D@std@@MBEDD@Z 00408052 f i libcpmt:cout.obj
 0001:00007069       ?do_tolower@?$ctype@D@std@@MBEPBDPADPBD@Z 00408069 f i libcpmt:cout.obj
 0001:00007095       ?do_toupper@?$ctype@D@std@@MBEDD@Z 00408095 f i libcpmt:cout.obj
 0001:000070ac       ?do_toupper@?$ctype@D@std@@MBEPBDPADPBD@Z 004080ac f i libcpmt:cout.obj
 0001:000070d8       ?do_unshift@?$codecvt@DDU_Mbstatet@@@std@@MBEHAAU_Mbstatet@@PAD1AAPAD@Z 004080d8 f i libcpmt:cout.obj
 0001:000070ea       ?do_widen@?$ctype@D@std@@MBEDD@Z 004080ea f i libcpmt:cout.obj
 0001:000070f4       ?do_widen@?$ctype@D@std@@MBEPBDPBD0PAD@Z 004080f4 f i libcpmt:cout.obj
 0001:00007113       ?imbue@?$basic_filebuf@DU?$char_traits@D@std@@@std@@MAEXABVlocale@2@@Z 00408113 f i libcpmt:cout.obj
 0001:0000712f       ?imbue@?$basic_streambuf@DU?$char_traits@D@std@@@std@@MAEXABVlocale@2@@Z 0040812f f i libcpmt:cout.obj
 0001:00007132       ?init@?$basic_ios@DU?$char_traits@D@std@@@std@@IAEXPAV?$basic_streambuf@DU?$char_traits@D@std@@@2@_N@Z 00408132 f i libcpmt:cout.obj
 0001:0000717b       ?overflow@?$basic_filebuf@DU?$char_traits@D@std@@@std@@MAEHH@Z 0040817b f i libcpmt:cout.obj
 0001:00007285       ?overflow@?$basic_streambuf@DU?$char_traits@D@std@@@std@@MAEHH@Z 00408285 f i libcpmt:cout.obj
 0001:00007285       ?pbackfail@?$basic_streambuf@DU?$char_traits@D@std@@@std@@MAEHH@Z 00408285 f i libcpmt:cout.obj
 0001:0000728b       ?pbackfail@?$basic_filebuf@DU?$char_traits@D@std@@@std@@MAEHH@Z 0040828b f i libcpmt:cout.obj
 0001:0000730d       ?push_back@?$basic_string@DU?$char_traits@D@std@@V?$allocator@D@2@@std@@QAEXD@Z 0040830d f i libcpmt:cout.obj
 0001:00007354       ?seekoff@?$basic_filebuf@DU?$char_traits@D@std@@@std@@MAE?AV?$fpos@U_Mbstatet@@@2@_JHH@Z 00408354 f i libcpmt:cout.obj
 0001:00007415       ?seekoff@?$basic_streambuf@DU?$char_traits@D@std@@@std@@MAE?AV?$fpos@U_Mbstatet@@@2@_JHH@Z 00408415 f i libcpmt:cout.obj
 0001:00007434       ?seekpos@?$basic_filebuf@DU?$char_traits@D@std@@@std@@MAE?AV?$fpos@U_Mbstatet@@@2@V32@H@Z 00408434 f i libcpmt:cout.obj
 0001:000074c4       ?seekpos@?$basic_streambuf@DU?$char_traits@D@std@@@std@@MAE?AV?$fpos@U_Mbstatet@@@2@V32@H@Z 004084c4 f i libcpmt:cout.obj
 0001:000074e3       ?setbuf@?$basic_filebuf@DU?$char_traits@D@std@@@std@@MAEPAV?$basic_streambuf@DU?$char_traits@D@std@@@2@PAD_J@Z 004084e3 f i libcpmt:cout.obj
 0001:00007531       ?setbuf@?$basic_streambuf@DU?$char_traits@D@std@@@std@@MAEPAV12@PAD_J@Z 00408531 f i libcpmt:cout.obj
 0001:00007536       ?showmanyc@?$basic_streambuf@DU?$char_traits@D@std@@@std@@MAE_JXZ 00408536 f i libcpmt:cout.obj
 0001:0000753b       ?sync@?$basic_filebuf@DU?$char_traits@D@std@@@std@@MAEHXZ 0040853b f i libcpmt:cout.obj
 0001:00007577       ?sync@?$basic_streambuf@DU?$char_traits@D@std@@@std@@MAEHXZ 00408577 f i libcpmt:cout.obj
 0001:00007577       ___scrt_exe_initialize_mta 00408577 f i LIBCMT:utility_desktop.obj
 0001:00007577       ___scrt_initialize_winrt   00408577 f i LIBCMT:utility_desktop.obj
 0001:00007577       ___scrt_stub_for_initialize_mta 00408577 f i LIBCMT:utility_desktop.obj
 0001:00007577       __get_startup_commit_mode  00408577 f i LIBCMT:commit_mode.obj
 0001:00007577       __get_startup_new_mode     00408577 f i LIBCMT:new_mode.obj
 0001:00007577       __get_startup_thread_locale_mode 00408577 f i LIBCMT:thread_locale.obj
 0001:00007577       __matherr                  00408577 f i LIBCMT:matherr.obj
 0001:0000757a       ?uflow@?$basic_filebuf@DU?$char_traits@D@std@@@std@@MAEHXZ 0040857a f i libcpmt:cout.obj
 0001:00007708       ?uflow@?$basic_streambuf@DU?$char_traits@D@std@@@std@@MAEHXZ 00408708 f i libcpmt:cout.obj
 0001:0000773b       ?underflow@?$basic_filebuf@DU?$char_traits@D@std@@@std@@MAEHXZ 0040873b f i libcpmt:cout.obj
 0001:0000778b       ?underflow@?$basic_streambuf@DU?$char_traits@D@std@@@std@@MAEHXZ 0040878b f i libcpmt:cout.obj
 0001:0000778f       ?widen@?$basic_ios@DU?$char_traits@D@std@@@std@@QBEDD@Z 0040878f f i libcpmt:cout.obj
 0001:000077de       ?xsgetn@?$basic_filebuf@DU?$char_traits@D@std@@@std@@MAE_JPAD_J@Z 004087de f i libcpmt:cout.obj
 0001:000078c6       ?xsgetn@?$basic_streambuf@DU?$char_traits@D@std@@@std@@MAE_JPAD_J@Z 004088c6 f i libcpmt:cout.obj
 0001:000079b5       ?xsputn@?$basic_filebuf@DU?$char_traits@D@std@@@std@@MAE_JPBD_J@Z 004089b5 f i libcpmt:cout.obj
 0001:00007a9a       ?xsputn@?$basic_streambuf@DU?$char_traits@D@std@@@std@@MAE_JPBD_J@Z 00408a9a f i libcpmt:cout.obj
 0001:00007b85       ??0_Init_locks@std@@QAE@XZ 00408b85 f   libcpmt:xlock.obj
 0001:00007bb2       ??0_Lockit@std@@QAE@H@Z    00408bb2 f   libcpmt:xlock.obj
 0001:00007be3       ??1_Init_locks@std@@QAE@XZ 00408be3 f   libcpmt:xlock.obj
 0001:00007c0a       ??1_Lockit@std@@QAE@XZ     00408c0a f   libcpmt:xlock.obj
 0001:00007c29       ??0_Locimp@locale@std@@AAE@_N@Z 00408c29 f i libcpmt:locale0.obj
 0001:00007c6a       ??1_Fac_node@std@@QAE@XZ   00408c6a f i libcpmt:locale0.obj
 0001:00007c9b       ??1_Fac_tidy_reg_t@std@@QAE@XZ 00408c9b f i libcpmt:locale0.obj
 0001:00007cc2       ??1_Locimp@locale@std@@MAE@XZ 00408cc2 f i libcpmt:locale0.obj
 0001:00007ced       ??4?$_Yarn@D@std@@QAEAAV01@PBD@Z 00408ced f i libcpmt:locale0.obj
 0001:00007d41       ??_E_Locimp@locale@std@@MAEPAXI@Z 00408d41 f i libcpmt:locale0.obj
 0001:00007d41       ??_G_Locimp@locale@std@@MAEPAXI@Z 00408d41 f i libcpmt:locale0.obj
 0001:00007d63       ?_Facet_Register@std@@YAXPAV_Facet_base@1@@Z 00408d63 f   libcpmt:locale0.obj
 0001:00007d8f       ?_Getgloballocale@locale@std@@CAPAV_Locimp@12@XZ 00408d8f f   libcpmt:locale0.obj
 0001:00007d95       ?_Init@locale@std@@CAPAV_Locimp@12@_N@Z 00408d95 f   libcpmt:locale0.obj
 0001:00007e22       ?_Locimp_dtor@_Locimp@locale@std@@CAXPAV123@@Z 00408e22 f   libcpmt:locale0.obj
 0001:00007e93       ?_Locinfo_ctor@_Locinfo@std@@SAXPAV12@PBD@Z 00408e93 f   libcpmt:locale0.obj
 0001:00007ede       ?_Locinfo_dtor@_Locinfo@std@@SAXPAV12@@Z 00408ede f   libcpmt:locale0.obj
 0001:00007ef8       ?_New_Locimp@_Locimp@locale@std@@CAPAV123@_N@Z 00408ef8 f   libcpmt:locale0.obj
 0001:00007f1b       ?_Setgloballocale@locale@std@@CAXPAX@Z 00408f1b f   libcpmt:locale0.obj
 0001:00007f43       __Deletegloballocale       00408f43 f   libcpmt:locale0.obj
 0001:00007fa8       __Getctype                 00408fa8 f   libcpmt:_tolower.obj
 0001:00008013       __Tolower                  00409013 f   libcpmt:_tolower.obj
 0001:0000811f       __Toupper                  0040911f f   libcpmt:_toupper.obj
 0001:0000822b       ?_Addstd@ios_base@std@@SAXPAV12@@Z 0040922b f   libcpmt:ios.obj
 0001:0000827d       ?_Callfns@ios_base@std@@AAEXW4event@12@@Z 0040927d f i libcpmt:ios.obj
 0001:000082b0       ?_Ios_base_dtor@ios_base@std@@CAXPAV12@@Z 004092b0 f   libcpmt:ios.obj
 0001:000082f0       ?_Tidy@ios_base@std@@AAEXXZ 004092f0 f i libcpmt:ios.obj
 0001:0000836b       ??1_Init_atexit@@QAE@XZ    0040936b f i libcpmt:iosptrs.obj
 0001:000083d3       ?_Atexit@@YAXP6AXXZ@Z      004093d3 f   libcpmt:iosptrs.obj
 0001:00008402       __Mtxdst                   00409402 f   libcpmt:xmtx.obj
 0001:00008410       __Mtxinit                  00409410 f   libcpmt:xmtx.obj
 0001:00008425       __Mtxlock                  00409425 f   libcpmt:xmtx.obj
 0001:00008433       __Mtxunlock                00409433 f   libcpmt:xmtx.obj
 0001:00008441       ??1?$__crt_scoped_stack_ptr@_W@@QAE@XZ 00409441 f i libcpmt:StlLCMapStringA.obj
 0001:0000845a       ___crtLCMapStringA         0040945a f   libcpmt:StlLCMapStringA.obj
 0001:00008626       __freea_crt                00409626 f i libcpmt:StlLCMapStringA.obj
 0001:00008644       ??2@YAPAXI@Z               00409644 f   LIBCMT:new_scalar.obj
 0001:00008674       ??3@YAXPAXI@Z              00409674 f   LIBCMT:delete_scalar_size.obj
 0001:00008682       ??_Etype_info@@UAEPAXI@Z   00409682 f i LIBCMT:std_type_info_static.obj
 0001:00008682       ??_Gtype_info@@UAEPAXI@Z   00409682 f i LIBCMT:std_type_info_static.obj
 0001:000086e9       ___scrt_acquire_startup_lock 004096e9 f   LIBCMT:utility.obj
 0001:0000871b       ___scrt_initialize_crt     0040971b f   LIBCMT:utility.obj
 0001:00008754       ___scrt_initialize_onexit_tables 00409754 f   LIBCMT:utility.obj
 0001:000087db       ___scrt_is_nonwritable_in_current_image 004097db f   LIBCMT:utility.obj
 0001:0000886f       ___scrt_release_startup_lock 0040986f f   LIBCMT:utility.obj
 0001:0000888c       ___scrt_uninitialize_crt   0040988c f   LIBCMT:utility.obj
 0001:000088b4       __onexit                   004098b4 f   LIBCMT:utility.obj
 0001:000088e1       _atexit                    004098e1 f   LIBCMT:utility.obj
 0001:000088f6       ___raise_securityfailure   004098f6 f   LIBCMT:gs_report.obj
 0001:0000891e       ___report_gsfailure        0040991e f   LIBCMT:gs_report.obj
 0001:00008a18       ___report_rangecheckfailure 00409a18 f   LIBCMT:gs_report.obj
 0001:00008a24       ___report_securityfailure  00409a24 f   LIBCMT:gs_report.obj
 0001:00008af3       __Init_thread_footer       00409af3 f   LIBCMT:thread_safe_statics.obj
 0001:00008b44       __Init_thread_header       00409b44 f   LIBCMT:thread_safe_statics.obj
 0001:00008b93       __Init_thread_wait_v2      00409b93 f   LIBCMT:thread_safe_statics.obj
 0001:00008ba8       @__security_check_cookie@4 00409ba8 f   LIBCMT:secchk.obj
 0001:00008bc0       __alloca_probe             00409bc0 f   LIBCMT:chkstk.obj
 0001:00008bc0       __chkstk                   00409bc0 f   LIBCMT:chkstk.obj
 0001:00008e32       _mainCRTStartup            00409e32 f   LIBCMT:exe_main.obj
 0001:00008e3c       ??_V@YAXPAX@Z              00409e3c f   LIBCMT:delete_array.obj
 0001:00008e41       __EH_epilog3               00409e41 f   LIBCMT:ehprolg3.obj
 0001:00008e55       __EH_epilog3_GS            00409e55 f   LIBCMT:ehprolg3.obj
 0001:00008e64       __EH_prolog3               00409e64 f   LIBCMT:ehprolg3.obj
 0001:00008e97       __EH_prolog3_GS            00409e97 f   LIBCMT:ehprolg3.obj
 0001:00008ecd       __EH_prolog3_catch         00409ecd f   LIBCMT:ehprolg3.obj
 0001:00008f10       __alloca_probe_16          00409f10 f   LIBCMT:alloca16.obj
 0001:00008f26       __alloca_probe_8           00409f26     LIBCMT:alloca16.obj
 0001:00008f3f       ___isa_available_init      00409f3f f   LIBCMT:cpu_disp.obj
 0001:00009120       __allmul                   0040a120 f   LIBCMT:llmul.obj
 0001:00009160       __aulldiv                  0040a160 f   LIBCMT:ulldiv.obj
 0001:000091c8       ?__scrt_throw_std_bad_alloc@@YAXXZ 0040a1c8 f   LIBCMT:throw_bad_alloc.obj
 0001:000091e5       ??3@YAXPAX@Z               0040a1e5 f   LIBCMT:delete_scalar.obj
 0001:000091ea       ___scrt_is_ucrt_dll_in_use 0040a1ea f   LIBCMT:ucrt_detection.obj
 0001:000091f6       ___scrt_fastfail           0040a1f6 f   LIBCMT:utility_desktop.obj
 0001:0000930b       ___scrt_initialize_mta     0040a30b f   LIBCMT:utility_desktop.obj
 0001:00009310       ___scrt_is_managed_app     0040a310 f   LIBCMT:utility_desktop.obj
 0001:00009352       ___scrt_set_unhandled_exception_filter 0040a352 f   LIBCMT:utility_desktop.obj
 0001:0000935e       ___scrt_unhandled_exception_filter@4 0040a35e f   LIBCMT:utility_desktop.obj
 0001:000093b4       __crt_debugger_hook        0040a3b4 f   LIBCMT:utility_desktop.obj
 0001:000093c0       __SEH_prolog4              0040a3c0 f   LIBCMT:sehprolg4.obj
 0001:00009452       ___security_init_cookie    0040a452 f   LIBCMT:gs_support.obj
 0001:0000949d       __get_startup_file_mode    0040a49d f   LIBCMT:file_mode.obj
 0001:000094a3       ?__scrt_initialize_type_info@@YAXXZ 0040a4a3 f   LIBCMT:tncleanup.obj
 0001:000094af       __initialize_default_precision 0040a4af f   LIBCMT:default_precision.obj
 0001:000094d0       ___local_stdio_scanf_options 0040a4d0 f i LIBCMT:default_local_stdio_options.obj
 0001:000094d6       ___scrt_initialize_default_local_stdio_options 0040a4d6 f   LIBCMT:default_local_stdio_options.obj
 0001:000094f3       ___scrt_is_user_matherr_present 0040a4f3 f   LIBCMT:matherr_detection.obj
 0001:000094ff       ___scrt_get_dyn_tls_init_callback 0040a4ff f   LIBCMT:dyn_tls_init.obj
 0001:00009505       ___scrt_get_dyn_tls_dtor_callback 0040a505 f   LIBCMT:dyn_tls_dtor.obj
 0001:0000950b       __RTC_Initialize           0040a50b f   LIBCMT:initsect.obj
 0001:00009537       __RTC_Terminate            0040a537 f   LIBCMT:initsect.obj
 0001:00009563       ___WSAFDIsSet@8            0040a563 f   WS2_32:WS2_32.dll
 0001:00009569       ___std_exception_copy      0040a569 f   libvcruntime:std_exception.obj
 0001:000095cc       ___std_exception_destroy   0040a5cc f   libvcruntime:std_exception.obj
 0001:000095eb       __CxxThrowException@8      0040a5eb f   libvcruntime:throw.obj
 0001:00009660       _memcpy                    0040a660 f   libvcruntime:memcpy.obj
 0001:00009660       _memmove                   0040a660 f   libvcruntime:memmove.obj
 0001:00009be0       ___DestructExceptionObject 0040abe0 f   libvcruntime:ehhelpers.obj
 0001:00009c81       ?_CallMemberFunction0@@YGXQAX0@Z 0040ac81 f i libvcruntime:ehhelpers.obj
 0001:00009ce6       __IsExceptionObjectToBeDestroyed 0040ace6 f   libvcruntime:ehhelpers.obj
 0001:00009d0c       ___AdjustPointer           0040ad0c f   libvcruntime:ehhelpers.obj
 0001:00009d31       ___FrameUnwindFilter       0040ad31 f   libvcruntime:ehhelpers.obj
 0001:00009d87       ___current_exception       0040ad87 f   libvcruntime:ehhelpers.obj
 0001:00009d90       ___current_exception_context 0040ad90 f   libvcruntime:ehhelpers.obj
 0001:00009d99       ___std_terminate           0040ad99 f   libvcruntime:ehhelpers.obj
 0001:00009d9e       ?GetRangeOfTrysToCheck@__FrameHandler3@@SA?AU?$pair@Viterator@TryBlockMap@__FrameHandler3@@V123@@std@@AAVTryBlockMap@1@HPAXPBU_s_FuncInfo@@H@Z 0040ad9e f   libvcruntime:trnsctrl.obj
 0001:00009e0d       ?_CallCatchBlock2@@YAPAXPAUEHRegistrationNode@@PBU_s_FuncInfo@@PAXHK@Z 0040ae0d f   libvcruntime:trnsctrl.obj
 0001:00009e6a       ?_CallSETranslator@@YAHPAUEHExceptionRecord@@PAUEHRegistrationNode@@PAX2PBU_s_FuncInfo@@H1@Z 0040ae6a f   libvcruntime:trnsctrl.obj
 0001:00009f5a       ?_JumpToContinuation@@YGXPAXPAUEHRegistrationNode@@@Z 0040af5a f   libvcruntime:trnsctrl.obj
 0001:00009f8a       ?_UnwindNestedFrames@@YGXPAUEHRegistrationNode@@PAUEHExceptionRecord@@@Z 0040af8a f   libvcruntime:trnsctrl.obj
 0001:00009fdd       __CatchGuardHandler        0040afdd f   libvcruntime:trnsctrl.obj
 0001:0000a00e       __CreateFrameInfo          0040b00e f   libvcruntime:trnsctrl.obj
 0001:0000a032       __FindAndUnlinkFrame       0040b032 f   libvcruntime:trnsctrl.obj
 0001:0000a07a       __TranslatorGuardHandler   0040b07a f   libvcruntime:trnsctrl.obj
 0001:0000a117       ___CxxFrameHandler3        0040b117 f   libvcruntime:trnsctrl.obj
 0001:0000a150       _memset                    0040b150 f   libvcruntime:memset.obj
 0001:0000a2aa       ___uncaught_exception      0040b2aa f   libvcruntime:uncaught_exception.obj
 0001:0000a2be       __get_purecall_handler     0040b2be f   libvcruntime:purevirt.obj
 0001:0000a2c5       __purecall                 0040b2c5 f   libvcruntime:purevirt.obj
 0001:0000a2f0       _memcmp                    0040b2f0 f   libvcruntime:memcmp.obj
 0001:0000b96c       ___vcrt_initialize         0040c96c f   libvcruntime:initialization.obj
 0001:0000b98b       ___vcrt_uninitialize       0040c98b f   libvcruntime:initialization.obj
 0001:0000b9f0       __except_handler4          0040c9f0 f   libvcruntime:chandler4.obj
 0001:0000bb4e       ___std_type_info_compare   0040cb4e f   libvcruntime:std_type_info.obj
 0001:0000bb8a       ___vcrt_freefls@4          0040cb8a f   libvcruntime:per_thread_data.obj
 0001:0000bba6       ___vcrt_getptd             0040cba6 f   libvcruntime:per_thread_data.obj
 0001:0000bbb4       ___vcrt_getptd_noexit      0040cbb4 f   libvcruntime:per_thread_data.obj
 0001:0000bc46       ___vcrt_getptd_noinit      0040cc46 f   libvcruntime:per_thread_data.obj
 0001:0000bc7d       ___vcrt_initialize_ptd     0040cc7d f   libvcruntime:per_thread_data.obj
 0001:0000bcb0       ___vcrt_uninitialize_ptd   0040ccb0 f   libvcruntime:per_thread_data.obj
 0001:0000c3fd       ??$TypeMatchHelper@V__FrameHandler3@@@@YAHPBU_s_HandlerType@@PBU_s_CatchableType@@PBU_s_ThrowInfo@@@Z 0040d3fd f i libvcruntime:frame.obj
 0001:0000c48b       ??$__InternalCxxFrameHandler@V__FrameHandler3@@@@YA?AW4_EXCEPTION_DISPOSITION@@PAUEHExceptionRecord@@PAUEHRegistrationNode@@PAU_CONTEXT@@PAXPBU_s_FuncInfo@@H1E@Z 0040d48b f i libvcruntime:frame.obj
 0001:0000c58d       ??$__InternalCxxFrameHandlerWrapper@V__FrameHandler3@@@@YA?AW4_EXCEPTION_DISPOSITION@@PAUEHExceptionRecord@@PAUEHRegistrationNode@@PAU_CONTEXT@@PAXPBU_s_FuncInfo@@H1E@Z 0040d58d f i libvcruntime:frame.obj
 0001:0000c596       ??0bad_exception@std@@QAE@ABV01@@Z 0040d596 f i libvcruntime:frame.obj
 0001:0000c5b1       ??0bad_exception@std@@QAE@XZ 0040d5b1 f i libvcruntime:frame.obj
 0001:0000c5c9       ??8type_info@@QBE_NABV0@@Z 0040d5c9 f i libvcruntime:frame.obj
 0001:0000c840       ?FrameUnwindToEmptyState@__FrameHandler3@@SAXPAUEHRegistrationNode@@PAXPBU_s_FuncInfo@@@Z 0040d840 f   libvcruntime:frame.obj
 0001:0000c858       ?FrameUnwindToState@__FrameHandler3@@SAXPAUEHRegistrationNode@@PAXPBU_s_FuncInfo@@H@Z 0040d858 f   libvcruntime:frame.obj
 0001:0000c9da       ?_CallMemberFunction1@@YGXQAX00@Z 0040d9da f i libvcruntime:frame.obj
 0001:0000c9ea       ?_CallMemberFunction2@@YGXQAX00H@Z 0040d9ea f i libvcruntime:frame.obj
 0001:0000c9fd       ?getESTypes@__FrameHandler3@@SAPBU_s_ESTypeList@@PBU_s_FuncInfo@@@Z 0040d9fd f i libvcruntime:frame.obj
 0001:0000ca10       __CallSettingFrame@12      0040da10 f   libvcruntime:lowhelpr.obj
 0001:0000ca37       __NLG_Return               0040da37     libvcruntime:lowhelpr.obj
 0001:0000ca5c       ___except_validate_context_record 0040da5c f   libvcruntime:jbcxrval.obj
 0001:0000ca8c       ___vcrt_initialize_locks   0040da8c f   libvcruntime:locks.obj
 0001:0000cac8       ___vcrt_uninitialize_locks 0040dac8 f   libvcruntime:locks.obj
 0001:0000cb00       __local_unwind4            0040db00 f   libvcruntime:exsup4.obj
 0001:0000cbf0       @_EH4_CallFilterFunc@8     0040dbf0 f   libvcruntime:exsup4.obj
 0001:0000cc10       @_EH4_TransferToHandler@8  0040dc10 f   libvcruntime:exsup4.obj
 0001:0000cc30       @_EH4_GlobalUnwind2@8      0040dc30 f   libvcruntime:exsup4.obj
 0001:0000cc50       @_EH4_LocalUnwind@16       0040dc50 f   libvcruntime:exsup4.obj
 0001:0000cd52       ___vcrt_FlsAlloc           0040dd52 f   libvcruntime:winapi_downlevel.obj
 0001:0000cd8d       ___vcrt_FlsFree            0040dd8d f   libvcruntime:winapi_downlevel.obj
 0001:0000cdc8       ___vcrt_FlsGetValue        0040ddc8 f   libvcruntime:winapi_downlevel.obj
 0001:0000ce03       ___vcrt_FlsSetValue        0040de03 f   libvcruntime:winapi_downlevel.obj
 0001:0000ce41       ___vcrt_InitializeCriticalSectionEx 0040de41 f   libvcruntime:winapi_downlevel.obj
 0001:0000ce88       _unexpected                0040de88 f   libvcruntime:unexpected.obj
 0001:0000cea5       ?GetCurrentState@__FrameHandler3@@SAHPAUEHRegistrationNode@@PAXPBU_s_FuncInfo@@@Z 0040dea5 f   libvcruntime:ehstate.obj
 0001:0000cec2       ?SetState@__FrameHandler3@@SAXPAUEHRegistrationNode@@PBU_s_FuncInfo@@H@Z 0040dec2 f   libvcruntime:ehstate.obj
 0001:0000ced0       __NLG_Notify1              0040ded0 f   libvcruntime:exsup.obj
 0001:0000cee0       __NLG_Notify               0040dee0 f   libvcruntime:exsup.obj
 0001:0000cef7       __NLG_Dispatch             0040def7     libvcruntime:exsup.obj
 0001:0000cef7       __NLG_Dispatch2            0040def7     libvcruntime:exsup.obj
 0001:0000cf00       __NLG_Call                 0040df00 f   libvcruntime:exsup.obj
 0001:0000cf02       __NLG_Return2              0040df02     libvcruntime:exsup.obj
 0001:0000cf03       ??0__crt_cached_ptd_host@@QAE@QAU__crt_locale_pointers@@@Z 0040df03 f i libucrt:invalid_parameter.obj
 0001:0000cf4b       ??1__crt_cached_ptd_host@@QAE@XZ 0040df4b f i libucrt:invalid_parameter.obj
 0001:0000cf87       ?check_synchronize_global_state_index@__crt_cached_ptd_host@@AAEIXZ 0040df87 f i libucrt:invalid_parameter.obj
 0001:0000cfb0       ?force_synchronize_per_thread_data@__crt_cached_ptd_host@@AAEPAU__acrt_ptd@@XZ 0040dfb0 f i libucrt:invalid_parameter.obj
 0001:0000cff6       ?get_raw_ptd@__crt_cached_ptd_host@@QAEPAU__acrt_ptd@@XZ 0040dff6 f i libucrt:invalid_parameter.obj
 0001:0000d013       ___acrt_call_reportfault   0040e013 f   libucrt:invalid_parameter.obj
 0001:0000d14c       ___acrt_initialize_invalid_parameter_handler 0040e14c f   libucrt:invalid_parameter.obj
 0001:0000d15b       __invalid_parameter        0040e15b f   libucrt:invalid_parameter.obj
 0001:0000d192       __invalid_parameter_internal 0040e192 f   libucrt:invalid_parameter.obj
 0001:0000d20f       __invalid_parameter_noinfo 0040e20f f   libucrt:invalid_parameter.obj
 0001:0000d21f       __invalid_parameter_noinfo_noreturn 0040e21f f   libucrt:invalid_parameter.obj
 0001:0000d23c       __invoke_watson            0040e23c f   libucrt:invalid_parameter.obj
 0001:0000d270       _free                      0040e270 f   libucrt:free.obj
 0001:0000d28b       __strdup                   0040e28b f   libucrt:strdup.obj
 0001:0000d40d       __itow_s                   0040e40d f   libucrt:xtoa.obj
 0001:0000d60f       ??$count@D@formatting_buffer@__crt_stdio_output@@QBEIXZ 0040e60f f i libucrt:output.obj
 0001:0000d627       ??$ensure_buffer_is_big_enough@D@formatting_buffer@__crt_stdio_output@@QAE_NIAAV__crt_cached_ptd_host@@@Z 0040e627 f i libucrt:output.obj
 0001:0000d6a8       ??$is_overflow_condition@K@__crt_strtox@@YA_NIK@Z 0040e6a8 f i libucrt:output.obj
 0001:0000d6dc       ??$is_wide_character_specifier@D@__crt_stdio_output@@YA_N_KDW4length_modifier@0@@Z 0040e6dc f i libucrt:output.obj
 0001:0000d70d       ??$parse_integer@KV?$c_string_character_source@D@__crt_strtox@@$0A@@__crt_strtox@@YAKAAV__crt_cached_ptd_host@@V?$c_string_character_source@D@0@H_N@Z 0040e70d f i libucrt:output.obj
 0001:0000d91c       ??$scratch_data@D@formatting_buffer@__crt_stdio_output@@QAEPADXZ 0040e91c f i libucrt:output.obj
 0001:0000d93a       ??$type_case_integer@$07@?$output_processor@DV?$stream_output_adapter@D@__crt_stdio_output@@V?$standard_base@DV?$stream_output_adapter@D@__crt_stdio_output@@@2@@__crt_stdio_output@@AAE_N_N@Z 0040e93a f i libucrt:output.obj
 0001:0000d93a       ??$type_case_integer@$07@?$output_processor@DV?$string_output_adapter@D@__crt_stdio_output@@V?$standard_base@DV?$string_output_adapter@D@__crt_stdio_output@@@2@@__crt_stdio_output@@AAE_N_N@Z 0040e93a f i libucrt:output.obj
 0001:0000dac7       ??$type_case_integer@$09@?$output_processor@DV?$stream_output_adapter@D@__crt_stdio_output@@V?$standard_base@DV?$stream_output_adapter@D@__crt_stdio_output@@@2@@__crt_stdio_output@@AAE_N_N@Z 0040eac7 f i libucrt:output.obj
 0001:0000dac7       ??$type_case_integer@$09@?$output_processor@DV?$string_output_adapter@D@__crt_stdio_output@@V?$standard_base@DV?$string_output_adapter@D@__crt_stdio_output@@@2@@__crt_stdio_output@@AAE_N_N@Z 0040eac7 f i libucrt:output.obj
 0001:0000dc54       ??$type_case_integer@$0BA@@?$output_processor@DV?$stream_output_adapter@D@__crt_stdio_output@@V?$standard_base@DV?$stream_output_adapter@D@__crt_stdio_output@@@2@@__crt_stdio_output@@AAE_N_N@Z 0040ec54 f i libucrt:output.obj
 0001:0000dc54       ??$type_case_integer@$0BA@@?$output_processor@DV?$string_output_adapter@D@__crt_stdio_output@@V?$standard_base@DV?$string_output_adapter@D@__crt_stdio_output@@@2@@__crt_stdio_output@@AAE_N_N@Z 0040ec54 f i libucrt:output.obj
 0001:0000dde1       ??$type_case_integer_parse_into_buffer@I$07@?$output_processor@DV?$stream_output_adapter@D@__crt_stdio_output@@V?$standard_base@DV?$stream_output_adapter@D@__crt_stdio_output@@@2@@__crt_stdio_output@@AAEXI_N@Z 0040ede1 f i libucrt:output.obj
 0001:0000dde1       ??$type_case_integer_parse_into_buffer@I$07@?$output_processor@DV?$string_output_adapter@D@__crt_stdio_output@@V?$standard_base@DV?$string_output_adapter@D@__crt_stdio_output@@@2@@__crt_stdio_output@@AAEXI_N@Z 0040ede1 f i libucrt:output.obj
 0001:0000de44       ??$type_case_integer_parse_into_buffer@I$09@?$output_processor@DV?$stream_output_adapter@D@__crt_stdio_output@@V?$standard_base@DV?$stream_output_adapter@D@__crt_stdio_output@@@2@@__crt_stdio_output@@AAEXI_N@Z 0040ee44 f i libucrt:output.obj
 0001:0000de44       ??$type_case_integer_parse_into_buffer@I$09@?$output_processor@DV?$string_output_adapter@D@__crt_stdio_output@@V?$standard_base@DV?$string_output_adapter@D@__crt_stdio_output@@@2@@__crt_stdio_output@@AAEXI_N@Z 0040ee44 f i libucrt:output.obj
 0001:0000decb       ??$type_case_integer_parse_into_buffer@I$0BA@@?$output_processor@DV?$stream_output_adapter@D@__crt_stdio_output@@V?$standard_base@DV?$stream_output_adapter@D@__crt_stdio_output@@@2@@__crt_stdio_output@@AAEXI_N@Z 0040eecb f i libucrt:output.obj
 0001:0000decb       ??$type_case_integer_parse_into_buffer@I$0BA@@?$output_processor@DV?$string_output_adapter@D@__crt_stdio_output@@V?$standard_base@DV?$string_output_adapter@D@__crt_stdio_output@@@2@@__crt_stdio_output@@AAEXI_N@Z 0040eecb f i libucrt:output.obj
 0001:0000df48       ??$type_case_integer_parse_into_buffer@_K$07@?$output_processor@DV?$stream_output_adapter@D@__crt_stdio_output@@V?$standard_base@DV?$stream_output_adapter@D@__crt_stdio_output@@@2@@__crt_stdio_output@@AAEX_K_N@Z 0040ef48 f i libucrt:output.obj
 0001:0000df48       ??$type_case_integer_parse_into_buffer@_K$07@?$output_processor@DV?$string_output_adapter@D@__crt_stdio_output@@V?$standard_base@DV?$string_output_adapter@D@__crt_stdio_output@@@2@@__crt_stdio_output@@AAEX_K_N@Z 0040ef48 f i libucrt:output.obj
 0001:0000dfc0       ??$type_case_integer_parse_into_buffer@_K$09@?$output_processor@DV?$stream_output_adapter@D@__crt_stdio_output@@V?$standard_base@DV?$stream_output_adapter@D@__crt_stdio_output@@@2@@__crt_stdio_output@@AAEX_K_N@Z 0040efc0 f i libucrt:output.obj
 0001:0000dfc0       ??$type_case_integer_parse_into_buffer@_K$09@?$output_processor@DV?$string_output_adapter@D@__crt_stdio_output@@V?$standard_base@DV?$string_output_adapter@D@__crt_stdio_output@@@2@@__crt_stdio_output@@AAEX_K_N@Z 0040efc0 f i libucrt:output.obj
 0001:0000e067       ??$type_case_integer_parse_into_buffer@_K$0BA@@?$output_processor@DV?$stream_output_adapter@D@__crt_stdio_output@@V?$standard_base@DV?$stream_output_adapter@D@__crt_stdio_output@@@2@@__crt_stdio_output@@AAEX_K_N@Z 0040f067 f i libucrt:output.obj
 0001:0000e067       ??$type_case_integer_parse_into_buffer@_K$0BA@@?$output_processor@DV?$string_output_adapter@D@__crt_stdio_output@@V?$standard_base@DV?$string_output_adapter@D@__crt_stdio_output@@@2@@__crt_stdio_output@@AAEX_K_N@Z 0040f067 f i libucrt:output.obj
 0001:0000e0f1       ??0?$output_adapter_data@DV?$stream_output_adapter@D@__crt_stdio_output@@@__crt_stdio_output@@IAE@ABV?$stream_output_adapter@D@1@_KQBDAAV__crt_cached_ptd_host@@QAD@Z 0040f0f1 f i libucrt:output.obj
 0001:0000e0f1       ??0?$output_adapter_data@DV?$string_output_adapter@D@__crt_stdio_output@@@__crt_stdio_output@@IAE@ABV?$string_output_adapter@D@1@_KQBDAAV__crt_cached_ptd_host@@QAD@Z 0040f0f1 f i libucrt:output.obj
 0001:0000e158       ??1formatting_buffer@__crt_stdio_output@@QAE@XZ 0040f158 f i libucrt:output.obj
 0001:0000e172       ??4?$__crt_unique_heap_ptr@DU__crt_internal_free_policy@@@@QAEAAV0@$$QAV0@@Z 0040f172 f i libucrt:output.obj
 0001:0000e232       ?crop_zeroes@__crt_stdio_output@@YAXPADQAU__crt_locale_pointers@@@Z 0040f232 f i libucrt:output.obj
 0001:0000e292       ?find_next_state@?$output_processor@DV?$stream_output_adapter@D@__crt_stdio_output@@V?$standard_base@DV?$stream_output_adapter@D@__crt_stdio_output@@@2@@__crt_stdio_output@@ABE?AW4state@2@DW432@@Z 0040f292 f i libucrt:output.obj
 0001:0000e292       ?find_next_state@?$output_processor@DV?$string_output_adapter@D@__crt_stdio_output@@V?$standard_base@DV?$string_output_adapter@D@__crt_stdio_output@@@2@@__crt_stdio_output@@ABE?AW4state@2@DW432@@Z 0040f292 f i libucrt:output.obj
 0001:0000e2cd       ?force_decimal_point@__crt_stdio_output@@YAXPADQAU__crt_locale_pointers@@@Z 0040f2cd f i libucrt:output.obj
 0001:0000e329       ?parse_int_from_format_string@?$output_processor@DV?$stream_output_adapter@D@__crt_stdio_output@@V?$standard_base@DV?$stream_output_adapter@D@__crt_stdio_output@@@2@@__crt_stdio_output@@AAE_NQAH@Z 0040f329 f i libucrt:output.obj
 0001:0000e329       ?parse_int_from_format_string@?$output_processor@DV?$string_output_adapter@D@__crt_stdio_output@@V?$standard_base@DV?$string_output_adapter@D@__crt_stdio_output@@@2@@__crt_stdio_output@@AAE_NQAH@Z 0040f329 f i libucrt:output.obj
 0001:0000e3a1       ?process@?$output_processor@DV?$stream_output_adapter@D@__crt_stdio_output@@V?$standard_base@DV?$stream_output_adapter@D@__crt_stdio_output@@@2@@__crt_stdio_output@@QAEHXZ 0040f3a1 f i libucrt:output.obj
 0001:0000e651       ?process@?$output_processor@DV?$string_output_adapter@D@__crt_stdio_output@@V?$standard_base@DV?$string_output_adapter@D@__crt_stdio_output@@@2@@__crt_stdio_output@@QAEHXZ 0040f651 f i libucrt:output.obj
 0001:0000e925       ?state_case_size@?$output_processor@DV?$stream_output_adapter@D@__crt_stdio_output@@V?$standard_base@DV?$stream_output_adapter@D@__crt_stdio_output@@@2@@__crt_stdio_output@@AAE_NXZ 0040f925 f i libucrt:output.obj
 0001:0000ea7e       ?state_case_size@?$output_processor@DV?$string_output_adapter@D@__crt_stdio_output@@V?$standard_base@DV?$string_output_adapter@D@__crt_stdio_output@@@2@@__crt_stdio_output@@AAE_NXZ 0040fa7e f i libucrt:output.obj
 0001:0000ebd7       ?state_case_type@?$output_processor@DV?$stream_output_adapter@D@__crt_stdio_output@@V?$standard_base@DV?$stream_output_adapter@D@__crt_stdio_output@@@2@@__crt_stdio_output@@AAE_NXZ 0040fbd7 f i libucrt:output.obj
 0001:0000ef19       ?state_case_type@?$output_processor@DV?$string_output_adapter@D@__crt_stdio_output@@V?$standard_base@DV?$string_output_adapter@D@__crt_stdio_output@@@2@@__crt_stdio_output@@AAE_NXZ 0040ff19 f i libucrt:output.obj
 0001:0000f278       ?to_integer_size@__crt_stdio_output@@YAIW4length_modifier@1@@Z 00410278 f i libucrt:output.obj
 0001:0000f2cc       ?type_case_Z@?$output_processor@DV?$stream_output_adapter@D@__crt_stdio_output@@V?$standard_base@DV?$stream_output_adapter@D@__crt_stdio_output@@@2@@__crt_stdio_output@@AAE_NXZ 004102cc f i libucrt:output.obj
 0001:0000f2cc       ?type_case_Z@?$output_processor@DV?$string_output_adapter@D@__crt_stdio_output@@V?$standard_base@DV?$string_output_adapter@D@__crt_stdio_output@@@2@@__crt_stdio_output@@AAE_NXZ 004102cc f i libucrt:output.obj
 0001:0000f32f       ?type_case_a@?$output_processor@DV?$stream_output_adapter@D@__crt_stdio_output@@V?$standard_base@DV?$stream_output_adapter@D@__crt_stdio_output@@@2@@__crt_stdio_output@@AAE_NXZ 0041032f f i libucrt:output.obj
 0001:0000f32f       ?type_case_a@?$output_processor@DV?$string_output_adapter@D@__crt_stdio_output@@V?$standard_base@DV?$string_output_adapter@D@__crt_stdio_output@@@2@@__crt_stdio_output@@AAE_NXZ 0041032f f i libucrt:output.obj
 0001:0000f4c0       ?type_case_c_tchar@?$output_processor@DV?$stream_output_adapter@D@__crt_stdio_output@@V?$standard_base@DV?$stream_output_adapter@D@__crt_stdio_output@@@2@@__crt_stdio_output@@AAE_ND@Z 004104c0 f i libucrt:output.obj
 0001:0000f4c0       ?type_case_c_tchar@?$output_processor@DV?$string_output_adapter@D@__crt_stdio_output@@V?$standard_base@DV?$string_output_adapter@D@__crt_stdio_output@@@2@@__crt_stdio_output@@AAE_ND@Z 004104c0 f i libucrt:output.obj
 0001:0000f555       ?type_case_n@?$output_processor@DV?$stream_output_adapter@D@__crt_stdio_output@@V?$standard_base@DV?$stream_output_adapter@D@__crt_stdio_output@@@2@@__crt_stdio_output@@AAE_NXZ 00410555 f i libucrt:output.obj
 0001:0000f555       ?type_case_n@?$output_processor@DV?$string_output_adapter@D@__crt_stdio_output@@V?$standard_base@DV?$string_output_adapter@D@__crt_stdio_output@@@2@@__crt_stdio_output@@AAE_NXZ 00410555 f i libucrt:output.obj
 0001:0000f5da       ?type_case_o@?$output_processor@DV?$stream_output_adapter@D@__crt_stdio_output@@V?$standard_base@DV?$stream_output_adapter@D@__crt_stdio_output@@@2@@__crt_stdio_output@@AAE_NXZ 004105da f i libucrt:output.obj
 0001:0000f5da       ?type_case_o@?$output_processor@DV?$string_output_adapter@D@__crt_stdio_output@@V?$standard_base@DV?$string_output_adapter@D@__crt_stdio_output@@@2@@__crt_stdio_output@@AAE_NXZ 004105da f i libucrt:output.obj
 0001:0000f5f7       ?type_case_p@?$output_processor@DV?$stream_output_adapter@D@__crt_stdio_output@@V?$standard_base@DV?$stream_output_adapter@D@__crt_stdio_output@@@2@@__crt_stdio_output@@AAE_NXZ 004105f7 f i libucrt:output.obj
 0001:0000f5f7       ?type_case_p@?$output_processor@DV?$string_output_adapter@D@__crt_stdio_output@@V?$standard_base@DV?$string_output_adapter@D@__crt_stdio_output@@@2@@__crt_stdio_output@@AAE_NXZ 004105f7 f i libucrt:output.obj
 0001:0000f60d       ?type_case_s@?$output_processor@DV?$stream_output_adapter@D@__crt_stdio_output@@V?$standard_base@DV?$stream_output_adapter@D@__crt_stdio_output@@@2@@__crt_stdio_output@@AAE_NXZ 0041060d f i libucrt:output.obj
 0001:0000f60d       ?type_case_s@?$output_processor@DV?$string_output_adapter@D@__crt_stdio_output@@V?$standard_base@DV?$string_output_adapter@D@__crt_stdio_output@@@2@@__crt_stdio_output@@AAE_NXZ 0041060d f i libucrt:output.obj
 0001:0000f67f       ?unget@?$c_string_character_source@D@__crt_strtox@@QAEXD@Z 0041067f f i libucrt:output.obj
 0001:0000f6a8       ?unget@?$c_string_character_source@_W@__crt_strtox@@QAEX_W@Z 004106a8 f i libucrt:output.obj
 0001:0000f6e0       ?update_locale_slow@__crt_cached_ptd_host@@AAEXXZ 004106e0 f i libucrt:output.obj
 0001:0000f73b       ?validate@?$c_string_character_source@D@__crt_strtox@@QBE_NXZ 0041073b f i libucrt:output.obj
 0001:0000f73b       ?validate@?$c_string_character_source@_W@__crt_strtox@@QBE_NXZ 0041073b f i libucrt:output.obj
 0001:0000f756       ?validate@?$stream_output_adapter@D@__crt_stdio_output@@QBE_NAAV__crt_cached_ptd_host@@@Z 00410756 f i libucrt:output.obj
 0001:0000f78e       ?validate@?$string_output_adapter@D@__crt_stdio_output@@QBE_NAAV__crt_cached_ptd_host@@@Z 0041078e f i libucrt:output.obj
 0001:0000f7bf       ?validate_stream_is_ansi_if_required@?$__acrt_stdio_char_traits@D@@SA_NQAU_iobuf@@@Z 004107bf f i libucrt:output.obj
 0001:0000f846       ?write_character@?$output_adapter_common@DV?$stream_output_adapter@D@__crt_stdio_output@@@__crt_stdio_output@@QBEXDQAHAAV__crt_cached_ptd_host@@@Z 00410846 f i libucrt:output.obj
 0001:0000f868       ?write_character_without_count_update@?$stream_output_adapter@D@__crt_stdio_output@@QBE_NDAAV__crt_cached_ptd_host@@@Z 00410868 f i libucrt:output.obj
 0001:0000f8a2       ?write_string@?$stream_output_adapter@D@__crt_stdio_output@@QBEXQBDHQAHAAV__crt_cached_ptd_host@@@Z 004108a2 f i libucrt:output.obj
 0001:0000f8ce       ?write_string@?$string_output_adapter@D@__crt_stdio_output@@QBEXQBDHQAHAAV__crt_cached_ptd_host@@@Z 004108ce f i libucrt:output.obj
 0001:0000f935       ?write_string_impl@?$output_adapter_common@DV?$stream_output_adapter@D@__crt_stdio_output@@@__crt_stdio_output@@IBEXQBDHQAHAAV__crt_cached_ptd_host@@@Z 00410935 f i libucrt:output.obj
 0001:0000f9b4       ___acrt_locale_get_ctype_array_value 004109b4 f i libucrt:output.obj
 0001:0000f9d6       ___stdio_common_vfprintf   004109d6 f   libucrt:output.obj
 0001:0000fa7a       ___stdio_common_vsprintf   00410a7a f   libucrt:output.obj
 0001:0000fb91       __strtime                  00410b91 f   libucrt:strtime.obj
 0001:0000fbad       __time64                   00410bad f   libucrt:time.obj
 0001:0000fc15       _calloc                    00410c15 f   libucrt:calloc.obj
 0001:0000fc20       _srand                     00410c20 f   libucrt:rand.obj
 0001:0000fc32       ___acrt_initialize_stdio   00410c32 f   libucrt:_file.obj
 0001:0000fcfa       ___acrt_iob_func           00410cfa f   libucrt:_file.obj
 0001:0000fd0a       ___acrt_uninitialize_stdio 00410d0a f   libucrt:_file.obj
 0001:0000fd56       __get_stream_buffer_pointers 00410d56 f   libucrt:_file.obj
 0001:0000fd9c       __lock_file                00410d9c f   libucrt:_file.obj
 0001:0000fdb0       __unlock_file              00410db0 f   libucrt:_file.obj
 0001:0000fdc4       ??$parse_integer@KV?$c_string_character_source@D@__crt_strtox@@$00@__crt_strtox@@YAKAAV__crt_cached_ptd_host@@V?$c_string_character_source@D@0@H_N@Z 00410dc4 f i libucrt:atox.obj
 0001:0001000b       ??$parse_integer@KV?$c_string_character_source@_W@__crt_strtox@@$00@__crt_strtox@@YAKAAV__crt_cached_ptd_host@@V?$c_string_character_source@_W@0@H_N@Z 0041100b f i libucrt:atox.obj
 0001:00010619       __ischartype_l             00411619 f i libucrt:atox.obj
 0001:00010670       __wtol                     00411670 f   libucrt:atox.obj
 0001:000106af       _atoi                      004116af f   libucrt:atox.obj
 0001:000106af       _atol                      004116af f   libucrt:atox.obj
 0001:00010813       _fclose                    00411813 f   libucrt:fclose.obj
 0001:00010915       _fgets                     00411915 f   libucrt:fgets.obj
 0001:000109d7       _fopen                     004119d7 f   libucrt:fopen.obj
 0001:000109f0       _strncpy                   004119f0 f   libucrt:strncpy.obj
 0001:00010d4d       ___acrt_stdio_flush_nolock 00411d4d f   libucrt:fflush.obj
 0001:00010db6       __fflush_nolock            00411db6 f   libucrt:fflush.obj
 0001:00010e1b       __flushall                 00411e1b f   libucrt:fflush.obj
 0001:00010e24       _fflush                    00411e24 f   libucrt:fflush.obj
 0001:00010e77       __fgetc_nolock             00411e77 f   libucrt:fgetc.obj
 0001:00010eb3       __getc_nolock              00411eb3 f   libucrt:fgetc.obj
 0001:00010ebe       _fgetc                     00411ebe f   libucrt:fgetc.obj
 0001:00010fd7       _fgetpos                   00411fd7 f   libucrt:fgetpos.obj
 0001:00011166       __fputc_nolock_internal    00412166 f   libucrt:fputc.obj
 0001:00011193       _fputc                     00412193 f   libucrt:fputc.obj
 0001:000111c7       __fread_nolock_s           004121c7 f   libucrt:fread.obj
 0001:000113a0       _fread                     004123a0 f   libucrt:fread.obj
 0001:000113bd       _fread_s                   004123bd f   libucrt:fread.obj
 0001:000114db       _fsetpos                   004124db f   libucrt:fsetpos.obj
 0001:00011516       ?LongLongSub@@YAJ_J0PA_J@Z 00412516 f i libucrt:fseek.obj
 0001:000117ff       __fseeki64                 004127ff f   libucrt:fseek.obj
 0001:000118e0       __fwrite_internal          004128e0 f   libucrt:fwrite.obj
 0001:00011957       __fwrite_nolock_internal   00412957 f   libucrt:fwrite.obj
 0001:00011afe       _fwrite                    00412afe f   libucrt:fwrite.obj
 0001:00011cfc       _setvbuf                   00412cfc f   libucrt:setvbuf.obj
 0001:00011d36       __ungetc_nolock            00412d36 f   libucrt:ungetc.obj
 0001:00011e2a       _ungetc                    00412e2a f   libucrt:ungetc.obj
 0001:00011e9d       ___acrt_initialize_locks   00412e9d f   libucrt:locks.obj
 0001:00011ede       ___acrt_lock               00412ede f   libucrt:locks.obj
 0001:00011ef5       ___acrt_uninitialize_locks 00412ef5 f   libucrt:locks.obj
 0001:00011f26       ___acrt_unlock             00412f26 f   libucrt:locks.obj
 0001:00011f3d       __lock_locales             00412f3d f   libucrt:locks.obj
 0001:00011f4b       __unlock_locales           00412f4b f   libucrt:locks.obj
 0001:00011f54       _malloc                    00412f54 f   libucrt:malloc.obj
 0001:000121b4       _setlocale                 004131b4 f   libucrt:setlocale.obj
 0001:000121ec       ___pctype_func             004131ec f   libucrt:ctype.obj
 0001:00012210       _islower                   00413210 f   libucrt:_ctype.obj
 0001:000122a0       _isupper                   004132a0 f   libucrt:_ctype.obj
 0001:00012324       ____lc_codepage_func       00413324 f   libucrt:initctype.obj
 0001:00012349       ____lc_locale_name_func    00413349 f   libucrt:initctype.obj
 0001:00012370       ___acrt_locale_initialize_ctype 00413370 f   libucrt:initctype.obj
 0001:000127cd       __wcsdup                   004137cd f   libucrt:wcsdup.obj
 0001:0001282c       _abort                     0041382c f   libucrt:abort.obj
 0001:00012870       ___acrt_errno_from_os_error 00413870 f   libucrt:errno.obj
 0001:000128b3       ___acrt_errno_map_os_error 004138b3 f   libucrt:errno.obj
 0001:000128d6       ___acrt_errno_map_os_error_ptd 004138d6 f   libucrt:errno.obj
 0001:000128fa       ___doserrno                004138fa f   libucrt:errno.obj
 0001:0001290d       __errno                    0041390d f   libucrt:errno.obj
 0001:00012920       ??0_LocaleUpdate@@QAE@QAU__crt_locale_pointers@@@Z 00413920 f i libucrt:strtod.obj
 0001:000129b0       ?divide@__crt_strtox@@YA_KAAUbig_integer@1@ABU21@@Z 004139b0 f i libucrt:strtod.obj
 0001:00012e60       _strcspn                   00413e60 f   libucrt:strcspn.obj
 0001:00012ea6       ___strncnt                 00413ea6 f   libucrt:strncnt.obj
 0001:00012ec2       ??$__acrt_convert_wcs_mbs_cp@D_WV<lambda_62f6974d9771e494a5ea317cc32e971c>@@U__crt_win32_buffer_internal_dynamic_resizing@@@@YAHQBDAAV?$__crt_win32_buffer@_WU__crt_win32_buffer_internal_dynamic_resizing@@@@ABV<lambda_62f6974d9771e494a5ea317cc32e971c>@@I@Z 00413ec2 f i libucrt:strftime.obj
 0001:00012f74       ??$__acrt_convert_wcs_mbs_cp@_WDV<lambda_0fec1a7b3f42a53036604e18c2d5e07e>@@U__crt_win32_buffer_no_resizing@@@@YAHQB_WAAV?$__crt_win32_buffer@DU__crt_win32_buffer_no_resizing@@@@ABV<lambda_0fec1a7b3f42a53036604e18c2d5e07e>@@I@Z 00413f74 f i libucrt:strftime.obj
 0001:00013036       ??$__acrt_mbs_to_wcs_cp@U__crt_win32_buffer_internal_dynamic_resizing@@@@YAHQBDAAV?$__crt_win32_buffer@_WU__crt_win32_buffer_internal_dynamic_resizing@@@@I@Z 00414036 f i libucrt:strftime.obj
 0001:00013053       ??R<lambda_0fec1a7b3f42a53036604e18c2d5e07e>@@QBE@IQB_WQADI@Z 00414053 f i libucrt:strftime.obj
 0001:00013053       ??R<lambda_28bda7af82a03b66c1cb3803a755f95d>@@QBE@IQB_WQADI@Z 00414053 f i libucrt:argv_wildcards.obj
 0001:00013077       ?_deallocate@?$__crt_win32_buffer@DU__crt_win32_buffer_internal_dynamic_resizing@@@@AAEXXZ 00414077 f i libucrt:argv_wildcards.obj
 0001:00013077       ?_deallocate@?$__crt_win32_buffer@_WU__crt_win32_buffer_internal_dynamic_resizing@@@@AAEXXZ 00414077 f i libucrt:strftime.obj
 0001:00013091       ?allocate@?$__crt_win32_buffer@DU__crt_win32_buffer_no_resizing@@@@QAEHI@Z 00414091 f i libucrt:strftime.obj
 0001:000130b8       ?allocate@?$__crt_win32_buffer@_WU__crt_win32_buffer_internal_dynamic_resizing@@@@QAEHI@Z 004140b8 f i libucrt:strftime.obj
 0001:000130f7       ?allocate@__crt_win32_buffer_internal_dynamic_resizing@@SAHQAPAXIABV__crt_win32_buffer_empty_debug_info@@@Z 004140f7 f i libucrt:strftime.obj
 0001:00013116       ?set_to_nullptr@?$__crt_win32_buffer@DU__crt_win32_buffer_no_resizing@@@@QAEXXZ 00414116 f i libucrt:strftime.obj
 0001:0001312a       _strnlen                   0041412a f   libucrt:strnlen.obj
 0001:0001324c       _wcsnlen                   0041424c f   libucrt:strnlen.obj
 0001:000133fc       ??$__crt_fast_decode_pointer@P6AHI@Z@@YAP6AHI@ZQ6AHI@Z@Z 004143fc f i libucrt:new_handler.obj
 0001:000133fc       ??$__crt_fast_decode_pointer@P6AXH@Z@@YAP6AXH@ZQ6AXH@Z@Z 004143fc f i libucrt:signal.obj
 0001:000133fc       ??$__crt_fast_decode_pointer@P6GXPAXK0@Z@@YAP6GXPAXK0@ZQ6GX0K0@Z@Z 004143fc f i libucrt:exit.obj
 0001:00013417       ___acrt_initialize_new_handler 00414417 f   libucrt:new_handler.obj
 0001:00013426       __callnewh                 00414426 f   libucrt:new_handler.obj
 0001:00013452       __query_new_handler        00414452 f   libucrt:new_handler.obj
 0001:000134a9       __seh_filter_exe           004144a9 f   libucrt:exception_filter.obj
 0001:0001363c       ??$__crt_fast_encode_pointer@P6AHPAU_exception@@@Z@@YAP6AHPAU_exception@@@ZQ6AH0@Z@Z 0041463c f i libucrt:matherr.obj
 0001:0001363c       ??$__crt_fast_encode_pointer@P6AHXZ@@YAP6AHXZQ6AHXZ@Z 0041463c f i libucrt:onexit.obj
 0001:0001363c       ??$__crt_fast_encode_pointer@P6GHPA_WKJ@Z@@YAP6GHPA_WKJ@ZQ6GH0KJ@Z@Z 0041463c f i libucrt:winapi_thunks.obj
 0001:0001363c       ??$__crt_fast_encode_pointer@P6GXPAXK0@Z@@YAP6GXPAXK0@ZQ6GX0K0@Z@Z 0041463c f i libucrt:exit.obj
 0001:0001363c       ??$__crt_fast_encode_pointer@PAP6AXXZ@@YAPAP6AXXZQAP6AXXZ@Z 0041463c f i libucrt:onexit.obj
 0001:0001363c       ??$__crt_fast_encode_pointer@PAX@@YAPAXQAX@Z 0041463c f i libucrt:initialization.obj
 0001:000138a6       ___acrt_initialize_thread_local_exit_callback 004148a6 f   libucrt:exit.obj
 0001:000138b5       __c_exit                   004148b5 f   libucrt:exit.obj
 0001:000138c4       __cexit                    004148c4 f   libucrt:exit.obj
 0001:000138d3       __exit                     004148d3 f   libucrt:exit.obj
 0001:000138e9       __register_thread_local_exe_atexit_callback 004148e9 f   libucrt:exit.obj
 0001:0001390f       _exit                      0041490f f   libucrt:exit.obj
 0001:00013bd6       ___acrt_allocate_buffer_for_argv 00414bd6 f   libucrt:argv_parsing.obj
 0001:00013c25       __configure_narrow_argv    00414c25 f   libucrt:argv_parsing.obj
 0001:00013e80       ___dcrt_get_or_create_narrow_environment_nolock 00414e80 f   libucrt:environment_initialization.obj
 0001:00013e85       ___dcrt_uninitialize_environments_nolock 00414e85 f   libucrt:environment_initialization.obj
 0001:00013ed6       __get_initial_narrow_environment 00414ed6 f   libucrt:environment_initialization.obj
 0001:00013eea       __initialize_narrow_environment 00414eea f   libucrt:environment_initialization.obj
 0001:00014181       __crt_atexit               00415181 f   libucrt:onexit.obj
 0001:00014197       __execute_onexit_table     00415197 f   libucrt:onexit.obj
 0001:000141d5       __initialize_onexit_table  004151d5 f   libucrt:onexit.obj
 0001:000141fe       __register_onexit_function 004151fe f   libucrt:onexit.obj
 0001:0001432c       ___acrt_initialize         0041532c f   libucrt:initialization.obj
 0001:0001433e       ___acrt_uninitialize       0041533e f   libucrt:initialization.obj
 0001:0001436e       __query_app_type           0041536e f   libucrt:report_runtime_error.obj
 0001:00014374       __set_app_type             00415374 f   libucrt:report_runtime_error.obj
 0001:00014383       ___acrt_has_user_matherr   00415383 f   libucrt:matherr.obj
 0001:000143a0       ___acrt_initialize_user_matherr 004153a0 f   libucrt:matherr.obj
 0001:000143af       ___acrt_invoke_user_matherr 004153af f   libucrt:matherr.obj
 0001:000143e5       ___setusermatherr          004153e5 f   libucrt:matherr.obj
 0001:000143fa       __initterm                 004153fa f   libucrt:initterm.obj
 0001:00014425       __initterm_e               00415425 f   libucrt:initterm.obj
 0001:00014453       __get_fmode                00415453 f   libucrt:setmode.obj
 0001:00014480       __set_fmode                00415480 f   libucrt:setmode.obj
 0001:000144bd       __setmode_nolock           004154bd f   libucrt:setmode.obj
 0001:0001458c       ___acrt_initialize_command_line 0041558c f   libucrt:argv_data.obj
 0001:000145a5       ___p___argc                004155a5 f   libucrt:argv_data.obj
 0001:000145ab       ___p___argv                004155ab f   libucrt:argv_data.obj
 0001:000146b1       ??0_expandlocale_locale_name_cache@@QAE@QA_WIQAU__crt_qualified_locale_data@@@Z 004156b1 f i libucrt:wsetlocale.obj
 0001:000146fb       ??1_expandlocale_locale_name_cache@@QAE@XZ 004156fb f i libucrt:wsetlocale.obj
 0001:00014893       ?commit_locale_name@_expandlocale_locale_name_cache@@QAEXQB_WI@Z 00415893 f i libucrt:wsetlocale.obj
 0001:000148d7       ?commit_locale_name_cache_already_updated@_expandlocale_locale_name_cache@@QAEXQB_WI@Z 004158d7 f i libucrt:wsetlocale.obj
 0001:0001490c       ___acrt_copy_locale_name   0041590c f   libucrt:wsetlocale.obj
 0001:0001496c       ___acrt_set_locale_changed 0041596c f   libucrt:wsetlocale.obj
 0001:00014977       ___acrt_uninitialize_locale 00415977 f   libucrt:wsetlocale.obj
 0001:0001499e       ___lc_lctowcs              0041599e f   libucrt:wsetlocale.obj
 0001:00014a0e       ___lc_wcstolc              00415a0e f   libucrt:wsetlocale.obj
 0001:00014b4b       __configthreadlocale       00415b4b f   libucrt:wsetlocale.obj
 0001:00014fa2       __wcscats                  00415fa2 f   libucrt:wsetlocale.obj
 0001:00014fe3       __wsetlocale               00415fe3 f   libucrt:wsetlocale.obj
 0001:00015cd8       __query_new_mode           00416cd8 f   libucrt:new_mode.obj
 0001:00015cdf       __set_new_mode             00416cdf f   libucrt:new_mode.obj
 0001:00015d0e       ___p__commode              00416d0e f   libucrt:ncommode.obj
 0001:00015d14       _terminate                 00416d14 f   libucrt:terminate.obj
 0001:00015d50       __controlfp_s              00416d50 f   libucrt:contrlfp.obj
 0001:00015daf       ___ascii_stricmp           00416daf f   libucrt:stricmp.obj
 0001:00015de8       __stricmp                  00416de8 f   libucrt:stricmp.obj
 0001:00015de8       _stricmp                   00416de8 f   libucrt:stricmp.obj
 0001:00015e31       __stricmp_l                00416e31 f   libucrt:stricmp.obj
 0001:00015ec1       _strcpy_s                  00416ec1 f   libucrt:strcpy_s.obj
 0001:00015f20       _strncmp                   00416f20 f   libucrt:strncmp.obj
 0001:00015f98       _wcsncmp                   00416f98 f   libucrt:wcsncmp.obj
 0001:00016310       ___acrt_getptd             00417310 f   libucrt:per_thread_data.obj
 0001:000163cb       ___acrt_getptd_head        004173cb f   libucrt:per_thread_data.obj
 0001:00016461       ___acrt_getptd_noexit      00417461 f   libucrt:per_thread_data.obj
 0001:00016512       ___acrt_getptd_noexit_explicit 00417512 f   libucrt:per_thread_data.obj
 0001:000165b5       ___acrt_initialize_ptd     004175b5 f   libucrt:per_thread_data.obj
 0001:000165e1       ___acrt_uninitialize_ptd   004175e1 f   libucrt:per_thread_data.obj
 0001:000165fb       __free_base                004175fb f   libucrt:free_base.obj
 0001:00016635       __malloc_base              00417635 f   libucrt:malloc_base.obj
 0001:00016683       ___acrt_update_locale_info 00417683 f   libucrt:locale_update.obj
 0001:000166b0       ___acrt_update_locale_info_explicit 004176b0 f   libucrt:locale_update.obj
 0001:000166e1       ___acrt_update_multibyte_info 004176e1 f   libucrt:locale_update.obj
 0001:0001670e       ___acrt_update_multibyte_info_explicit 0041770e f   libucrt:locale_update.obj
 0001:0001673f       ?__acrt_fp_classify@@YA?AW4__acrt_fp_class@@ABN@Z 0041773f f i libucrt:cvt.obj
 0001:00017117       ___acrt_fp_format          00418117 f   libucrt:cvt.obj
 0001:00017298       __wctomb_internal          00418298 f   libucrt:wctomb.obj
 0001:00017402       __mbtowc_internal          00418402 f   libucrt:mbtowc.obj
 0001:00017535       __fileno                   00418535 f   libucrt:fileno.obj
 0001:0001755c       __get_printf_count_output  0041855c f   libucrt:printf_count_output.obj
 0001:00017571       ___acrt_should_use_temporary_buffer 00418571 f   libucrt:_sftbuf.obj
 0001:000175af       ___acrt_stdio_begin_temporary_buffering_nolock 004185af f   libucrt:_sftbuf.obj
 0001:0001765a       ___acrt_stdio_end_temporary_buffering_nolock 0041865a f   libucrt:_sftbuf.obj
 0001:000177fe       ___acrt_initialize_lowio   004187fe f   libucrt:ioinit.obj
 0001:0001785e       ___acrt_uninitialize_lowio 0041885e f   libucrt:ioinit.obj
 0001:0001788a       ___acrt_initialize_timeset 0041888a f   libucrt:timeset.obj
 0001:000178bf       ?__acrt_get_utf8_acp_compatibility_codepage@@YAIXZ 004188bf f i libucrt:tzset.obj
 0001:00017c28       ___acrt_AppPolicyGetProcessTerminationMethodInternal@4 00418c28 f   libucrt:winapi_thunks.obj
 0001:00017c68       ___acrt_AreFileApisANSI@0  00418c68 f   libucrt:winapi_thunks.obj
 0001:00017c87       ___acrt_CompareStringEx@36 00418c87 f   libucrt:winapi_thunks.obj
 0001:00017ce4       ___acrt_EnumSystemLocalesEx@16 00418ce4 f   libucrt:winapi_thunks.obj
 0001:00017d38       ___acrt_FlsAlloc@4         00418d38 f   libucrt:winapi_thunks.obj
 0001:00017d77       ___acrt_FlsFree@4          00418d77 f   libucrt:winapi_thunks.obj
 0001:00017db6       ___acrt_FlsGetValue@4      00418db6 f   libucrt:winapi_thunks.obj
 0001:00017df5       ___acrt_FlsSetValue@8      00418df5 f   libucrt:winapi_thunks.obj
 0001:00017e37       ___acrt_GetLocaleInfoEx@16 00418e37 f   libucrt:winapi_thunks.obj
 0001:00017e76       ___acrt_GetUserDefaultLocaleName@8 00418e76 f   libucrt:winapi_thunks.obj
 0001:00017eb2       ___acrt_InitializeCriticalSectionEx@12 00418eb2 f   libucrt:winapi_thunks.obj
 0001:00017efd       ___acrt_IsValidLocaleName@4 00418efd f   libucrt:winapi_thunks.obj
 0001:00017f35       ___acrt_LCIDToLocaleName@16 00418f35 f   libucrt:winapi_thunks.obj
 0001:00017f74       ___acrt_LCMapStringEx@36   00418f74 f   libucrt:winapi_thunks.obj
 0001:00017fd1       ___acrt_LocaleNameToLCID@8 00418fd1 f   libucrt:winapi_thunks.obj
 0001:00018002       ___acrt_can_use_vista_locale_apis 00419002 f   libucrt:winapi_thunks.obj
 0001:0001800d       ___acrt_eagerly_load_locale_apis 0041900d f   libucrt:winapi_thunks.obj
 0001:00018044       ___acrt_initialize_winapi_thunks 00419044 f   libucrt:winapi_thunks.obj
 0001:00018058       ___acrt_uninitialize_winapi_thunks 00419058 f   libucrt:winapi_thunks.obj
 0001:0001808e       __calloc_base              0041908e f   libucrt:calloc_base.obj
 0001:000180eb       __fcloseall                004190eb f   libucrt:closeall.obj
 0001:00018196       ___acrt_stdio_free_buffer_nolock 00419196 f   libucrt:_freebuf.obj
 0001:000181d6       _iswctype                  004191d6 f   libucrt:iswctype.obj
 0001:0001823f       __isctype_l                0041923f f   libucrt:isctype.obj
 0001:0001839b       __close_internal           0041939b f   libucrt:close.obj
 0001:0001843e       __close_nolock             0041943e f   libucrt:close.obj
 0001:0001846e       __close_nolock_internal    0041946e f   libucrt:close.obj
 0001:0001850e       ?__acrt_stdio_allocate_stream@@YA?AV__crt_stdio_stream@@XZ 0041950e f   libucrt:stream.obj
 0001:00018577       ?__acrt_stdio_free_stream@@YAXV__crt_stdio_stream@@@Z 00419577 f   libucrt:stream.obj
 0001:00018674       ??$__acrt_stdio_parse_mode@D@@YA?AU__acrt_stdio_stream_mode@@QBD@Z 00419674 f i libucrt:openfile.obj
 0001:00018921       ?__acrt_stdio_parse_mode_D@@YA_NAAU__acrt_stdio_stream_mode@@@Z 00419921 f i libucrt:openfile.obj
 0001:0001893c       ?__acrt_stdio_parse_mode_T@@YA_NAAU__acrt_stdio_stream_mode@@@Z 0041993c f i libucrt:openfile.obj
 0001:0001895b       ?__acrt_stdio_parse_mode_b@@YA_NAAU__acrt_stdio_stream_mode@@@Z 0041995b f i libucrt:openfile.obj
 0001:0001897b       ?__acrt_stdio_parse_mode_c@@YA_NAAU__acrt_stdio_stream_mode@@AA_N@Z 0041997b f i libucrt:openfile.obj
 0001:0001899d       ?__acrt_stdio_parse_mode_n@@YA_NAAU__acrt_stdio_stream_mode@@AA_N@Z 0041999d f i libucrt:openfile.obj
 0001:000189bf       ?__acrt_stdio_parse_mode_plus@@YA_NAAU__acrt_stdio_stream_mode@@AA_N@Z 004199bf f i libucrt:openfile.obj
 0001:000189f5       ?__acrt_stdio_parse_mode_t@@YA_NAAU__acrt_stdio_stream_mode@@@Z 004199f5 f i libucrt:openfile.obj
 0001:00018a15       ?__acrt_stdio_parse_mode_x@@YA_NAAU__acrt_stdio_stream_mode@@@Z 00419a15 f i libucrt:openfile.obj
 0001:00018a35       __openfile                 00419a35 f   libucrt:openfile.obj
 0001:00018ae2       __commit                   00419ae2 f   libucrt:commit.obj
 0001:00019301       __write                    0041a301 f   libucrt:write.obj
 0001:00019338       __write_internal           0041a338 f   libucrt:write.obj
 0001:00019449       __write_nolock             0041a449 f   libucrt:write.obj
 0001:000197f4       ___acrt_stdio_refill_and_read_narrow_nolock 0041a7f4 f   libucrt:_filbuf.obj
 0001:00019df6       __ftelli64                 0041adf6 f   libucrt:ftell.obj
 0001:00019e2c       __ftelli64_nolock_internal 0041ae2c f   libucrt:ftell.obj
 0001:0001a084       ___acrt_stdio_flush_and_write_narrow_nolock 0041b084 f   libucrt:_flsbuf.obj
 0001:0001a56b       __read                     0041b56b f   libucrt:read.obj
 0001:0001a684       __read_nolock              0041b684 f   libucrt:read.obj
 0001:0001abb7       __lseeki64                 0041bbb7 f   libucrt:lseek.obj
 0001:0001abf7       __lseeki64_internal        0041bbf7 f   libucrt:lseek.obj
 0001:0001ac15       __lseeki64_nolock          0041bc15 f   libucrt:lseek.obj
 0001:0001ac55       __lseeki64_nolock_internal 0041bc55 f   libucrt:lseek.obj
 0001:0001ac73       ___acrt_stdio_allocate_buffer_nolock 0041bc73 f   libucrt:_getbuf.obj
 0001:0001af72       _mbstowcs_s                0041bf72 f   libucrt:mbstowcs.obj
 0001:0001b32b       __wcstombs_s_l             0041c32b f   libucrt:wcstombs.obj
 0001:0001b448       ___acrt_GetLocaleInfoA     0041c448 f   libucrt:getlocaleinfoa.obj
 0001:0001b5f8       ___acrt_GetStringTypeA     0041c5f8 f   libucrt:getstringtypea.obj
 0001:0001b8e8       ___acrt_LCMapStringA       0041c8e8 f   libucrt:lcmapstringa.obj
 0001:0001b931       _wcscpy_s                  0041c931 f   libucrt:wcscpy_s.obj
 0001:0001ba67       ___acrt_get_sigabrt_handler 0041ca67 f   libucrt:signal.obj
 0001:0001ba8e       ___acrt_initialize_signal_handlers 0041ca8e f   libucrt:signal.obj
 0001:0001baac       _raise                     0041caac f   libucrt:signal.obj
 0001:0001bc9e       __errcode                  0041cc9e f   libucrt:fpexcept.obj
 0001:0001bcd2       __except1                  0041ccd2 f   libucrt:fpexcept.obj
 0001:0001bda0       __handle_exc               0041cda0 f   libucrt:fpexcept.obj
 0001:0001c020       __raise_exc                0041d020 f   libucrt:fpexcept.obj
 0001:0001c043       __raise_exc_ex             0041d043 f   libucrt:fpexcept.obj
 0001:0001c334       __set_errno_from_matherr   0041d334 f   libucrt:fpexcept.obj
 0001:0001c365       __umatherr                 0041d365 f   libucrt:fpexcept.obj
 0001:0001c405       __decomp                   0041d405 f   libucrt:util.obj
 0001:0001c4d7       __set_exp                  0041d4d7 f   libucrt:util.obj
 0001:0001c504       __sptype                   0041d504 f   libucrt:util.obj
 0001:0001c567       ___set_fpsr_sse2           0041d567 f   libucrt:fpctrl.obj
 0001:0001c5e7       __clrfp                    0041d5e7 f   libucrt:fpctrl.obj
 0001:0001c5f8       __ctrlfp                   0041d5f8 f   libucrt:fpctrl.obj
 0001:0001c622       __set_statfp               0041d622 f   libucrt:fpctrl.obj
 0001:0001c67b       __statfp                   0041d67b f   libucrt:fpctrl.obj
 0001:0001c68b       __realloc_base             0041d68b f   libucrt:realloc_base.obj
 0001:0001c6f4       _fegetround                0041d6f4 f   libucrt:fegetround.obj
 0001:0001c799       ___acrt_MultiByteToWideChar 0041d799 f   libucrt:multibytetowidechar.obj
 0001:0001c853       ___acrt_WideCharToMultiByte 0041d853 f   libucrt:widechartomultibyte.obj
 0001:0001c8bf       ___ascii_wcsicmp           0041d8bf f   libucrt:wcsicmp.obj
 0001:0001c8fc       __towlower_internal        0041d8fc f i libucrt:wcsicmp.obj
 0001:0001c93b       __wcsicmp                  0041d93b f   libucrt:wcsicmp.obj
 0001:0001c984       __wcsicmp_l                0041d984 f   libucrt:wcsicmp.obj
 0001:0001ca3c       ___acrt_app_verifier_enabled 0041da3c f   libucrt:peb_access.obj
 0001:0001ca4e       ___acrt_is_secure_process  0041da4e f   libucrt:peb_access.obj
 0001:0001ca61       ___acrt_get_process_end_policy 0041da61 f   libucrt:win_policies.obj
 0001:0001caa0       ??$__acrt_convert_wcs_mbs_cp@_WDV<lambda_28bda7af82a03b66c1cb3803a755f95d>@@U__crt_win32_buffer_internal_dynamic_resizing@@@@YAHQB_WAAV?$__crt_win32_buffer@DU__crt_win32_buffer_internal_dynamic_resizing@@@@ABV<lambda_28bda7af82a03b66c1cb3803a755f95d>@@I@Z 0041daa0 f i libucrt:argv_wildcards.obj
 0001:0001d03e       ?allocate@?$__crt_win32_buffer@DU__crt_win32_buffer_internal_dynamic_resizing@@@@QAEHI@Z 0041e03e f i libucrt:argv_wildcards.obj
 0001:0001d101       ___acrt_expand_narrow_argv_wildcards 0041e101 f   libucrt:argv_wildcards.obj
 0001:0001d10c       ___acrt_GetModuleFileNameA 0041e10c f   libucrt:getmodulefilenamea.obj
 0001:0001d729       ___acrt_initialize_multibyte 0041e729 f   libucrt:mbctype.obj
 0001:0001d771       ___acrt_update_thread_multibyte_data 0041e771 f   libucrt:mbctype.obj
 0001:0001d784       __setmbcp_nolock           0041e784 f   libucrt:mbctype.obj
 0001:0001d9d9       __ismbblead                0041e9d9 f   libucrt:ismbbyte.obj
 0001:0001da28       ___dcrt_get_narrow_environment_from_os 0041ea28 f   libucrt:get_environment_from_os.obj
 0001:0001de47       ___dcrt_set_variable_in_narrow_environment_nolock 0041ee47 f   libucrt:setenv.obj
 0001:0001de52       __recalloc_base            0041ee52 f   libucrt:recalloc.obj
 0001:0001debf       ___acrt_initialize_heap    0041eebf f   libucrt:heap_handle.obj
 0001:0001ded0       ___acrt_uninitialize_heap  0041eed0 f   libucrt:heap_handle.obj
 0001:0001deda       ___acrt_execute_initializers 0041eeda f   libucrt:shared_initialization.obj
 0001:0001df42       ___acrt_execute_uninitializers 0041ef42 f   libucrt:shared_initialization.obj
 0001:0001df73       _wcscat_s                  0041ef73 f   libucrt:wcscat_s.obj
 0001:0001e0b0       _wcsncpy_s                 0041f0b0 f   libucrt:wcsncpy_s.obj
 0001:0001e0bb       ___acrt_lowio_create_handle_array 0041f0bb f   libucrt:osfinfo.obj
 0001:0001e136       ___acrt_lowio_destroy_handle_array 0041f136 f   libucrt:osfinfo.obj
 0001:0001e16b       ___acrt_lowio_ensure_fh_exists 0041f16b f   libucrt:osfinfo.obj
 0001:0001e209       ___acrt_lowio_lock_fh      0041f209 f   libucrt:osfinfo.obj
 0001:0001e22c       ___acrt_lowio_set_os_handle 0041f22c f   libucrt:osfinfo.obj
 0001:0001e2be       ___acrt_lowio_unlock_fh    0041f2be f   libucrt:osfinfo.obj
 0001:0001e2e1       __alloc_osfhnd             0041f2e1 f   libucrt:osfinfo.obj
 0001:0001e3f4       __free_osfhnd              0041f3f4 f   libucrt:osfinfo.obj
 0001:0001e485       __get_osfhandle            0041f485 f   libucrt:osfinfo.obj
 0001:0001e4ef       ___acrt_initialize_fmode   0041f4ef f   libucrt:txtmode.obj
 0001:0001e505       ___acrt_locale_free_monetary 0041f505 f   libucrt:initmon.obj
 0001:0001e603       ___acrt_locale_initialize_monetary 0041f603 f   libucrt:initmon.obj
 0001:0001e964       ___acrt_locale_free_numeric 0041f964 f   libucrt:initnum.obj
 0001:0001e9cd       ___acrt_locale_initialize_numeric 0041f9cd f   libucrt:initnum.obj
 0001:0001ee8b       ___acrt_locale_free_time   0041fe8b f   libucrt:inittime.obj
 0001:0001ef6f       ___acrt_locale_initialize_time 0041ff6f f   libucrt:inittime.obj
 0001:0001f0d2       _wcsncat_s                 004200d2 f   libucrt:wcsncat_s.obj
 0001:0001f0dd       _wcscspn                   004200dd f   libucrt:wcscspn.obj
 0001:0001f136       _wcspbrk                   00420136 f   libucrt:wcspbrk.obj
 0001:0001f184       ___acrt_add_locale_ref     00420184 f   libucrt:locale_refcounting.obj
 0001:0001f201       ___acrt_free_locale        00420201 f   libucrt:locale_refcounting.obj
 0001:0001f349       ___acrt_locale_add_lc_time_reference 00420349 f   libucrt:locale_refcounting.obj
 0001:0001f372       ___acrt_locale_free_lc_time_if_unreferenced 00420372 f   libucrt:locale_refcounting.obj
 0001:0001f3a3       ___acrt_locale_release_lc_time_reference 004203a3 f   libucrt:locale_refcounting.obj
 0001:0001f3cc       ___acrt_release_locale_ref 004203cc f   libucrt:locale_refcounting.obj
 0001:0001f44d       ___acrt_update_thread_locale_data 0042044d f   libucrt:locale_refcounting.obj
 0001:0001f4ce       __updatetlocinfoEx_nolock  004204ce f   libucrt:locale_refcounting.obj
 0001:0001fc15       ___acrt_get_qualified_locale 00420c15 f   libucrt:get_qualified_locale.obj
 0001:0002058a       ___acrt_get_qualified_locale_downlevel 0042158a f   libucrt:getqloc_downlevel.obj
 0001:00020821       __clearfp                  00421821 f   libucrt:ieee87.obj
 0001:000208ff       __control87                004218ff f   libucrt:ieee87.obj
 0001:00020d4f       ___acrt_fp_strflt_to_string 00421d4f f   libucrt:_fptostr.obj
 0001:00020e49       ___acrt_fltout             00421e49 f   libucrt:cfout.obj
 0001:00022431       ?__c32rtomb_utf8@__crt_mbstring@@YAIPAD_UPAU_Mbstatet@@AAV__crt_cached_ptd_host@@@Z 00423431 f   libucrt:c32rtomb.obj
 0001:0002250d       ?__mbrtowc_utf8@__crt_mbstring@@YAIPA_WPBDIPAU_Mbstatet@@AAV__crt_cached_ptd_host@@@Z 0042350d f   libucrt:mbrtowc.obj
 0001:00022550       ?__mbsrtowcs_utf8@__crt_mbstring@@YAIPA_WPAPBDIPAU_Mbstatet@@AAV__crt_cached_ptd_host@@@Z 00423550 f   libucrt:mbrtowc.obj
 0001:00022658       __isatty                   00423658 f   libucrt:isatty.obj
 0001:000226fe       ___acrt_DownlevelLCIDToLocaleName 004236fe f   libucrt:lcidtoname_downlevel.obj
 0001:000227a1       ___acrt_DownlevelLocaleNameToLCID 004237a1 f   libucrt:lcidtoname_downlevel.obj
 0001:000227cd       ___acrt_GetStringTypeW     004237cd f   libucrt:getstringtypew.obj
 0001:000227e6       ___ascii_wcsnicmp          004237e6 f   libucrt:wcsnicmp.obj
 0001:00022835       __wcsnicmp                 00423835 f   libucrt:wcsnicmp.obj
 0001:00022881       __wcsnicmp_l               00423881 f   libucrt:wcsnicmp.obj
 0001:00022954       __strnicmp                 00423954 f   libucrt:strnicmp.obj
 0001:000229c1       __strnicmp_l               004239c1 f   libucrt:strnicmp.obj
 0001:00023076       __sopen_nolock             00424076 f   libucrt:open.obj
 0001:000230e4       __sopen_s                  004240e4 f   libucrt:open.obj
 0001:00023104       __wsopen_nolock            00424104 f   libucrt:open.obj
 0001:0002342e       __putwch_nolock            0042442e f   libucrt:putwch.obj
 0001:00023460       ?__wcsrtombs_utf8@__crt_mbstring@@YAIPADPAPB_WIPAU_Mbstatet@@AAV__crt_cached_ptd_host@@@Z 00424460 f   libucrt:wcrtomb.obj
 0001:00023626       _strncpy_s                 00424626 f   libucrt:strncpy_s.obj
 0001:000238fa       ___acrt_fenv_get_common_round_control 004248fa f   libucrt:_fenvutils.obj
 0001:0002391c       ___acrt_fenv_get_control   0042491c f   libucrt:_fenvutils.obj
 0001:0002399c       ___acrt_fenv_get_status    0042499c f   libucrt:_fenvutils.obj
 0001:00023a46       ___acrt_fenv_set_control   00424a46 f   libucrt:_fenvutils.obj
 0001:00023ac1       ___acrt_fenv_set_status    00424ac1 f   libucrt:_fenvutils.obj
 0001:00023bbd       __towlower_l               00424bbd f   libucrt:towlower.obj
 0001:00023ca0       _qsort                     00424ca0 f   libucrt:qsort.obj
 0001:00024190       _strpbrk                   00425190 f   libucrt:strpbrk.obj
 0001:000241d0       __mbsdec                   004251d0 f   libucrt:mbsdec.obj
 0001:000241e7       __mbsdec_l                 004251e7 f   libucrt:mbsdec.obj
 0001:00024283       __strnicoll                00425283 f   libucrt:strnicol.obj
 0001:000242ac       __strnicoll_l              004252ac f   libucrt:strnicol.obj
 0001:00024374       ___acrt_SetEnvironmentVariableA 00425374 f   libucrt:setenvironmentvariablea.obj
 0001:00024409       __msize_base               00425409 f   libucrt:msize.obj
 0001:0002443c       _fegetenv                  0042543c f   libucrt:fegetenv.obj
 0001:00024459       _fesetenv                  00425459 f   libucrt:fesetenv.obj
 0001:000244a5       _feholdexcept              004254a5 f   libucrt:feholdexcept.obj
 0001:00024500       __CIlog10                  00425500 f   libucrt:log10_impl.obj
 0001:0002453b       __CIlog10_default          0042553b f   libucrt:log10_impl.obj
 0001:0002454f       __log10_default            0042554f     libucrt:log10_impl.obj
 0001:00024610       _ceil                      00425610 f   libucrt:ceil_pentium4.obj
 0001:00024650       __ceil_pentium4            00425650 f   libucrt:ceil_pentium4.obj
 0001:0002472d       ?reset_and_return@__crt_mbstring@@YAIIPAU_Mbstatet@@@Z 0042572d f   libucrt:common_utf8.obj
 0001:00024741       ?return_illegal_sequence@__crt_mbstring@@YAIPAU_Mbstatet@@AAV__crt_cached_ptd_host@@@Z 00425741 f   libucrt:common_utf8.obj
 0001:00024763       ?__mbrtoc32_utf8@__crt_mbstring@@YAIPA_UPBDIPAU_Mbstatet@@AAV__crt_cached_ptd_host@@@Z 00425763 f   libucrt:mbrtoc32.obj
 0001:00024920       ___ascii_strnicmp          00425920 f   libucrt:_strnicm.obj
 0001:00024981       ??0__crt_seek_guard@@QAE@H_J@Z 00425981 f i libucrt:chsize.obj
 0001:000249ce       __chsize_nolock            004259ce f   libucrt:chsize.obj
 0001:00024a05       __chsize_nolock_internal   00425a05 f   libucrt:chsize.obj
 0001:00024bbb       ___dcrt_lowio_ensure_console_output_initialized 00425bbb f   libucrt:initcon.obj
 0001:00024bda       ___dcrt_terminate_console_output 00425bda f   libucrt:initcon.obj
 0001:00024bf1       ___dcrt_write_console      00425bf1 f   libucrt:initcon.obj
 0001:00024c46       ?__c16rtomb_utf8@__crt_mbstring@@YAIPAD_SPAU_Mbstatet@@AAV__crt_cached_ptd_host@@@Z 00425c46 f   libucrt:c16rtomb.obj
 0001:00024cf0       ___acrt_LCMapStringW       00425cf0 f   libucrt:lcmapstringw.obj
 0001:00024fcd       ___acrt_CompareStringA     00425fcd f   libucrt:comparestringa.obj
 0001:00025013       ___acrt_initialize_sse2    00426013 f   libucrt:mathfcns.obj
 0001:00025030       __CIlog10_pentium4         00426030 f   libucrt:log10_pentium4.obj
 0001:00025048       __log10_pentium4           00426048     libucrt:log10_pentium4.obj
 0001:000252e0       __fFEXP                    004262e0 f   libucrt:87tran.obj
 0001:00025337       __rtinfpopse               00426337     libucrt:87tran.obj
 0001:00025339       __rtinfnpopse              00426339     libucrt:87tran.obj
 0001:00025349       __fFLN                     00426349     libucrt:87tran.obj
 0001:000253fe       __rtinfpop                 004263fe     libucrt:87tran.obj
 0001:00025400       __rtinfnpop                00426400     libucrt:87tran.obj
 0001:00025410       __rtforexpinf              00426410 f   libucrt:87tran.obj
 0001:0002541d       __ffexpm1                  0042641d     libucrt:87tran.obj
 0001:000254d0       __trandisp1                004264d0 f   libucrt:87disp.obj
 0001:00025545       __trandisp2                00426545 f   libucrt:87disp.obj
 0001:000255df       __rttospopde               004265df     libucrt:87disp.obj
 0001:000255e4       __rttospop                 004265e4     libucrt:87disp.obj
 0001:000255f0       __rtnospop                 004265f0 f   libucrt:87disp.obj
 0001:00025600       __rttosnpop                00426600 f   libucrt:87disp.obj
 0001:00025601       __rtnospopde               00426601     libucrt:87disp.obj
 0001:00025608       __rtzeropop                00426608     libucrt:87disp.obj
 0001:0002560a       __rtzeronpop               0042660a     libucrt:87disp.obj
 0001:00025610       __rtzerospop               00426610 f   libucrt:87disp.obj
 0001:0002561d       __rtonepop                 0042661d     libucrt:87disp.obj
 0001:00025620       __rtonenpop                00426620 f   libucrt:87disp.obj
 0001:00025630       __tosnan1                  00426630 f   libucrt:87disp.obj
 0001:00025660       __nosnan2                  00426660 f   libucrt:87disp.obj
 0001:00025670       __tosnan2                  00426670 f   libucrt:87disp.obj
 0001:000256a0       __nan2                     004266a0 f   libucrt:87disp.obj
 0001:000256e0       __rtindfpop                004266e0 f   libucrt:87disp.obj
 0001:000256e2       __rtindfnpop               004266e2     libucrt:87disp.obj
 0001:000256f3       __rttosnpopde              004266f3     libucrt:87disp.obj
 0001:00025700       __rtatan2inf               00426700 f   libucrt:87disp.obj
 0001:0002571d       __rtchsifneg               0042671d     libucrt:87disp.obj
 0001:00025730       __twoToTOS                 00426730 f   libucrt:common.obj
 0001:00025745       __load_CW                  00426745 f   libucrt:common.obj
 0001:0002575c       __convertTOStoQNaN         0042675c f   libucrt:common.obj
 0001:00025775       __fload_withFB             00426775 f   libucrt:common.obj
 0001:000257b8       __checkTOS_withFB          004267b8 f   libucrt:common.obj
 0001:000257ce       __fast_exit                004267ce f   libucrt:common.obj
 0001:000257db       __math_exit                004267db f   libucrt:common.obj
 0001:00025805       __check_overflow_exit      00426805 f   libucrt:common.obj
 0001:00025819       __check_range_exit         00426819 f   libucrt:common.obj
 0001:000258c0       __startTwoArgErrorHandling 004268c0 f   libucrt:genexcep.obj
 0001:000258d7       __startOneArgErrorHandling 004268d7 f   libucrt:genexcep.obj
 0001:00025913       ___libm_error_support      00426913 f   libucrt:libm_error.obj
 0001:00025b07       __ceil_default             00426b07 f   libucrt:ceil.obj
 0001:00025bc5       __d_inttype                00426bc5 f   libucrt:powhlp.obj
 0001:00025c2d       __powhlp                   00426c2d f   libucrt:powhlp.obj
 0001:00025d58       __87except                 00426d58 f   libucrt:87except.obj
 0001:00025e68       __frnd                     00426e68 f   libucrt:frnd.obj
 0001:00025e7c       __fpclass                  00426e7c f   libucrt:ieeemisc.obj
 0001:00025f20       @_guard_check_icall@4      00426f20 f i LIBCMT:checkcfg.obj
 0001:00025f30       __FindPESection            00426f30 f   LIBCMT:pesect.obj
 0001:00025f80       __IsNonwritableInCurrentImage 00426f80 f   LIBCMT:pesect.obj
 0001:00026040       __ValidateImageBase        00427040 f   LIBCMT:pesect.obj
 0001:00026080       __aullrem                  00427080 f   LIBCMT:ullrem.obj
 0001:00026100       __alldiv                   00427100 f   LIBCMT:lldiv.obj
 0001:000261b0       __allrem                   004271b0 f   LIBCMT:llrem.obj
 0001:00026270       __allshl                   00427270 f   LIBCMT:llshl.obj
 0001:00026290       __aullshr                  00427290 f   LIBCMT:ullshr.obj
 0001:000262b0       __ftol2_sse                004272b0 f   LIBCMT:ftol2.obj
 0001:000262c0       __ftoi2                    004272c0 f   LIBCMT:ftol2.obj
 0001:00026340       _strrchr                   00427340 f   libvcruntime:strrchr.obj
 0001:00026480       _strchr                    00427480 f   libvcruntime:strchr.obj
 0001:000264ee       ___from_strstr_to_strchr   004274ee     libvcruntime:strchr.obj
 0001:000265ab       _wcschr                    004275ab f   libvcruntime:wcschr.obj
 0001:0002665a       __filter_x86_sse2_floating_point_exception 0042765a f   LIBCMT:x86_exception_filter.obj
 0001:0002665a       __filter_x86_sse2_floating_point_exception_default 0042765a f   LIBCMT:x86_exception_filter.obj
 0002:00000000       __imp__BT_SetReportFilePath@4 00428000     BugTrap:BugTrap.dll
 0002:00000004       __imp__BT_SetFlags@4       00428004     BugTrap:BugTrap.dll
 0002:00000008       __imp__BT_SetAppName@4     00428008     BugTrap:BugTrap.dll
 0002:0000000c       __imp__BT_InstallSehFilter@0 0042800c     BugTrap:BugTrap.dll
 0002:00000010       \177BugTrap_NULL_THUNK_DATA 00428010     BugTrap:BugTrap.dll
 0002:00000014       __imp__GetStockObject@4    00428014     gdi32:GDI32.dll
 0002:00000018       \177GDI32_NULL_THUNK_DATA  00428018     gdi32:GDI32.dll
 0002:0000001c       __imp__SetEnvironmentVariableW@8 0042801c     kernel32:KERNEL32.dll
 0002:00000020       __imp__FreeEnvironmentStringsW@4 00428020     kernel32:KERNEL32.dll
 0002:00000024       __imp__GetEnvironmentStringsW@0 00428024     kernel32:KERNEL32.dll
 0002:00000028       __imp__GetOEMCP@0          00428028     kernel32:KERNEL32.dll
 0002:0000002c       __imp__GetACP@0            0042802c     kernel32:KERNEL32.dll
 0002:00000030       __imp__IsValidCodePage@4   00428030     kernel32:KERNEL32.dll
 0002:00000034       __imp__FindNextFileW@8     00428034     kernel32:KERNEL32.dll
 0002:00000038       __imp__FindFirstFileExW@24 00428038     kernel32:KERNEL32.dll
 0002:0000003c       __imp__FindClose@4         0042803c     kernel32:KERNEL32.dll
 0002:00000040       __imp__Sleep@4             00428040     kernel32:KERNEL32.dll
 0002:00000044       __imp__CreateFileA@28      00428044     kernel32:KERNEL32.dll
 0002:00000048       __imp__WriteFile@20        00428048     kernel32:KERNEL32.dll
 0002:0000004c       __imp__CloseHandle@4       0042804c     kernel32:KERNEL32.dll
 0002:00000050       __imp__InitializeCriticalSection@4 00428050     kernel32:KERNEL32.dll
 0002:00000054       __imp__EnterCriticalSection@4 00428054     kernel32:KERNEL32.dll
 0002:00000058       __imp__LeaveCriticalSection@4 00428058     kernel32:KERNEL32.dll
 0002:0000005c       __imp__GetProcessHeap@0    0042805c     kernel32:KERNEL32.dll
 0002:00000060       __imp__GetTickCount@0      00428060     kernel32:KERNEL32.dll
 0002:00000064       __imp__GlobalAlloc@8       00428064     kernel32:KERNEL32.dll
 0002:00000068       __imp__ReadFile@20         00428068     kernel32:KERNEL32.dll
 0002:0000006c       __imp__IsDBCSLeadByte@4    0042806c     kernel32:KERNEL32.dll
 0002:00000070       __imp__HeapReAlloc@16      00428070     kernel32:KERNEL32.dll
 0002:00000074       __imp__ReadConsoleW@20     00428074     kernel32:KERNEL32.dll
 0002:00000078       __imp__SetFilePointerEx@20 00428078     kernel32:KERNEL32.dll
 0002:0000007c       __imp__GetFileSizeEx@8     0042807c     kernel32:KERNEL32.dll
 0002:00000080       __imp__GetConsoleMode@8    00428080     kernel32:KERNEL32.dll
 0002:00000084       __imp__GetConsoleOutputCP@0 00428084     kernel32:KERNEL32.dll
 0002:00000088       __imp__FlushFileBuffers@4  00428088     kernel32:KERNEL32.dll
 0002:0000008c       __imp__EnumSystemLocalesW@8 0042808c     kernel32:KERNEL32.dll
 0002:00000090       __imp__GetUserDefaultLCID@0 00428090     kernel32:KERNEL32.dll
 0002:00000094       __imp__IsValidLocale@8     00428094     kernel32:KERNEL32.dll
 0002:00000098       __imp__GetLocaleInfoW@16   00428098     kernel32:KERNEL32.dll
 0002:0000009c       __imp__SetStdHandle@8      0042809c     kernel32:KERNEL32.dll
 0002:000000a0       __imp__CreateFileW@28      004280a0     kernel32:KERNEL32.dll
 0002:000000a4       __imp__HeapSize@12         004280a4     kernel32:KERNEL32.dll
 0002:000000a8       __imp__SetEndOfFile@4      004280a8     kernel32:KERNEL32.dll
 0002:000000ac       __imp__DeleteCriticalSection@4 004280ac     kernel32:KERNEL32.dll
 0002:000000b0       __imp__GetCPInfo@8         004280b0     kernel32:KERNEL32.dll
 0002:000000b4       __imp__LCMapStringW@24     004280b4     kernel32:KERNEL32.dll
 0002:000000b8       __imp__CompareStringW@24   004280b8     kernel32:KERNEL32.dll
 0002:000000bc       __imp__GetFileType@4       004280bc     kernel32:KERNEL32.dll
 0002:000000c0       __imp__HeapAlloc@12        004280c0     kernel32:KERNEL32.dll
 0002:000000c4       __imp__HeapFree@12         004280c4     kernel32:KERNEL32.dll
 0002:000000c8       __imp__GetCommandLineW@0   004280c8     kernel32:KERNEL32.dll
 0002:000000cc       __imp__GetCommandLineA@0   004280cc     kernel32:KERNEL32.dll
 0002:000000d0       __imp__GetStdHandle@4      004280d0     kernel32:KERNEL32.dll
 0002:000000d4       __imp__GetModuleFileNameW@12 004280d4     kernel32:KERNEL32.dll
 0002:000000d8       __imp__GetModuleHandleExW@12 004280d8     kernel32:KERNEL32.dll
 0002:000000dc       __imp__ExitProcess@4       004280dc     kernel32:KERNEL32.dll
 0002:000000e0       __imp__EncodePointer@4     004280e0     kernel32:KERNEL32.dll
 0002:000000e4       __imp__DecodePointer@4     004280e4     kernel32:KERNEL32.dll
 0002:000000e8       __imp__InitializeCriticalSectionEx@12 004280e8     kernel32:KERNEL32.dll
 0002:000000ec       __imp__MultiByteToWideChar@24 004280ec     kernel32:KERNEL32.dll
 0002:000000f0       __imp__WideCharToMultiByte@32 004280f0     kernel32:KERNEL32.dll
 0002:000000f4       __imp__LCMapStringEx@36    004280f4     kernel32:KERNEL32.dll
 0002:000000f8       __imp__GetStringTypeW@16   004280f8     kernel32:KERNEL32.dll
 0002:000000fc       __imp__WriteConsoleW@20    004280fc     kernel32:KERNEL32.dll
 0002:00000100       __imp__UnhandledExceptionFilter@4 00428100     kernel32:KERNEL32.dll
 0002:00000104       __imp__SetUnhandledExceptionFilter@4 00428104     kernel32:KERNEL32.dll
 0002:00000108       __imp__GetCurrentProcess@0 00428108     kernel32:KERNEL32.dll
 0002:0000010c       __imp__TerminateProcess@8  0042810c     kernel32:KERNEL32.dll
 0002:00000110       __imp__IsProcessorFeaturePresent@4 00428110     kernel32:KERNEL32.dll
 0002:00000114       __imp__ReleaseSRWLockExclusive@4 00428114     kernel32:KERNEL32.dll
 0002:00000118       __imp__AcquireSRWLockExclusive@4 00428118     kernel32:KERNEL32.dll
 0002:0000011c       __imp__WakeAllConditionVariable@4 0042811c     kernel32:KERNEL32.dll
 0002:00000120       __imp__SleepConditionVariableSRW@16 00428120     kernel32:KERNEL32.dll
 0002:00000124       __imp__IsDebuggerPresent@0 00428124     kernel32:KERNEL32.dll
 0002:00000128       __imp__GetStartupInfoW@4   00428128     kernel32:KERNEL32.dll
 0002:0000012c       __imp__GetModuleHandleW@4  0042812c     kernel32:KERNEL32.dll
 0002:00000130       __imp__QueryPerformanceCounter@4 00428130     kernel32:KERNEL32.dll
 0002:00000134       __imp__GetCurrentProcessId@0 00428134     kernel32:KERNEL32.dll
 0002:00000138       __imp__GetCurrentThreadId@0 00428138     kernel32:KERNEL32.dll
 0002:0000013c       __imp__GetSystemTimeAsFileTime@4 0042813c     kernel32:KERNEL32.dll
 0002:00000140       __imp__InitializeSListHead@4 00428140     kernel32:KERNEL32.dll
 0002:00000144       __imp__RaiseException@16   00428144     kernel32:KERNEL32.dll
 0002:00000148       __imp__RtlUnwind@16        00428148     kernel32:KERNEL32.dll
 0002:0000014c       __imp__GetLastError@0      0042814c     kernel32:KERNEL32.dll
 0002:00000150       __imp__SetLastError@4      00428150     kernel32:KERNEL32.dll
 0002:00000154       __imp__InitializeCriticalSectionAndSpinCount@8 00428154     kernel32:KERNEL32.dll
 0002:00000158       __imp__TlsAlloc@0          00428158     kernel32:KERNEL32.dll
 0002:0000015c       __imp__TlsGetValue@4       0042815c     kernel32:KERNEL32.dll
 0002:00000160       __imp__TlsSetValue@8       00428160     kernel32:KERNEL32.dll
 0002:00000164       __imp__TlsFree@4           00428164     kernel32:KERNEL32.dll
 0002:00000168       __imp__FreeLibrary@4       00428168     kernel32:KERNEL32.dll
 0002:0000016c       __imp__GetProcAddress@8    0042816c     kernel32:KERNEL32.dll
 0002:00000170       __imp__LoadLibraryExW@12   00428170     kernel32:KERNEL32.dll
 0002:00000174       __imp__GetLocalTime@4      00428174     kernel32:KERNEL32.dll
 0002:00000178       \177KERNEL32_NULL_THUNK_DATA 00428178     kernel32:KERNEL32.dll
 0002:0000017c       __imp__SetTimer@16         0042817c     user32:USER32.dll
 0002:00000180       __imp__GetMessageA@16      00428180     user32:USER32.dll
 0002:00000184       __imp__DispatchMessageA@4  00428184     user32:USER32.dll
 0002:00000188       __imp__DefWindowProcA@16   00428188     user32:USER32.dll
 0002:0000018c       __imp__RegisterClassExA@4  0042818c     user32:USER32.dll
 0002:00000190       __imp__CreateWindowExA@48  00428190     user32:USER32.dll
 0002:00000194       __imp__MessageBoxA@16      00428194     user32:USER32.dll
 0002:00000198       __imp__LoadCursorA@8       00428198     user32:USER32.dll
 0002:0000019c       __imp__LoadIconA@8         0042819c     user32:USER32.dll
 0002:000001a0       __imp__PostQuitMessage@4   004281a0     user32:USER32.dll
 0002:000001a4       \177USER32_NULL_THUNK_DATA 004281a4     user32:USER32.dll
 0002:000001a8       __imp__closesocket@4       004281a8     WS2_32:WS2_32.dll
 0002:000001ac       __imp__inet_ntoa@4         004281ac     WS2_32:WS2_32.dll
 0002:000001b0       __imp__accept@12           004281b0     WS2_32:WS2_32.dll
 0002:000001b4       __imp__htonl@4             004281b4     WS2_32:WS2_32.dll
 0002:000001b8       __imp__htons@4             004281b8     WS2_32:WS2_32.dll
 0002:000001bc       __imp__listen@8            004281bc     WS2_32:WS2_32.dll
 0002:000001c0       __imp__recv@16             004281c0     WS2_32:WS2_32.dll
 0002:000001c4       __imp__socket@12           004281c4     WS2_32:WS2_32.dll
 0002:000001c8       __imp__WSAStartup@8        004281c8     WS2_32:WS2_32.dll
 0002:000001cc       __imp__WSAGetLastError@0   004281cc     WS2_32:WS2_32.dll
 0002:000001d0       __imp__send@16             004281d0     WS2_32:WS2_32.dll
 0002:000001d4       __imp__WSAAsyncSelect@16   004281d4     WS2_32:WS2_32.dll
 0002:000001d8       __imp____WSAFDIsSet@8      004281d8     WS2_32:WS2_32.dll
 0002:000001dc       __imp__select@20           004281dc     WS2_32:WS2_32.dll
 0002:000001e0       __imp__bind@12             004281e0     WS2_32:WS2_32.dll
 0002:000001e4       \177WS2_32_NULL_THUNK_DATA 004281e4     WS2_32:WS2_32.dll
 0002:000001e8       __imp__mysql_query@8       004281e8     libmysql:libmysql.dll
 0002:000001ec       __imp__mysql_close@4       004281ec     libmysql:libmysql.dll
 0002:000001f0       __imp__mysql_autocommit@8  004281f0     libmysql:libmysql.dll
 0002:000001f4       __imp__mysql_fetch_row@4   004281f4     libmysql:libmysql.dll
 0002:000001f8       __imp__mysql_free_result@4 004281f8     libmysql:libmysql.dll
 0002:000001fc       __imp__mysql_ping@4        004281fc     libmysql:libmysql.dll
 0002:00000200       __imp__mysql_use_result@4  00428200     libmysql:libmysql.dll
 0002:00000204       __imp__mysql_real_connect@32 00428204     libmysql:libmysql.dll
 0002:00000208       __imp__mysql_init@4        00428208     libmysql:libmysql.dll
 0002:0000020c       __imp__mysql_error@4       0042820c     libmysql:libmysql.dll
 0002:00000210       __imp__mysql_errno@4       00428210     libmysql:libmysql.dll
 0002:00000214       \177libmysql_NULL_THUNK_DATA 00428214     libmysql:libmysql.dll
 0002:00000218       ___guard_check_icall_fptr  00428218     LIBCMT:guard_support.obj
 0002:0000021c       ___castguard_check_failure_os_handled_fptr 0042821c     LIBCMT:guard_support.obj
 0002:00000220       ___xc_a                    00428220     LIBCMT:initializers.obj
 0002:00000254       ___xc_z                    00428254     LIBCMT:initializers.obj
 0002:00000258       ___xi_a                    00428258     LIBCMT:initializers.obj
 0002:00000264       ___acrt_stdio_initializer  00428264     libucrt:stdio_initializer.obj
 0002:00000268       ___acrt_timeset_initializer 00428268     libucrt:timeset_initializer.obj
 0002:0000026c       ___acrt_multibyte_initializer 0042826c     libucrt:multibyte_initializer.obj
 0002:00000270       ___acrt_fmode_initializer  00428270     libucrt:fmode_initializer.obj
 0002:00000274       ___acrt_tran_sse2_initializer 00428274     libucrt:sse2_initializer.obj
 0002:00000278       ___xi_z                    00428278     LIBCMT:initializers.obj
 0002:0000027c       ___xl_a                    0042827c     LIBCMT:tlssup.obj
 0002:00000280       ___xl_z                    00428280     LIBCMT:tlssup.obj
 0002:00000284       ___xp_a                    00428284     LIBCMT:initializers.obj
 0002:00000288       ___acrt_locale_terminator  00428288     libucrt:locale_initializer.obj
 0002:0000028c       ___dcrt_console_output_terminator 0042828c     libucrt:console_output_initializer.obj
 0002:00000290       ___acrt_stdio_terminator   00428290     libucrt:stdio_initializer.obj
 0002:00000294       ___xp_z                    00428294     LIBCMT:initializers.obj
 0002:00000298       ___xt_a                    00428298     LIBCMT:initializers.obj
 0002:0000029c       ___xt_z                    0042829c     LIBCMT:initializers.obj
 0002:000002a8       ??_7exception@std@@6B@     004282a8     cts_mysql.obj
 0002:000002b0       ??_C@_0BC@EOODALEL@Unknown?5exception@ 004282b0     cts_mysql.obj
 0002:000002c8       ??_7bad_alloc@std@@6B@     004282c8     cts_mysql.obj
 0002:000002d4       ??_7bad_array_new_length@std@@6B@ 004282d4     cts_mysql.obj
 0002:000002dc       ??_C@_0BF@KINCDENJ@bad?5array?5new?5length@ 004282dc     cts_mysql.obj
 0002:000002f4       ??_C@_0BA@JFNIOLAK@string?5too?5long@ 004282f4     cts_mysql.obj
 0002:00000304       ??_C@_0BC@CCEPMHOK@CMySQL?3?3Reconnect@ 00428304     cts_mysql.obj
 0002:00000318       ??_C@_0BK@EIHHCDEL@?$CB?$FL?$CFs?$FN?5Mysql?5reconnect?$CI?$CFs?$CJ@ 00428318     cts_mysql.obj
 0002:00000334       ??_C@_0BP@HBHNFDED@?$CB?$FL?$CFs?$FN?5Mysql?5reconnect?5fail?$CI?$CFs?$CJ@ 00428334     cts_mysql.obj
 0002:00000354       ??_C@_0CP@POAPEBME@?$CBReconnect?5to?5the?5database?5fail@ 00428354     cts_mysql.obj
 0002:00000384       ??_C@_02GIPFHKNO@OK@       00428384     cts_mysql.obj
 0002:0000038c       ??_7runtime_error@std@@6B@ 0042838c     TimeLog.obj
 0002:00000398       ??_7_System_error@std@@6B@ 00428398     TimeLog.obj
 0002:000003a0       ??_C@_02LMMGGCAJ@?3?5@     004283a0     TimeLog.obj
 0002:000003a8       ??_7system_error@std@@6B@  004283a8     TimeLog.obj
 0002:000003b4       ??_7_Iostream_error_category2@std@@6B@ 004283b4     TimeLog.obj
 0002:000003cc       ??_C@_08LLGCOLLL@iostream@ 004283cc     TimeLog.obj
 0002:000003d8       ?_Iostream_error@?4??message@_Iostream_error_category2@std@@UBE?AV?$basic_string@DU?$char_traits@D@std@@V?$allocator@D@2@@3@H@Z@4QBDB 004283d8     TimeLog.obj
 0002:000003f4       ??_7failure@ios_base@std@@6B@ 004283f4     TimeLog.obj
 0002:000003fc       ??_C@_0BF@PHHKMMFD@ios_base?3?3badbit?5set@ 004283fc     TimeLog.obj
 0002:00000414       ??_C@_0BG@FMKFHCIL@ios_base?3?3failbit?5set@ 00428414     TimeLog.obj
 0002:0000042c       ??_C@_0BF@OOHOMBOF@ios_base?3?3eofbit?5set@ 0042842c     TimeLog.obj
 0002:00000444       ??_C@_01JOAMLHOP@?9@       00428444     TimeLog.obj
 0002:00000448       ??_C@_0P@NAHEJNKC@MyServer?3?3Init@ 00428448     S02_MyServer.obj
 0002:00000458       ??_C@_0BM@DKMILIBN@?$CB?$FL?$CFs?$FN?5?3?5User?5mempry?5set?5OK?6@ 00428458     S02_MyServer.obj
 0002:00000474       ??_C@_0BE@KJKEAMBC@?$CB?$FL?$CFs?$FN?5?3?5Work?5start?6@ 00428474     S02_MyServer.obj
 0002:00000488       ??_C@_0BI@OGKJDLLL@?$CB?$FL?$CFs?$FN?5?3?5Transfer?5start?6@ 00428488     S02_MyServer.obj
 0002:000004a0       ??_C@_0BE@OJKNMLBP@?$CB?$FL?$CFs?$FN?5?3?5Game?5start?6@ 004284a0     S02_MyServer.obj
 0002:000004b4       ??_C@_0P@MIKAINMO@?$LP?M?$LL?$KH?$LN?x?H?k?3?$CFs?3?$CFd@ 004284b4     S02_MyServer.obj
 0002:000004c4       ??_C@_02DKCKIIND@?$CFs@    004284c4     S02_MyServer.obj
 0002:000004c8       ??_C@_0BM@CNCGPIDP@MyServer?3?3PROCESS_FOR_TIMER@ 004284c8     S02_MyServer.obj
 0002:000004e4       ??_C@_0P@KCIEBGF@?$CB?$FL?$CFs?$FN?5?3?5?$CFu?5?$CFu?6@ 004284e4     S02_MyServer.obj
 0002:000004f4       ??_C@_0N@MGLOMKEC@MyUser?3?3Send@ 004284f4     S03_MyUser.obj
 0002:00000504       ??_C@_0CK@IMCEOGJL@?$CB?$FL?$CFs?$FN?5?3?5Player?5user?5send?5buffer@ 00428504     S03_MyUser.obj
 0002:00000530       ??_C@_0EM@BKHOAGOD@?$FLABNORMAL_FREE?9?$CI?$CFd?$CJ?$FN?3?3?$FLSERVER_I@ 00428530     S03_MyUser.obj
 0002:0000057c       ??_C@_0N@KDOKMKGJ@MyUser?3?3Quit@ 0042857c     S03_MyUser.obj
 0002:0000058c       ??_C@_0BD@CCFOLCGB@?$CB?$FL?$CFs?$FN?5?3?5error?$CI?$CFs?$CJ?6@ 0042858c     S03_MyUser.obj
 0002:000005a1       ??_C@_00CNPNBAHC@@         004285a1     S04_MyWork02.obj
 0002:000005a4       ??_C@_0BK@PCNCIDJL@?$CBCostInfoIndex?5error?$FL?$CFd?$FN?6@ 004285a4     S04_MyWork02.obj
 0002:000005c0       ??_C@_0EO@EINEIGPM@?$CBCostInfoValue?5error?5?3tCostInfo@ 004285c0     S04_MyWork02.obj
 0002:00000610       ??_C@_0BB@NFBOBLBP@?$CBiQuantit?5error?6@ 00428610     S04_MyWork02.obj
 0002:00000624       ??_C@_0BB@PINJCPKC@?$CBnot?5sell?5error?6@ 00428624     S04_MyWork02.obj
 0002:00000638       ??_C@_0BL@BJEDPCB@?$CBnot?5enough?5money?$CI?$CFd?0?5?$CFd?$CJ?6@ 00428638     S04_MyWork02.obj
 0002:00000658       ??_C@_0EB@OKNJNMLL@?$CB?9?9?9?9?9?9?9?9?9?9?9?9?9?9?9?9?9?9?9?9?9?9?9?9?9?9?9?9?9?9@ 00428658     S04_MyWork02.obj
 0002:000006a0       ??_C@_0EB@POFHOIEE@?$CB?9?9?9?9?9?9?9?9?9?9?9?9?9?9?9?9?9?9?9?9?5Reload?5CO@ 004286a0     S04_MyWork02.obj
 0002:000006e8       ??_C@_0EB@HENAELKD@?$CB?9?9?9?9?9?9?9?9?9?9?9?9?9?9?9?9?9?9?9?9?5?5?5Reload?5@ 004286e8     S04_MyWork02.obj
 0002:00000730       ??_C@_0EB@PGCNNBNA@?$CB?9?9?9?9?9?9?9?9?9?9?9?9?9?9?9?9?9?9?9?9?5?5?5Reload?5@ 00428730     S04_MyWork02.obj
 0002:00000774       ??_C@_0DA@OBNOGDME@?$CBZone?$CI?$CFd?$CJ?5?9?5CashItemInfo?5Update@ 00428774     S04_MyWork02.obj
 0002:000007a8       ??_C@_0BC@LMPHOICL@?$CBCash?5Info?5Error?6@ 004287a8     S07_MyGame01.obj
 0002:000007bc       ??_C@_0BD@EDGOMJJH@?$CBGAME?5Init?5?9?5End?4?6@ 004287bc     S07_MyGame01.obj
 0002:000007d0       ??_C@_0BD@MMKBEOGP@DATA?1COST_INFO?4TXT@ 004287d0     S07_MyGame01.obj
 0002:000007e4       ??_C@_0BF@ELDADJDN@?$CBGAME?5Init?5?9?5Start?4?6@ 004287e4     S07_MyGame01.obj
 0002:000007fc       ??_C@_0BO@DCDDIEEI@?$CBGAME?5Init?5?9?5Load?5Cost?5Info?4?6@ 004287fc     S07_MyGame01.obj
 0002:0000081c       ??_C@_0CA@ELCFPCFG@?$CBGAME?5Init?5?9?5MakeCashItemInfo?4?6@ 0042881c     S07_MyGame01.obj
 0002:0000083c       ??_C@_0BE@CDMGAOPF@DATA?1BLOOD_INFO?4TXT@ 0042883c     S07_MyGame01.obj
 0002:00000850       ??_C@_0BP@OIBPOKDL@?$CBGAME?5Init?5?9?5Load?5Blood?5Info?4?6@ 00428850     S07_MyGame01.obj
 0002:00000870       ??_C@_0BP@GBHOHMFL@mTotalCostBloodInfoNum?5?$DN?$DN?$DN?5?$CFd?6@ 00428870     S07_MyGame01.obj
 0002:00000890       ??_C@_0CB@IHKDLPDI@?$CBGAME?5Init?5?9?5MakeBloodItemInfo?4@ 00428890     S07_MyGame01.obj
 0002:000008b4       ??_C@_01KDCPPGHE@r@        004288b4     S07_MyGame01.obj
 0002:000008b8       ??_C@_0BE@CHCODFAN@DATA?1COST_INFO?4TXT?6@ 004288b8     S07_MyGame01.obj
 0002:000008cc       ??_C@_0BG@PJOHPOBB@file?5open?5false?5?3?5?$CFs?6@ 004288cc     S07_MyGame01.obj
 0002:000008e4       ??_C@_0CH@PAODBGLM@?$CBError?5?9?5Get?5Total?5Cost?5Info?5Nu@ 004288e4     S07_MyGame01.obj
 0002:0000090c       ??_C@_0BM@IDOFHGNN@?$CBtotalcostinfonum?$FL?$CFd?$FN?5?0?5?$CFs?6@ 0042890c     S07_MyGame01.obj
 0002:00000928       ??_C@_0CB@IFGPJAHH@?$CBError?5?9?5Get?5Cost?5Info?5Version?4@ 00428928     S07_MyGame01.obj
 0002:0000094c       ??_C@_0CE@IILMOFOH@?$CBError?5?9?5COST_INFO?4TXT?5Version?$FL@ 0042894c     S07_MyGame01.obj
 0002:00000970       ??_C@_0BM@LCCPHFCN@?$CBCOST_INFO?4TXT?5Version?$FL?$CFd?$FN?6@ 00428970     S07_MyGame01.obj
 0002:0000098c       ??_C@_0BH@CNBHKKOL@file?5load?5false?5?3?5?$CFs?5?6@ 0042898c     S07_MyGame01.obj
 0002:000009a4       ??_C@_0BP@JOCPPPNF@Error?5?9?5CostInfoValue?$FL?$CFd?$FN?$FL?$CFd?$FN?6@ 004289a4     S07_MyGame01.obj
 0002:000009c4       ??_C@_0CK@OGHEOOI@Error?5?9?5CostInfoNum?5Total?$CI?$CFd?$CJ?5?1@ 004289c4     S07_MyGame01.obj
 0002:000009f0       ??_C@_0EA@MHNIACFG@?$CBMakeCashItemInfo?5Error?5?9?5tCost@ 004289f0     S07_MyGame01.obj
 0002:00000a30       ??_C@_0CP@PEFNOEJC@?$CBMakeCashItemInfo?5Error?5?9?5over?5@ 00428a30     S07_MyGame01.obj
 0002:00000a60       ??_C@_0BF@DHBLCIBH@DATA?1BLOOD_INFO?4TXT?6@ 00428a60     S07_MyGame01.obj
 0002:00000a78       ??_C@_0CG@EMPCILGF@?$CBError?5?9?5Get?5BloodInfo?5Info?5Num@ 00428a78     S07_MyGame01.obj
 0002:00000aa0       ??_C@_0CA@PFBMKDAI@Error?5?9?5BloodInfoValue?$FL?$CFd?$FN?$FL?$CFd?$FN?6@ 00428aa0     S07_MyGame01.obj
 0002:00000ac0       ??_C@_0CI@BHPBMCLF@Error?5?9?5BloodInfo?5Total?$CI?$CFd?$CJ?5?1?5L@ 00428ac0     S07_MyGame01.obj
 0002:00000aec       ??_C@_0L@LDMKCIEH@ts2_gamedb@ 00428aec     S08_MyDB.obj
 0002:00000af8       ??_C@_0BO@PLEIBDDI@MyDB?3?3RECONNECT_TO_DATABASE01@ 00428af8     S08_MyDB.obj
 0002:00000b18       ??_C@_0BM@JPOAFOAC@?$FL?$CFs?$FN?5DB?5reonnection?5call?$CB?5?6@ 00428b18     S08_MyDB.obj
 0002:00000b34       ??_C@_0BN@IMHMMGCD@?$FL?$CFs?$FN?5DB?5reonnection?5false?$CB?5?6@ 00428b34     S08_MyDB.obj
 0002:00000b58       ??_C@_0GC@JJHHHGDJ@update?5?$CFs?5set?5aGuildName?$DN?8?$CFs?8?0a@ 00428b58     S08_MyDB.obj
 0002:00000bbc       ??_C@_0BE@HJNNPMML@MyDB?3?3DB_PROCESS_01@ 00428bbc     S08_MyDB.obj
 0002:00000bd0       ??_C@_0CB@LMKAKLHG@?$FL?$CFs?$FN?5Query?5execute?5false?5?3?5?$CFs?$CB?5@ 00428bd0     S08_MyDB.obj
 0002:00000bf8       ??_C@_0EE@HDFOBNOH@select?5count?$CIgName?$CJ?5from?5?$CFs?5whe@ 00428bf8     S08_MyDB.obj
 0002:00000c3c       ??_C@_0BE@FCPAKPAI@MyDB?3?3DB_PROCESS_02@ 00428c3c     S08_MyDB.obj
 0002:00000c50       ??_C@_0CC@OIEDJPKB@?$CB?$FL?$CFs?$FN?5Query?5execute?5false?5?3?5?$CFs?$CB@ 00428c50     S08_MyDB.obj
 0002:00000c78       ??_C@_0FC@NOELKJKP@insert?5into?5?$CFs?5values?5?$CInow?$CI?$CJ?5?0?5@ 00428c78     S08_MyDB.obj
 0002:00000ccc       ??_C@_0BE@ELOLJOEJ@MyDB?3?3DB_PROCESS_03@ 00428ccc     S08_MyDB.obj
 0002:00000ce0       ??_C@_0MM@JMMLBCKH@select?5gName?0gGrade?0gMaster01?0g@ 00428ce0     S08_MyDB.obj
 0002:00000dac       ??_C@_0BE@EKKAIIO@MyDB?3?3DB_PROCESS_04@ 00428dac     S08_MyDB.obj
 0002:00000dc0       ??_C@_0BM@NJJDDGOH@?$CB?$FL?$CFs?$FN?5?3?5exec_query?5fail?5?$CFs?6@ 00428dc0     S08_MyDB.obj
 0002:00000de0       ??_C@_0PH@JBNHOAA@update?5?$CFs?5set?5gGrade?$DN?$CFd?0gSubMas@ 00428de0     S08_MyDB.obj
 0002:00000ed8       ??_C@_0BE@BNLBDJMP@MyDB?3?3DB_PROCESS_05@ 00428ed8     S08_MyDB.obj
 0002:00000eec       ??_C@_0DH@GALDCGGF@delete?5from?5?$CFs?5where?5gName?$DN?8?$CFs?8@ 00428eec     S08_MyDB.obj
 0002:00000f24       ??_C@_0BE@DGJMGKAM@MyDB?3?3DB_PROCESS_06@ 00428f24     S08_MyDB.obj
 0002:00000f38       ??_C@_0DA@KALOPMNP@SELECT?5uCash?0?5uBonusCash?5FROM?5?$CF@ 00428f38     S08_MyDB.obj
 0002:00000f68       ??_C@_0BE@CPIHFLEN@MyDB?3?3DB_PROCESS_07@ 00428f68     S08_MyDB.obj
 0002:00000f80       ??_C@_0EO@GKEBBLDN@update?5?$CFs?5SET?5uCash?5?$DN?5uCash?5?$CL?5?$CF@ 00428f80     S08_MyDB.obj
 0002:00000fd0       ??_C@_0BE@KIBPEHIC@MyDB?3?3DB_PROCESS_08@ 00428fd0     S08_MyDB.obj
 0002:00000fe8       ??_C@_0L@GAGDKJCO@MainWClass@ 00428fe8     Server_EXTRA.obj
 0002:00000ff4       ??_C@_05KKCIMGE@error@     00428ff4     Server_EXTRA.obj
 0002:00000ffc       ??_C@_0P@JBDOJDMF@?$LE?$LE?$LN?$KI?$LE?$LA?$LP?Z?$LD?v?$LE?m?$KD?$KB@ 00428ffc     Server_EXTRA.obj
 0002:0000100c       ??_C@_06HNFCPEFM@SERVER@   0042900c     Server_EXTRA.obj
 0002:00001014       ??_C@_0BM@MMMCMJG@?$FLError?3?3ReadServerInfo?$CI?$CFs?$CJ?$FN@ 00429014     Server_EXTRA.obj
 0002:00001030       ??_C@_0BN@GNLNNJCO@?$FLError?3?3mSERVER?4Init?$CI?$CJ?$FN?9?$CI?$CFd?$CJ@ 00429030     Server_EXTRA.obj
 0002:00001050       ??_C@_0BD@CLCPEKCD@?$LH?$PO?N?q?F?w?$LP?$KK?F?t?$LD?I?$LJ?$KG?$FL?$CFd?$FN@ 00429050     Server_EXTRA.obj
 0002:00001064       ??_C@_0BN@JACLGPJN@CONFIG?2EXTRA_SERVER_INFO?4TXT@ 00429064     Server_EXTRA.obj
 0002:00001084       ??_C@_0BJ@EEHCFMJM@SailorSky2?5EXTRA?5BugTrap@ 00429084     Server_EXTRA.obj
 0002:000010a0       ??_C@_0L@DFFENHDJ@d?3?2BugTrap@ 004290a0     Server_EXTRA.obj
 0002:000010ac       ??_C@_0P@GHFPNOJB@bad?5allocation@ 004290ac     libcpmt:xthrow.obj
 0002:000010c0       ??_7logic_error@std@@6B@   004290c0     libcpmt:xthrow.obj
 0002:000010cc       ??_7length_error@std@@6B@  004290cc     libcpmt:xthrow.obj
 0002:000015f0       ??_C@_07IPNMCAN@success@   004295f0     libcpmt:syserror.obj
 0002:000015f8       ??_C@_0BN@LKKBCCDB@address?5family?5not?5supported@ 004295f8     libcpmt:syserror.obj
 0002:00001618       ??_C@_0P@LDMLAFHI@address?5in?5use@ 00429618     libcpmt:syserror.obj
 0002:00001628       ??_C@_0BG@DHPCNBJB@address?5not?5available@ 00429628     libcpmt:syserror.obj
 0002:00001640       ??_C@_0BC@DFIBIBIL@already?5connected@ 00429640     libcpmt:syserror.obj
 0002:00001654       ??_C@_0BH@CAKOHOMI@argument?5list?5too?5long@ 00429654     libcpmt:syserror.obj
 0002:0000166c       ??_C@_0BH@CGIMPKIM@argument?5out?5of?5domain@ 0042966c     libcpmt:syserror.obj
 0002:00001684       ??_C@_0M@KGHGGJGL@bad?5address@ 00429684     libcpmt:syserror.obj
 0002:00001690       ??_C@_0BE@MPJPGCEO@bad?5file?5descriptor@ 00429690     libcpmt:syserror.obj
 0002:000016a4       ??_C@_0M@PMMIEFCP@bad?5message@ 004296a4     libcpmt:syserror.obj
 0002:000016b0       ??_C@_0M@KPHOFDBE@broken?5pipe@ 004296b0     libcpmt:syserror.obj
 0002:000016bc       ??_C@_0BD@MGNDDEGM@connection?5aborted@ 004296bc     libcpmt:syserror.obj
 0002:000016d0       ??_C@_0BP@KAIHPOGN@connection?5already?5in?5progress@ 004296d0     libcpmt:syserror.obj
 0002:000016f0       ??_C@_0BD@PJLIIJEL@connection?5refused@ 004296f0     libcpmt:syserror.obj
 0002:00001704       ??_C@_0BB@IECNJNOI@connection?5reset@ 00429704     libcpmt:syserror.obj
 0002:00001718       ??_C@_0BC@PPHBOELF@cross?5device?5link@ 00429718     libcpmt:syserror.obj
 0002:0000172c       ??_C@_0BN@KDMIFEIP@destination?5address?5required@ 0042972c     libcpmt:syserror.obj
 0002:0000174c       ??_C@_0BI@NGCEHDD@device?5or?5resource?5busy@ 0042974c     libcpmt:syserror.obj
 0002:00001764       ??_C@_0BE@JIDOCPHM@directory?5not?5empty@ 00429764     libcpmt:syserror.obj
 0002:00001778       ??_C@_0BI@BNCLIGPB@executable?5format?5error@ 00429778     libcpmt:syserror.obj
 0002:00001790       ??_C@_0M@MIDIAGJP@file?5exists@ 00429790     libcpmt:syserror.obj
 0002:0000179c       ??_C@_0P@DNAJLBJK@file?5too?5large@ 0042979c     libcpmt:syserror.obj
 0002:000017ac       ??_C@_0BC@EJHOMAAK@filename?5too?5long@ 004297ac     libcpmt:syserror.obj
 0002:000017c0       ??_C@_0BH@KEFGLDAF@function?5not?5supported@ 004297c0     libcpmt:syserror.obj
 0002:000017d8       ??_C@_0BB@DHFDFGDM@host?5unreachable@ 004297d8     libcpmt:syserror.obj
 0002:000017ec       ??_C@_0BD@JPHBMONG@identifier?5removed@ 004297ec     libcpmt:syserror.obj
 0002:00001800       ??_C@_0BG@CDNPAGJK@illegal?5byte?5sequence@ 00429800     libcpmt:syserror.obj
 0002:00001818       ??_C@_0CD@BNPLBMNA@inappropriate?5io?5control?5operat@ 00429818     libcpmt:syserror.obj
 0002:0000183c       ??_C@_0M@EGEKIIMP@interrupted@ 0042983c     libcpmt:syserror.obj
 0002:00001848       ??_C@_0BB@FCMFBGOM@invalid?5argument@ 00429848     libcpmt:syserror.obj
 0002:0000185c       ??_C@_0N@OHAFKDEK@invalid?5seek@ 0042985c     libcpmt:syserror.obj
 0002:0000186c       ??_C@_08GLNPIFBN@io?5error@ 0042986c     libcpmt:syserror.obj
 0002:00001878       ??_C@_0P@FLLDBIDK@is?5a?5directory@ 00429878     libcpmt:syserror.obj
 0002:00001888       ??_C@_0N@IFLPBIOP@message?5size@ 00429888     libcpmt:syserror.obj
 0002:00001898       ??_C@_0N@KIIEAAIO@network?5down@ 00429898     libcpmt:syserror.obj
 0002:000018a8       ??_C@_0O@FNPDBHEE@network?5reset@ 004298a8     libcpmt:syserror.obj
 0002:000018b8       ??_C@_0BE@IFNCKGE@network?5unreachable@ 004298b8     libcpmt:syserror.obj
 0002:000018cc       ??_C@_0BA@PFFCAOFK@no?5buffer?5space@ 004298cc     libcpmt:syserror.obj
 0002:000018dc       ??_C@_0BB@IEPBLJHK@no?5child?5process@ 004298dc     libcpmt:syserror.obj
 0002:000018f0       ??_C@_07PLECNNKG@no?5link@ 004298f0     libcpmt:syserror.obj
 0002:000018f8       ??_C@_0BC@NJECKMKE@no?5lock?5available@ 004298f8     libcpmt:syserror.obj
 0002:0000190c       ??_C@_0BF@PBGGPKKE@no?5message?5available@ 0042990c     libcpmt:syserror.obj
 0002:00001924       ??_C@_0L@EDOLMPAK@no?5message@ 00429924     libcpmt:syserror.obj
 0002:00001930       ??_C@_0BD@EAMBFIDF@no?5protocol?5option@ 00429930     libcpmt:syserror.obj
 0002:00001944       ??_C@_0BD@IJDJKDEA@no?5space?5on?5device@ 00429944     libcpmt:syserror.obj
 0002:00001958       ??_C@_0BE@MKFDAFMP@no?5stream?5resources@ 00429958     libcpmt:syserror.obj
 0002:0000196c       ??_C@_0BK@IMCPHCBI@no?5such?5device?5or?5address@ 0042996c     libcpmt:syserror.obj
 0002:00001988       ??_C@_0P@FDINDDOK@no?5such?5device@ 00429988     libcpmt:syserror.obj
 0002:00001998       ??_C@_0BK@NDOCBPGE@no?5such?5file?5or?5directory@ 00429998     libcpmt:syserror.obj
 0002:000019b4       ??_C@_0BA@ENLPPKBN@no?5such?5process@ 004299b4     libcpmt:syserror.obj
 0002:000019c4       ??_C@_0BA@DOCPFFJG@not?5a?5directory@ 004299c4     libcpmt:syserror.obj
 0002:000019d4       ??_C@_0N@POEIPGGF@not?5a?5socket@ 004299d4     libcpmt:syserror.obj
 0002:000019e4       ??_C@_0N@LGAPMMPI@not?5a?5stream@ 004299e4     libcpmt:syserror.obj
 0002:000019f4       ??_C@_0O@GLMIBBEG@not?5connected@ 004299f4     libcpmt:syserror.obj
 0002:00001a04       ??_C@_0BC@ENOOLCNF@not?5enough?5memory@ 00429a04     libcpmt:syserror.obj
 0002:00001a18       ??_C@_0O@NHEDABJP@not?5supported@ 00429a18     libcpmt:syserror.obj
 0002:00001a28       ??_C@_0BD@MOLBPMEA@operation?5canceled@ 00429a28     libcpmt:syserror.obj
 0002:00001a3c       ??_C@_0BG@KDKHOPCO@operation?5in?5progress@ 00429a3c     libcpmt:syserror.obj
 0002:00001a54       ??_C@_0BI@OHIEJAAB@operation?5not?5permitted@ 00429a54     libcpmt:syserror.obj
 0002:00001a6c       ??_C@_0BI@LNEGIFLN@operation?5not?5supported@ 00429a6c     libcpmt:syserror.obj
 0002:00001a84       ??_C@_0BG@OEMDKMEE@operation?5would?5block@ 00429a84     libcpmt:syserror.obj
 0002:00001a9c       ??_C@_0L@BLPOFLNJ@owner?5dead@ 00429a9c     libcpmt:syserror.obj
 0002:00001aa8       ??_C@_0BC@CIJDGCDI@permission?5denied@ 00429aa8     libcpmt:syserror.obj
 0002:00001abc       ??_C@_0P@FNPOCJBE@protocol?5error@ 00429abc     libcpmt:syserror.obj
 0002:00001acc       ??_C@_0BH@JPPPLHJB@protocol?5not?5supported@ 00429acc     libcpmt:syserror.obj
 0002:00001ae4       ??_C@_0BG@EICBIHDP@read?5only?5file?5system@ 00429ae4     libcpmt:syserror.obj
 0002:00001afc       ??_C@_0BO@BJBOMOEJ@resource?5deadlock?5would?5occur@ 00429afc     libcpmt:syserror.obj
 0002:00001b1c       ??_C@_0BP@LKNGHENJ@resource?5unavailable?5try?5again@ 00429b1c     libcpmt:syserror.obj
 0002:00001b3c       ??_C@_0BE@GOIPJJHG@result?5out?5of?5range@ 00429b3c     libcpmt:syserror.obj
 0002:00001b50       ??_C@_0BG@MPLKFPAE@state?5not?5recoverable@ 00429b50     libcpmt:syserror.obj
 0002:00001b68       ??_C@_0P@DIIFGFCG@stream?5timeout@ 00429b68     libcpmt:syserror.obj
 0002:00001b78       ??_C@_0P@IPFDMIFL@text?5file?5busy@ 00429b78     libcpmt:syserror.obj
 0002:00001b88       ??_C@_09KJPPMAOI@timed?5out@ 00429b88     libcpmt:syserror.obj
 0002:00001b94       ??_C@_0BO@HACHBEKI@too?5many?5files?5open?5in?5system@ 00429b94     libcpmt:syserror.obj
 0002:00001bb4       ??_C@_0BE@GHAFMPAH@too?5many?5files?5open@ 00429bb4     libcpmt:syserror.obj
 0002:00001bc8       ??_C@_0P@HCOMKFCC@too?5many?5links@ 00429bc8     libcpmt:syserror.obj
 0002:00001bd8       ??_C@_0BO@EFGOJEF@too?5many?5symbolic?5link?5levels@ 00429bd8     libcpmt:syserror.obj
 0002:00001bf8       ??_C@_0BA@KGKGOOJA@value?5too?5large@ 00429bf8     libcpmt:syserror.obj
 0002:00001c08       ??_C@_0BE@MIEJDDNH@wrong?5protocol?5type@ 00429c08     libcpmt:syserror.obj
 0002:00001c1c       ??_C@_0O@BFJCFAAK@unknown?5error@ 00429c1c     libcpmt:syserror.obj
 0002:00001c30       ??_7bad_cast@std@@6B@      00429c30     libcpmt:cout.obj
 0002:00001c38       ??_C@_08EPJLHIJG@bad?5cast@ 00429c38     libcpmt:cout.obj
 0002:00001c48       ??_7_Facet_base@std@@6B@   00429c48     libcpmt:cout.obj
 0002:00001c54       ??_C@_0BA@ELKIONDK@bad?5locale?5name@ 00429c54     libcpmt:cout.obj
 0002:00001c68       ??_7?$ctype@D@std@@6B@     00429c68     libcpmt:cout.obj
 0002:00001c98       ??_7ios_base@std@@6B@      00429c98     libcpmt:cout.obj
 0002:00001ca0       ??_7?$basic_ios@DU?$char_traits@D@std@@@std@@6B@ 00429ca0     libcpmt:cout.obj
 0002:00001ca8       ??_7?$basic_ostream@DU?$char_traits@D@std@@@std@@6B@ 00429ca8     libcpmt:cout.obj
 0002:00001cac       ??_8?$basic_ostream@DU?$char_traits@D@std@@@std@@7B@ 00429cac     libcpmt:cout.obj
 0002:00001cb8       ??_7?$basic_streambuf@DU?$char_traits@D@std@@@std@@6B@ 00429cb8     libcpmt:cout.obj
 0002:00001cf8       ??_7?$basic_filebuf@DU?$char_traits@D@std@@@std@@6B@ 00429cf8     libcpmt:cout.obj
 0002:00001d38       ??_7?$codecvt@DDU_Mbstatet@@@std@@6B@ 00429d38     libcpmt:cout.obj
 0002:00001e64       ??_7_Locimp@locale@std@@6B@ 00429e64     libcpmt:locale0.obj
 0002:00001e70       ??_C@_01NBENCBCI@?$CK@     00429e70     libcpmt:locale0.obj
 0002:00001e74       ??_C@_01GFHCPBMG@C@        00429e74     libcpmt:locale0.obj
 0002:00001e78       ?_BADOFF@std@@3_JB         00429e78     libcpmt:ios.obj
 0002:00001e80       ??_C@_11LOCGONAA@@         00429e80     libcpmt:wlocale.obj
 0002:00001e84       ??_C@_13IMODFHAA@?$AA?9@   00429e84     libcpmt:wlocale.obj
 0002:00001f2c       ??_7type_info@@6B@         00429f2c     LIBCMT:std_type_info_static.obj
 0002:00001f38       __pDestructExceptionObject 00429f38     libvcruntime:ehhelpers.obj
 0002:00001f40       ??_7bad_exception@std@@6B@ 00429f40     libvcruntime:frame.obj
 0002:00001f48       ??_C@_0O@DPKOEFFH@bad?5exception@ 00429f48     libvcruntime:frame.obj
 0002:000022e0       ??_C@_08EHJDFFNH@__based?$CI@ 0042a2e0     libvcruntime:undname.obj
 0002:000022ec       ??_C@_07KOLFKCDI@__cdecl@  0042a2ec     libvcruntime:undname.obj
 0002:000022f4       ??_C@_08GHMPAG@__pascal@   0042a2f4     libvcruntime:undname.obj
 0002:00002300       ??_C@_09IFJBGAPI@__stdcall@ 0042a300     libvcruntime:undname.obj
 0002:0000230c       ??_C@_0L@NPHFGOKO@__thiscall@ 0042a30c     libvcruntime:undname.obj
 0002:00002318       ??_C@_0L@JMKHOMEK@__fastcall@ 0042a318     libvcruntime:undname.obj
 0002:00002324       ??_C@_0N@BCKKPABJ@__vectorcall@ 0042a324     libvcruntime:undname.obj
 0002:00002334       ??_C@_09HIJEGCPM@__clrcall@ 0042a334     libvcruntime:undname.obj
 0002:00002340       ??_C@_06GHPCKEAG@__eabi@   0042a340     libvcruntime:undname.obj
 0002:00002348       ??_C@_09IOPIDJLG@__swift_1@ 0042a348     libvcruntime:undname.obj
 0002:00002354       ??_C@_09KFNFGKHF@__swift_2@ 0042a354     libvcruntime:undname.obj
 0002:00002360       ??_C@_09LMMOFLDE@__swift_3@ 0042a360     libvcruntime:undname.obj
 0002:0000236c       ??_C@_07JOMMBBKO@__ptr64@  0042a36c     libvcruntime:undname.obj
 0002:00002374       ??_C@_0L@PILCLIHE@__restrict@ 0042a374     libvcruntime:undname.obj
 0002:00002380       ??_C@_0M@GFIIJFMG@__unaligned@ 0042a380     libvcruntime:undname.obj
 0002:0000238c       ??_C@_09DHDLOLLB@restrict?$CI@ 0042a38c     libvcruntime:undname.obj
 0002:00002398       ??_C@_04NIHEBCM@?5new@     0042a398     libvcruntime:undname.obj
 0002:000023a0       ??_C@_07FPCDHGMM@?5delete@ 0042a3a0     libvcruntime:undname.obj
 0002:000023a8       ??_C@_01NEMOKFLO@?$DN@     0042a3a8     libvcruntime:undname.obj
 0002:000023ac       ??_C@_02GPIOPFAK@?$DO?$DO@ 0042a3ac     libvcruntime:undname.obj
 0002:000023b0       ??_C@_02FODMEDOG@?$DM?$DM@ 0042a3b0     libvcruntime:undname.obj
 0002:000023b4       ??_C@_01DCLJPIOD@?$CB@     0042a3b4     libvcruntime:undname.obj
 0002:000023b8       ??_C@_02EGOFBIJA@?$DN?$DN@ 0042a3b8     libvcruntime:undname.obj
 0002:000023bc       ??_C@_02FDNJECIE@?$CB?$DN@ 0042a3bc     libvcruntime:undname.obj
 0002:000023c0       ??_C@_02GPECMEKF@?$FL?$FN@ 0042a3c0     libvcruntime:undname.obj
 0002:000023c4       ??_C@_08LHJFAFGD@operator@ 0042a3c4     libvcruntime:undname.obj
 0002:000023d0       ??_C@_02HBOOOICD@?9?$DO@   0042a3d0     libvcruntime:undname.obj
 0002:000023d4       ??_C@_02ECNGHCIF@?$CL?$CL@ 0042a3d4     libvcruntime:undname.obj
 0002:000023d8       ??_C@_02BAABKJLB@?9?9@     0042a3d8     libvcruntime:undname.obj
 0002:000023dc       ??_C@_01MIFGBAGJ@?$CL@     0042a3dc     libvcruntime:undname.obj
 0002:000023e0       ??_C@_01HNPIGOCE@?$CG@     0042a3e0     libvcruntime:undname.obj
 0002:000023e4       ??_C@_03MNHNFDLC@?9?$DO?$CK@ 0042a3e4     libvcruntime:undname.obj
 0002:000023e8       ??_C@_01KMDKNFGN@?1@       0042a3e8     libvcruntime:undname.obj
 0002:000023ec       ??_C@_01FGNFDNOH@?$CF@     0042a3ec     libvcruntime:undname.obj
 0002:000023f0       ??_C@_01MNNFJEPP@?$DM@     0042a3f0     libvcruntime:undname.obj
 0002:000023f4       ??_C@_02EHCHHCKH@?$DM?$DN@ 0042a3f4     libvcruntime:undname.obj
 0002:000023f8       ??_C@_01PPODPGHN@?$DO@     0042a3f8     libvcruntime:undname.obj
 0002:000023fc       ??_C@_02EEKDKGMJ@?$DO?$DN@ 0042a3fc     libvcruntime:undname.obj
 0002:00002400       ??_C@_01IHBHIGKO@?0@       0042a400     libvcruntime:undname.obj
 0002:00002404       ??_C@_02HCKGKOFO@?$CI?$CJ@ 0042a404     libvcruntime:undname.obj
 0002:00002408       ??_C@_01PJKLJHI@?$HO@      0042a408     libvcruntime:undname.obj
 0002:0000240c       ??_C@_01JKBOJNNK@?$FO@     0042a40c     libvcruntime:undname.obj
 0002:00002410       ??_C@_01DNKMNLPK@?$HM@     0042a410     libvcruntime:undname.obj
 0002:00002414       ??_C@_02PPKAJPJL@?$CG?$CG@ 0042a414     libvcruntime:undname.obj
 0002:00002418       ??_C@_02NONPIBCD@?$HM?$HM@ 0042a418     libvcruntime:undname.obj
 0002:0000241c       ??_C@_02FPIMKNGF@?$CK?$DN@ 0042a41c     libvcruntime:undname.obj
 0002:00002420       ??_C@_02FOEOMHFC@?$CL?$DN@ 0042a420     libvcruntime:undname.obj
 0002:00002424       ??_C@_02FKMDLLOA@?9?$DN@   0042a424     libvcruntime:undname.obj
 0002:00002428       ??_C@_02FJEHGPIO@?1?$DN@   0042a428     libvcruntime:undname.obj
 0002:0000242c       ??_C@_02FENAOKFI@?$CF?$DN@ 0042a42c     libvcruntime:undname.obj
 0002:00002430       ??_C@_03IKFCCPFF@?$DO?$DO?$DN@ 0042a430     libvcruntime:undname.obj
 0002:00002434       ??_C@_03CDNPDDLA@?$DM?$DM?$DN@ 0042a434     libvcruntime:undname.obj
 0002:00002438       ??_C@_02FGJGFEAB@?$CG?$DN@ 0042a438     libvcruntime:undname.obj
 0002:0000243c       ??_C@_02DHLNPPGH@?$HM?$DN@ 0042a43c     libvcruntime:undname.obj
 0002:00002440       ??_C@_02MHEGNOJ@?$FO?$DN@  0042a440     libvcruntime:undname.obj
 0002:00002444       ??_C@_09IFPLHPGF@?$GAvftable?8@ 0042a444     libvcruntime:undname.obj
 0002:00002450       ??_C@_09BLBHBJP@?$GAvbtable?8@ 0042a450     libvcruntime:undname.obj
 0002:0000245c       ??_C@_07FEEIOKP@?$GAvcall?8@ 0042a45c     libvcruntime:undname.obj
 0002:00002464       ??_C@_08LLFFHHDJ@?$GAtypeof?8@ 0042a464     libvcruntime:undname.obj
 0002:00002470       ??_C@_0BF@KDPPACIK@?$GAlocal?5static?5guard?8@ 0042a470     libvcruntime:undname.obj
 0002:00002488       ??_C@_08OBABFOLI@?$GAstring?8@ 0042a488     libvcruntime:undname.obj
 0002:00002494       ??_C@_0BD@JDLKDPAB@?$GAvbase?5destructor?8@ 0042a494     libvcruntime:undname.obj
 0002:000024a8       ??_C@_0BN@DEGPLNFK@?$GAvector?5deleting?5destructor?8@ 0042a4a8     libvcruntime:undname.obj
 0002:000024c8       ??_C@_0BO@OBMKPJIG@?$GAdefault?5constructor?5closure?8@ 0042a4c8     libvcruntime:undname.obj
 0002:000024e8       ??_C@_0BN@IMDCHIKM@?$GAscalar?5deleting?5destructor?8@ 0042a4e8     libvcruntime:undname.obj
 0002:00002508       ??_C@_0BO@PFGOCPJJ@?$GAvector?5constructor?5iterator?8@ 0042a508     libvcruntime:undname.obj
 0002:00002528       ??_C@_0BN@LFPFMEDL@?$GAvector?5destructor?5iterator?8@ 0042a528     libvcruntime:undname.obj
 0002:00002548       ??_C@_0CE@IKBNEHA@?$GAvector?5vbase?5constructor?5itera@ 0042a548     libvcruntime:undname.obj
 0002:0000256c       ??_C@_0BL@NILFHHPC@?$GAvirtual?5displacement?5map?8@ 0042a56c     libvcruntime:undname.obj
 0002:00002588       ??_C@_0CB@JONCMFFK@?$GAeh?5vector?5constructor?5iterator@ 0042a588     libvcruntime:undname.obj
 0002:000025ac       ??_C@_0CA@GCEOPDGL@?$GAeh?5vector?5destructor?5iterator?8@ 0042a5ac     libvcruntime:undname.obj
 0002:000025cc       ??_C@_0CH@OOJPLCPH@?$GAeh?5vector?5vbase?5constructor?5it@ 0042a5cc     libvcruntime:undname.obj
 0002:000025f4       ??_C@_0BL@LLKPOHJI@?$GAcopy?5constructor?5closure?8@ 0042a5f4     libvcruntime:undname.obj
 0002:00002610       ??_C@_0BA@KBCDOMBN@?$GAudt?5returning?8@ 0042a610     libvcruntime:undname.obj
 0002:00002620       ??_C@_03KLGMFNMG@?$GAEH@   0042a620     libvcruntime:undname.obj
 0002:00002624       ??_C@_05KHLCHHI@?$GARTTI@  0042a624     libvcruntime:undname.obj
 0002:0000262c       ??_C@_0BA@KKLDJDLB@?$GAlocal?5vftable?8@ 0042a62c     libvcruntime:undname.obj
 0002:0000263c       ??_C@_0CE@IIHCMGGL@?$GAlocal?5vftable?5constructor?5clos@ 0042a63c     libvcruntime:undname.obj
 0002:00002660       ??_C@_06FHBGPFGH@?5new?$FL?$FN@ 0042a660     libvcruntime:undname.obj
 0002:00002668       ??_C@_09LBNFPBCA@?5delete?$FL?$FN@ 0042a668     libvcruntime:undname.obj
 0002:00002674       ??_C@_0P@HJKNJFNN@?$GAomni?5callsig?8@ 0042a674     libvcruntime:undname.obj
 0002:00002684       ??_C@_0BL@CNOONJFP@?$GAplacement?5delete?5closure?8@ 0042a684     libvcruntime:undname.obj
 0002:000026a0       ??_C@_0BN@CKNJLHMB@?$GAplacement?5delete?$FL?$FN?5closure?8@ 0042a6a0     libvcruntime:undname.obj
 0002:000026c0       ??_C@_0CG@CFDHKGGD@?$GAmanaged?5vector?5constructor?5ite@ 0042a6c0     libvcruntime:undname.obj
 0002:000026e8       ??_C@_0CF@IMGKMJNO@?$GAmanaged?5vector?5destructor?5iter@ 0042a6e8     libvcruntime:undname.obj
 0002:00002710       ??_C@_0CG@HLDDJMAG@?$GAeh?5vector?5copy?5constructor?5ite@ 0042a710     libvcruntime:undname.obj
 0002:00002738       ??_C@_0CM@FCBBDIGB@?$GAeh?5vector?5vbase?5copy?5construct@ 0042a738     libvcruntime:undname.obj
 0002:00002764       ??_C@_0BL@CLIPGLGB@?$GAdynamic?5initializer?5for?5?8@ 0042a764     libvcruntime:undname.obj
 0002:00002780       ??_C@_0CB@PDBIFEP@?$GAdynamic?5atexit?5destructor?5for?5@ 0042a780     libvcruntime:undname.obj
 0002:000027a4       ??_C@_0CD@CGAJBKEJ@?$GAvector?5copy?5constructor?5iterat@ 0042a7a4     libvcruntime:undname.obj
 0002:000027c8       ??_C@_0CJ@GJELGAMM@?$GAvector?5vbase?5copy?5constructor?5@ 0042a7c8     libvcruntime:undname.obj
 0002:000027f4       ??_C@_0CL@FGIJHLCE@?$GAmanaged?5vector?5copy?5constructo@ 0042a7f4     libvcruntime:undname.obj
 0002:00002820       ??_C@_0BM@PMGGMLDN@?$GAlocal?5static?5thread?5guard?8@ 0042a820     libvcruntime:undname.obj
 0002:0000283c       ??_C@_0N@BDNMDMOL@operator?5?$CC?$CC?5@ 0042a83c     libvcruntime:undname.obj
 0002:0000284c       ??_C@_0BC@GGEBGALA@operator?5co_await@ 0042a84c     libvcruntime:undname.obj
 0002:00002860       ??_C@_0M@GAAIMMOH@operator?$DM?$DN?$DO@ 0042a860     libvcruntime:undname.obj
 0002:0000286c       ??_C@_0BC@DAFEJGAK@?5Type?5Descriptor?8@ 0042a86c     libvcruntime:undname.obj
 0002:00002880       ??_C@_0BM@LDKODKLH@?5Base?5Class?5Descriptor?5at?5?$CI@ 0042a880     libvcruntime:undname.obj
 0002:0000289c       ??_C@_0BD@LGICGFMM@?5Base?5Class?5Array?8@ 0042a89c     libvcruntime:undname.obj
 0002:000028b0       ??_C@_0BN@MECKDCOJ@?5Class?5Hierarchy?5Descriptor?8@ 0042a8b0     libvcruntime:undname.obj
 0002:000028d0       ??_C@_0BK@CFCOFLF@?5Complete?5Object?5Locator?8@ 0042a8d0     libvcruntime:undname.obj
 0002:000028ec       ??_C@_0BG@JNJLAMPM@?$GAanonymous?5namespace?8@ 0042a8ec     libvcruntime:undname.obj
 0002:00002910       ??_C@_1DM@KHCHBNEB@?$AAa?$AAp?$AAi?$AA?9?$AAm?$AAs?$AA?9?$AAw?$AAi?$AAn?$AA?9?$AAc?$AAo?$AAr?$AAe@ 0042a910     libvcruntime:winapi_downlevel.obj
 0002:0000294c       ??_C@_1DK@LPPGFMPP@?$AAa?$AAp?$AAi?$AA?9?$AAm?$AAs?$AA?9?$AAw?$AAi?$AAn?$AA?9?$AAc?$AAo?$AAr?$AAe@ 0042a94c     libvcruntime:winapi_downlevel.obj
 0002:00002988       ??_C@_1BC@GDMECMAK@?$AAk?$AAe?$AAr?$AAn?$AAe?$AAl?$AA3?$AA2@ 0042a988     libvcruntime:winapi_downlevel.obj
 0002:0000299c       ??_C@_1BA@PFFKHIOG@?$AAa?$AAp?$AAi?$AA?9?$AAm?$AAs?$AA?9@ 0042a99c     libvcruntime:winapi_downlevel.obj
 0002:000029b4       ??_C@_08KNHFBNJ@FlsAlloc@  0042a9b4     libvcruntime:winapi_downlevel.obj
 0002:000029c8       ??_C@_07PEJMOBNF@FlsFree@  0042a9c8     libvcruntime:winapi_downlevel.obj
 0002:000029d8       ??_C@_0M@GDNOONDI@FlsGetValue@ 0042a9d8     libvcruntime:winapi_downlevel.obj
 0002:000029ec       ??_C@_0M@JCPCPOEF@FlsSetValue@ 0042a9ec     libvcruntime:winapi_downlevel.obj
 0002:00002a00       ??_C@_0BM@HCFOFFN@InitializeCriticalSectionEx@ 0042aa00     libvcruntime:winapi_downlevel.obj
 0002:00002a20       ?standard_lookup_table_spectre@__crt_stdio_output@@3V?$spectre_mitigated_lookup_table@Ustate_transition_pair@__crt_stdio_output@@$0IA@@1@B 0042aa20     libucrt:output.obj
 0002:00002b20       ??_C@_1O@CEDCILHN@?$AA?$CI?$AAn?$AAu?$AAl?$AAl?$AA?$CJ@ 0042ab20     libucrt:output.obj
 0002:00002b30       ??_C@_06OJHGLDPL@?$CInull?$CJ@ 0042ab30     libucrt:output.obj
 0002:00002b38       ___newctype                0042ab38     libucrt:ctype.obj
 0002:00002e38       ___newclmap                0042ae38     libucrt:ctype.obj
 0002:00002fb8       ___newcumap                0042afb8     libucrt:ctype.obj
 0002:00003138       __wctype                   0042b138     libucrt:ctype.obj
 0002:00003340       __real@3ff0000000000000    0042b340     libucrt:frexp.obj
 0002:000034b0       ?large_power_data@?1??multiply_by_power_of_ten@__crt_strtox@@YA_NAAUbig_integer@2@I@Z@4QBIB 0042b4b0     libucrt:strtod.obj
 0002:00003db8       ?large_power_indices@?1??multiply_by_power_of_ten@__crt_strtox@@YA_NAAUbig_integer@2@I@Z@4QBUunpack_index@?1??12@YA_N0I@Z@B 0042bdb8     libucrt:strtod.obj
 0002:00003e50       ?small_powers_of_ten@?1??multiply_by_power_of_ten@__crt_strtox@@YA_NAAUbig_integer@2@I@Z@4QBIB 0042be50     libucrt:strtod.obj
 0002:00003e78       ___acrt_exception_action_table 0042be78     libucrt:exception_filter.obj
 0002:00003f08       ___acrt_signal_action_table_count 0042bf08     libucrt:exception_filter.obj
 0002:00003f0c       ___acrt_signal_action_first_fpe_index 0042bf0c     libucrt:exception_filter.obj
 0002:00003f10       ___acrt_signal_action_fpe_count 0042bf10     libucrt:exception_filter.obj
 0002:00003f14       ??_C@_1BI@BGOHAHKC@?$AAm?$AAs?$AAc?$AAo?$AAr?$AAe?$AAe?$AA?4?$AAd?$AAl?$AAl@ 0042bf14     libucrt:exit.obj
 0002:00003f2c       ??_C@_0P@MIGLKIOC@CorExitProcess@ 0042bf2c     libucrt:exit.obj
 0002:00004040       ___lc_category             0042c040     libucrt:wsetlocale.obj
 0002:00004088       ??_C@_1O@GIFLHMA@?$AAL?$AAC?$AA_?$AAA?$AAL?$AAL@ 0042c088     libucrt:wsetlocale.obj
 0002:00004098       ??_C@_1BG@PPOMIBNJ@?$AAL?$AAC?$AA_?$AAC?$AAO?$AAL?$AAL?$AAA?$AAT?$AAE@ 0042c098     libucrt:wsetlocale.obj
 0002:000040b0       ??_C@_1BC@FFJGAPJM@?$AAL?$AAC?$AA_?$AAC?$AAT?$AAY?$AAP?$AAE@ 0042c0b0     libucrt:wsetlocale.obj
 0002:000040c4       ??_C@_1BI@PCKFNJFB@?$AAL?$AAC?$AA_?$AAM?$AAO?$AAN?$AAE?$AAT?$AAA?$AAR?$AAY@ 0042c0c4     libucrt:wsetlocale.obj
 0002:000040dc       ??_C@_1BG@ENIEDKID@?$AAL?$AAC?$AA_?$AAN?$AAU?$AAM?$AAE?$AAR?$AAI?$AAC@ 0042c0dc     libucrt:wsetlocale.obj
 0002:000040f4       ??_C@_1BA@HAAOMIIG@?$AAL?$AAC?$AA_?$AAT?$AAI?$AAM?$AAE@ 0042c0f4     libucrt:wsetlocale.obj
 0002:00004104       ??_C@_15NBPDDFIP@?$AA?$DN?$AA?$DL@ 0042c104     libucrt:wsetlocale.obj
 0002:0000410c       ??_C@_13PJJBFPED@?$AA?$DL@ 0042c10c     libucrt:wsetlocale.obj
 0002:00004110       ??_C@_13NMPKAAJP@?$AA?$DN@ 0042c110     libucrt:wsetlocale.obj
 0002:00004114       ??_C@_17EFJLDFDO@?$AA?9?$AA_?$AA?4@ 0042c114     libucrt:wsetlocale.obj
 0002:0000411c       ??_C@_13FHBKNHDA@?$AAC@    0042c11c     libucrt:wsetlocale.obj
 0002:00004120       ??_C@_17MBJJLFDM@?$AA_?$AA?4?$AA?0@ 0042c120     libucrt:wsetlocale.obj
 0002:00004128       ??_C@_13ENNFDPBH@?$AA_@    0042c128     libucrt:wsetlocale.obj
 0002:0000412c       ??_C@_13JOFGPIOO@?$AA?4@   0042c12c     libucrt:wsetlocale.obj
 0002:00004130       ___lc_time_c               0042c130     libucrt:nlsdata.obj
 0002:00004294       ??_C@_03KOEHGMDN@Sun@      0042c294     libucrt:nlsdata.obj
 0002:00004298       ??_C@_03PDAGKDH@Mon@       0042c298     libucrt:nlsdata.obj
 0002:0000429c       ??_C@_03NAGEINEP@Tue@      0042c29c     libucrt:nlsdata.obj
 0002:000042a0       ??_C@_03MHOMLAJA@Wed@      0042c2a0     libucrt:nlsdata.obj
 0002:000042a4       ??_C@_03IOFIKPDN@Thu@      0042c2a4     libucrt:nlsdata.obj
 0002:000042a8       ??_C@_03IDIOELNC@Fri@      0042c2a8     libucrt:nlsdata.obj
 0002:000042ac       ??_C@_03FEFJNEK@Sat@       0042c2ac     libucrt:nlsdata.obj
 0002:000042b0       ??_C@_06OOPIFAJ@Sunday@    0042c2b0     libucrt:nlsdata.obj
 0002:000042b8       ??_C@_06JLEDEDGH@Monday@   0042c2b8     libucrt:nlsdata.obj
 0002:000042c0       ??_C@_07BAAGCFCM@Tuesday@  0042c2c0     libucrt:nlsdata.obj
 0002:000042c8       ??_C@_09DLIGFAKA@Wednesday@ 0042c2c8     libucrt:nlsdata.obj
 0002:000042d4       ??_C@_08HACCIKIA@Thursday@ 0042c2d4     libucrt:nlsdata.obj
 0002:000042e0       ??_C@_06JECMNKMI@Friday@   0042c2e0     libucrt:nlsdata.obj
 0002:000042e8       ??_C@_08INBOOONO@Saturday@ 0042c2e8     libucrt:nlsdata.obj
 0002:000042f4       ??_C@_03JIHJHPIE@Jan@      0042c2f4     libucrt:nlsdata.obj
 0002:000042f8       ??_C@_03HJBDCHOM@Feb@      0042c2f8     libucrt:nlsdata.obj
 0002:000042fc       ??_C@_03ODNJBKGA@Mar@      0042c2fc     libucrt:nlsdata.obj
 0002:00004300       ??_C@_03LEOLGMJP@Apr@      0042c300     libucrt:nlsdata.obj
 0002:00004304       ??_C@_03CNMDKL@May@        0042c304     libucrt:nlsdata.obj
 0002:00004308       ??_C@_03IDFGHECI@Jun@      0042c308     libucrt:nlsdata.obj
 0002:0000430c       ??_C@_03LBGABGKK@Jul@      0042c30c     libucrt:nlsdata.obj
 0002:00004310       ??_C@_03IFJFEIGA@Aug@      0042c310     libucrt:nlsdata.obj
 0002:00004314       ??_C@_03GGCAPAJC@Sep@      0042c314     libucrt:nlsdata.obj
 0002:00004318       ??_C@_03BMAOKBAD@Oct@      0042c318     libucrt:nlsdata.obj
 0002:0000431c       ??_C@_03JPJOFNIA@Nov@      0042c31c     libucrt:nlsdata.obj
 0002:00004320       ??_C@_03MKABNOCG@Dec@      0042c320     libucrt:nlsdata.obj
 0002:00004324       ??_C@_07CGJPFGJA@January@  0042c324     libucrt:nlsdata.obj
 0002:0000432c       ??_C@_08GNJGEPFN@February@ 0042c32c     libucrt:nlsdata.obj
 0002:00004338       ??_C@_05HPCKOFNC@March@    0042c338     libucrt:nlsdata.obj
 0002:00004340       ??_C@_05DMJDNLEJ@April@    0042c340     libucrt:nlsdata.obj
 0002:00004348       ??_C@_04CNLMGBGM@June@     0042c348     libucrt:nlsdata.obj
 0002:00004350       ??_C@_04MIEPOIFP@July@     0042c350     libucrt:nlsdata.obj
 0002:00004358       ??_C@_06LBBHFDDG@August@   0042c358     libucrt:nlsdata.obj
 0002:00004360       ??_C@_09BHHEALKD@September@ 0042c360     libucrt:nlsdata.obj
 0002:0000436c       ??_C@_07JJNFCEND@October@  0042c36c     libucrt:nlsdata.obj
 0002:00004374       ??_C@_08HCHEGEOA@November@ 0042c374     libucrt:nlsdata.obj
 0002:00004380       ??_C@_08EDHMEBNP@December@ 0042c380     libucrt:nlsdata.obj
 0002:0000438c       ??_C@_02DEDBPAFC@AM@       0042c38c     libucrt:nlsdata.obj
 0002:00004390       ??_C@_02CJNFDJBF@PM@       0042c390     libucrt:nlsdata.obj
 0002:00004394       ??_C@_08BPBNCDIB@MM?1dd?1yy@ 0042c394     libucrt:nlsdata.obj
 0002:000043a0       ??_C@_0BE@CKGJFCPC@dddd?0?5MMMM?5dd?0?5yyyy@ 0042c3a0     libucrt:nlsdata.obj
 0002:000043b4       ??_C@_08JCCMCCIL@HH?3mm?3ss@ 0042c3b4     libucrt:nlsdata.obj
 0002:000043c0       ??_C@_17MBGCMIPB@?$AAS?$AAu?$AAn@ 0042c3c0     libucrt:nlsdata.obj
 0002:000043c8       ??_C@_17KBOMKBF@?$AAM?$AAo?$AAn@ 0042c3c8     libucrt:nlsdata.obj
 0002:000043d0       ??_C@_17BMKGEGOJ@?$AAT?$AAu?$AAe@ 0042c3d0     libucrt:nlsdata.obj
 0002:000043d8       ??_C@_17CJEDCEPE@?$AAW?$AAe?$AAd@ 0042c3d8     libucrt:nlsdata.obj
 0002:000043e0       ??_C@_17PDPHAADD@?$AAT?$AAh?$AAu@ 0042c3e0     libucrt:nlsdata.obj
 0002:000043e8       ??_C@_17HFOLPPLP@?$AAF?$AAr?$AAi@ 0042c3e8     libucrt:nlsdata.obj
 0002:000043f0       ??_C@_17GGIBDPIH@?$AAS?$AAa?$AAt@ 0042c3f0     libucrt:nlsdata.obj
 0002:000043f8       ??_C@_1O@IHNHDHPB@?$AAS?$AAu?$AAn?$AAd?$AAa?$AAy@ 0042c3f8     libucrt:nlsdata.obj
 0002:00004408       ??_C@_1O@MMNBFLIA@?$AAM?$AAo?$AAn?$AAd?$AAa?$AAy@ 0042c408     libucrt:nlsdata.obj
 0002:00004418       ??_C@_1BA@ENFBFFEK@?$AAT?$AAu?$AAe?$AAs?$AAd?$AAa?$AAy@ 0042c418     libucrt:nlsdata.obj
 0002:00004428       ??_C@_1BE@EBOGMDOH@?$AAW?$AAe?$AAd?$AAn?$AAe?$AAs?$AAd?$AAa?$AAy@ 0042c428     libucrt:nlsdata.obj
 0002:0000443c       ??_C@_1BC@HHMNLIHE@?$AAT?$AAh?$AAu?$AAr?$AAs?$AAd?$AAa?$AAy@ 0042c43c     libucrt:nlsdata.obj
 0002:00004450       ??_C@_1O@PDICJHAG@?$AAF?$AAr?$AAi?$AAd?$AAa?$AAy@ 0042c450     libucrt:nlsdata.obj
 0002:00004460       ??_C@_1BC@ENMNNPAJ@?$AAS?$AAa?$AAt?$AAu?$AAr?$AAd?$AAa?$AAy@ 0042c460     libucrt:nlsdata.obj
 0002:00004474       ??_C@_17DKNBKCHM@?$AAJ?$AAa?$AAn@ 0042c474     libucrt:nlsdata.obj
 0002:0000447c       ??_C@_17LMDJEKJN@?$AAF?$AAe?$AAb@ 0042c47c     libucrt:nlsdata.obj
 0002:00004484       ??_C@_17CKNLEDEC@?$AAM?$AAa?$AAr@ 0042c484     libucrt:nlsdata.obj
 0002:0000448c       ??_C@_17LFPOIHDD@?$AAA?$AAp?$AAr@ 0042c48c     libucrt:nlsdata.obj
 0002:00004494       ??_C@_17PNNKMEED@?$AAM?$AAa?$AAy@ 0042c494     libucrt:nlsdata.obj
 0002:0000449c       ??_C@_17KCJGOCPB@?$AAJ?$AAu?$AAn@ 0042c49c     libucrt:nlsdata.obj
 0002:000044a4       ??_C@_17IJPCKHK@?$AAJ?$AAu?$AAl@ 0042c4a4     libucrt:nlsdata.obj
 0002:000044ac       ??_C@_17ICPELBCN@?$AAA?$AAu?$AAg@ 0042c4ac     libucrt:nlsdata.obj
 0002:000044b4       ??_C@_17HCHCOKMG@?$AAS?$AAe?$AAp@ 0042c4b4     libucrt:nlsdata.obj
 0002:000044bc       ??_C@_17FNLKOI@?$AAO?$AAc?$AAt@ 0042c4bc     libucrt:nlsdata.obj
 0002:000044c4       ??_C@_17BBDMLCIG@?$AAN?$AAo?$AAv@ 0042c4c4     libucrt:nlsdata.obj
 0002:000044cc       ??_C@_17EGKACKIF@?$AAD?$AAe?$AAc@ 0042c4cc     libucrt:nlsdata.obj
 0002:000044d4       ??_C@_1BA@EFMEIEBA@?$AAJ?$AAa?$AAn?$AAu?$AAa?$AAr?$AAy@ 0042c4d4     libucrt:nlsdata.obj
 0002:000044e4       ??_C@_1BC@JGDDFFAM@?$AAF?$AAe?$AAb?$AAr?$AAu?$AAa?$AAr?$AAy@ 0042c4e4     libucrt:nlsdata.obj
 0002:000044f8       ??_C@_1M@IKEENEDF@?$AAM?$AAa?$AAr?$AAc?$AAh@ 0042c4f8     libucrt:nlsdata.obj
 0002:00004504       ??_C@_1M@GJNLMHFD@?$AAA?$AAp?$AAr?$AAi?$AAl@ 0042c504     libucrt:nlsdata.obj
 0002:00004510       ??_C@_19EPFLPGAP@?$AAJ?$AAu?$AAn?$AAe@ 0042c510     libucrt:nlsdata.obj
 0002:0000451c       ??_C@_19BIFMLPCD@?$AAJ?$AAu?$AAl?$AAy@ 0042c51c     libucrt:nlsdata.obj
 0002:00004528       ??_C@_1O@PAHLKOAC@?$AAA?$AAu?$AAg?$AAu?$AAs?$AAt@ 0042c528     libucrt:nlsdata.obj
 0002:00004538       ??_C@_1BE@DKAAMBJL@?$AAS?$AAe?$AAp?$AAt?$AAe?$AAm?$AAb?$AAe?$AAr@ 0042c538     libucrt:nlsdata.obj
 0002:0000454c       ??_C@_1BA@EPANDLNG@?$AAO?$AAc?$AAt?$AAo?$AAb?$AAe?$AAr@ 0042c54c     libucrt:nlsdata.obj
 0002:0000455c       ??_C@_1BC@BGLIFPF@?$AAN?$AAo?$AAv?$AAe?$AAm?$AAb?$AAe?$AAr@ 0042c55c     libucrt:nlsdata.obj
 0002:00004570       ??_C@_1BC@FEMKIFH@?$AAD?$AAe?$AAc?$AAe?$AAm?$AAb?$AAe?$AAr@ 0042c570     libucrt:nlsdata.obj
 0002:00004584       ??_C@_15ODEHAHHF@?$AAA?$AAM@ 0042c584     libucrt:nlsdata.obj
 0002:0000458c       ??_C@_15CLMNNGEL@?$AAP?$AAM@ 0042c58c     libucrt:nlsdata.obj
 0002:00004594       ??_C@_1BC@IEBCMHCM@?$AAM?$AAM?$AA?1?$AAd?$AAd?$AA?1?$AAy?$AAy@ 0042c594     libucrt:nlsdata.obj
 0002:000045a8       ??_C@_1CI@KNAKOEBC@?$AAd?$AAd?$AAd?$AAd?$AA?0?$AA?5?$AAM?$AAM?$AAM?$AAM?$AA?5?$AAd?$AAd?$AA?0?$AA?5@ 0042c5a8     libucrt:nlsdata.obj
 0002:000045d0       ??_C@_1BC@GDGBMEMK@?$AAH?$AAH?$AA?3?$AAm?$AAm?$AA?3?$AAs?$AAs@ 0042c5d0     libucrt:nlsdata.obj
 0002:000045e4       ??_C@_1M@BMHNFIME@?$AAe?$AAn?$AA?9?$AAU?$AAS@ 0042c5e4     libucrt:nlsdata.obj
 0002:00004630       ??_C@_03OEIAHPBN@INF@      0042c630     libucrt:cvt.obj
 0002:00004634       ??_C@_03OJHLLCGB@inf@      0042c634     libucrt:cvt.obj
 0002:00004638       ??_C@_03LKNCIKJB@NAN@      0042c638     libucrt:cvt.obj
 0002:0000463c       ??_C@_03LHCJEHON@nan@      0042c63c     libucrt:cvt.obj
 0002:00004640       ??_C@_09OFJJIMPC@NAN?$CISNAN?$CJ@ 0042c640     libucrt:cvt.obj
 0002:0000464c       ??_C@_09IPFBKMDL@nan?$CIsnan?$CJ@ 0042c64c     libucrt:cvt.obj
 0002:00004658       ??_C@_08IKHNHAJ@NAN?$CIIND?$CJ@ 0042c658     libucrt:cvt.obj
 0002:00004664       ??_C@_08OFCDMILK@nan?$CIind?$CJ@ 0042c664     libucrt:cvt.obj
 0002:00004670       ??_C@_05KLBDPFGC@e?$CL000@ 0042c670     libucrt:cvt.obj
 0002:000046d0       ??_C@_1EA@JGEFHKEI@?$AAa?$AAp?$AAi?$AA?9?$AAm?$AAs?$AA?9?$AAw?$AAi?$AAn?$AA?9?$AAc?$AAo?$AAr?$AAe@ 0042c6d0     libucrt:winapi_thunks.obj
 0002:00004710       ??_C@_1DI@KMEPCBPN@?$AAa?$AAp?$AAi?$AA?9?$AAm?$AAs?$AA?9?$AAw?$AAi?$AAn?$AA?9?$AAc?$AAo?$AAr?$AAe@ 0042c710     libucrt:winapi_thunks.obj
 0002:00004748       ??_C@_1DI@IJCEHOCB@?$AAa?$AAp?$AAi?$AA?9?$AAm?$AAs?$AA?9?$AAw?$AAi?$AAn?$AA?9?$AAc?$AAo?$AAr?$AAe@ 0042c748     libucrt:winapi_thunks.obj
 0002:00004780       ??_C@_1EI@MPIAOHOC@?$AAa?$AAp?$AAi?$AA?9?$AAm?$AAs?$AA?9?$AAw?$AAi?$AAn?$AA?9?$AAc?$AAo?$AAr?$AAe@ 0042c780     libucrt:winapi_thunks.obj
 0002:000047c8       ??_C@_1FK@FPHCKFIE@?$AAa?$AAp?$AAi?$AA?9?$AAm?$AAs?$AA?9?$AAw?$AAi?$AAn?$AA?9?$AAc?$AAo?$AAr?$AAe@ 0042c7c8     libucrt:winapi_thunks.obj
 0002:00004828       ??_C@_1EM@DILCGIIO@?$AAa?$AAp?$AAi?$AA?9?$AAm?$AAs?$AA?9?$AAw?$AAi?$AAn?$AA?9?$AAc?$AAo?$AAr?$AAe@ 0042c828     libucrt:winapi_thunks.obj
 0002:00004874       ??_C@_1DM@LNCGDDPN@?$AAa?$AAp?$AAi?$AA?9?$AAm?$AAs?$AA?9?$AAw?$AAi?$AAn?$AA?9?$AAc?$AAo?$AAr?$AAe@ 0042c874     libucrt:winapi_thunks.obj
 0002:000048b0       ??_C@_1DO@FPAPJEMD@?$AAa?$AAp?$AAi?$AA?9?$AAm?$AAs?$AA?9?$AAw?$AAi?$AAn?$AA?9?$AAc?$AAo?$AAr?$AAe@ 0042c8b0     libucrt:winapi_thunks.obj
 0002:000048f0       ??_C@_1DK@NDHNAHIO@?$AAa?$AAp?$AAi?$AA?9?$AAm?$AAs?$AA?9?$AAw?$AAi?$AAn?$AA?9?$AAc?$AAo?$AAr?$AAe@ 0042c8f0     libucrt:winapi_thunks.obj
 0002:0000492c       ??_C@_1DM@KGHDGBCM@?$AAa?$AAp?$AAi?$AA?9?$AAm?$AAs?$AA?9?$AAw?$AAi?$AAn?$AA?9?$AAc?$AAo?$AAr?$AAe@ 0042c92c     libucrt:winapi_thunks.obj
 0002:00004968       ??_C@_1EO@IJIOEFOH@?$AAa?$AAp?$AAi?$AA?9?$AAm?$AAs?$AA?9?$AAw?$AAi?$AAn?$AA?9?$AAr?$AAt?$AAc?$AAo@ 0042c968     libucrt:winapi_thunks.obj
 0002:000049b8       ??_C@_1FG@HHGEKANL@?$AAa?$AAp?$AAi?$AA?9?$AAm?$AAs?$AA?9?$AAw?$AAi?$AAn?$AA?9?$AAs?$AAe?$AAc?$AAu@ 0042c9b8     libucrt:winapi_thunks.obj
 0002:00004a10       ??_C@_1EG@DBIOJECG@?$AAe?$AAx?$AAt?$AA?9?$AAm?$AAs?$AA?9?$AAw?$AAi?$AAn?$AA?9?$AAn?$AAt?$AAu?$AAs@ 0042ca10     libucrt:winapi_thunks.obj
 0002:00004a58       ??_C@_1EO@FIHMJCLF@?$AAe?$AAx?$AAt?$AA?9?$AAm?$AAs?$AA?9?$AAw?$AAi?$AAn?$AA?9?$AAn?$AAt?$AAu?$AAs@ 0042ca58     libucrt:winapi_thunks.obj
 0002:00004aa8       ??_C@_1BC@DNHGCMLG@?$AAa?$AAd?$AAv?$AAa?$AAp?$AAi?$AA3?$AA2@ 0042caa8     libucrt:winapi_thunks.obj
 0002:00004abc       ??_C@_1BG@CJPGBMEF@?$AAk?$AAe?$AAr?$AAn?$AAe?$AAl?$AAb?$AAa?$AAs?$AAe@ 0042cabc     libucrt:winapi_thunks.obj
 0002:00004ad4       ??_C@_1M@OAIMIKLP@?$AAn?$AAt?$AAd?$AAl?$AAl@ 0042cad4     libucrt:winapi_thunks.obj
 0002:00004ae0       ??_C@_1EG@DPGNFKGC@?$AAa?$AAp?$AAi?$AA?9?$AAm?$AAs?$AA?9?$AAw?$AAi?$AAn?$AA?9?$AAa?$AAp?$AAp?$AAm@ 0042cae0     libucrt:winapi_thunks.obj
 0002:00004b28       ??_C@_1O@BCCLBEOE@?$AAu?$AAs?$AAe?$AAr?$AA3?$AA2@ 0042cb28     libucrt:winapi_thunks.obj
 0002:00004b38       ??_C@_1DM@BPJLHKCE@?$AAa?$AAp?$AAi?$AA?9?$AAm?$AAs?$AA?9?$AAw?$AAi?$AAn?$AA?9?$AAc?$AAo?$AAr?$AAe@ 0042cb38     libucrt:winapi_thunks.obj
 0002:00004b74       ??_C@_1BA@IAIFMGEF@?$AAe?$AAx?$AAt?$AA?9?$AAm?$AAs?$AA?9@ 0042cb74     libucrt:winapi_thunks.obj
 0002:00004b88       ??_C@_0BA@FHFNEAED@AreFileApisANSI@ 0042cb88     libucrt:winapi_thunks.obj
 0002:00004ba0       ??_C@_0BA@IHGNDAEB@CompareStringEx@ 0042cba0     libucrt:winapi_thunks.obj
 0002:00004bb8       ??_C@_0BE@LJANKFHF@EnumSystemLocalesEx@ 0042cbb8     libucrt:winapi_thunks.obj
 0002:00004bd4       ??_C@_0BA@EPCJIIPD@GetDateFormatEx@ 0042cbd4     libucrt:winapi_thunks.obj
 0002:00004bec       ??_C@_0BA@ONOKGCMP@GetLocaleInfoEx@ 0042cbec     libucrt:winapi_thunks.obj
 0002:00004c04       ??_C@_0BA@CIJJKCJJ@GetTimeFormatEx@ 0042cc04     libucrt:winapi_thunks.obj
 0002:00004c1c       ??_C@_0BJ@PBCCBIPI@GetUserDefaultLocaleName@ 0042cc1c     libucrt:winapi_thunks.obj
 0002:00004c48       ??_C@_0BC@CELBKLLA@IsValidLocaleName@ 0042cc48     libucrt:winapi_thunks.obj
 0002:00004c64       ??_C@_0O@KKBNKAPF@LCMapStringEx@ 0042cc64     libucrt:winapi_thunks.obj
 0002:00004c7c       ??_C@_0BB@CDHDDLLP@LCIDToLocaleName@ 0042cc7c     libucrt:winapi_thunks.obj
 0002:00004c98       ??_C@_0BB@HBDEELFH@LocaleNameToLCID@ 0042cc98     libucrt:winapi_thunks.obj
 0002:00004cb0       ??_C@_0CF@OJOFEIGO@AppPolicyGetProcessTerminationM@ 0042ccb0     libucrt:winapi_thunks.obj
 0002:00004cf8       ?ccs@?1???$__acrt_stdio_parse_mode@D@@YA?AU__acrt_stdio_stream_mode@@QBD@Z@4QBDB 0042ccf8     libucrt:openfile.obj
 0002:00004cfc       ?utf8_encoding@?1???$__acrt_stdio_parse_mode@D@@YA?AU__acrt_stdio_stream_mode@@QBD@Z@4QBDB 0042ccfc     libucrt:openfile.obj
 0002:00004d04       ?utf16_encoding@?1???$__acrt_stdio_parse_mode@D@@YA?AU__acrt_stdio_stream_mode@@QBD@Z@4QBDB 0042cd04     libucrt:openfile.obj
 0002:00004d0c       ?unicode_encoding@?1???$__acrt_stdio_parse_mode@D@@YA?AU__acrt_stdio_stream_mode@@QBD@Z@4QBDB 0042cd0c     libucrt:openfile.obj
 0002:00004e00       ??_C@_03KHJOGHMM@exp@      0042ce00     libucrt:fpexcept.obj
 0002:00004e04       ??_C@_03JGHBODFD@pow@      0042ce04     libucrt:fpexcept.obj
 0002:00004e08       ??_C@_03MGHMBJCF@log@      0042ce08     libucrt:fpexcept.obj
 0002:00004e0c       ??_C@_05HGHHAHAP@log10@    0042ce0c     libucrt:fpexcept.obj
 0002:00004e14       ??_C@_04COOMCNPB@sinh@     0042ce14     libucrt:fpexcept.obj
 0002:00004e1c       ??_C@_04HPJJNFIM@cosh@     0042ce1c     libucrt:fpexcept.obj
 0002:00004e24       ??_C@_04FJHINJAO@tanh@     0042ce24     libucrt:fpexcept.obj
 0002:00004e2c       ??_C@_04FIHNOPOL@asin@     0042ce2c     libucrt:fpexcept.obj
 0002:00004e34       ??_C@_04PDIFKINK@acos@     0042ce34     libucrt:fpexcept.obj
 0002:00004e3c       ??_C@_04MLLJIGOK@atan@     0042ce3c     libucrt:fpexcept.obj
 0002:00004e44       ??_C@_05KNGEOGJB@atan2@    0042ce44     libucrt:fpexcept.obj
 0002:00004e4c       ??_C@_04EIAKFFMI@sqrt@     0042ce4c     libucrt:fpexcept.obj
 0002:00004e54       ??_C@_03BLEJJJBH@sin@      0042ce54     libucrt:fpexcept.obj
 0002:00004e58       ??_C@_03LALBNOCG@cos@      0042ce58     libucrt:fpexcept.obj
 0002:00004e5c       ??_C@_03IIINPABG@tan@      0042ce5c     libucrt:fpexcept.obj
 0002:00004e60       ??_C@_04GFPJNGEK@ceil@     0042ce60     libucrt:fpexcept.obj
 0002:00004e68       ??_C@_05PBJFFIGL@floor@    0042ce68     libucrt:fpexcept.obj
 0002:00004e70       ??_C@_04ODHECPBC@fabs@     0042ce70     libucrt:fpexcept.obj
 0002:00004e78       ??_C@_04EHEDPDJG@modf@     0042ce78     libucrt:fpexcept.obj
 0002:00004e80       ??_C@_05CEJMAHNP@ldexp@    0042ce80     libucrt:fpexcept.obj
 0002:00004e88       ??_C@_05KBKMEMPO@_cabs@    0042ce88     libucrt:fpexcept.obj
 0002:00004e90       ??_C@_06MEIMCGCF@_hypot@   0042ce90     libucrt:fpexcept.obj
 0002:00004e98       ??_C@_04KEPJIHGP@fmod@     0042ce98     libucrt:fpexcept.obj
 0002:00004ea0       ??_C@_05GKKHEGJL@frexp@    0042cea0     libucrt:fpexcept.obj
 0002:00004ea8       ??_C@_03MJLDFKDL@_y0@      0042cea8     libucrt:fpexcept.obj
 0002:00004eac       ??_C@_03NAKIGLHK@_y1@      0042ceac     libucrt:fpexcept.obj
 0002:00004eb0       ??_C@_03ONILCKOB@_yn@      0042ceb0     libucrt:fpexcept.obj
 0002:00004eb4       ??_C@_05JGDBENOH@_logb@    0042ceb4     libucrt:fpexcept.obj
 0002:00004ebc       ??_C@_0L@KDOEJCKC@_nextafter@ 0042cebc     libucrt:fpexcept.obj
 0002:00004ec8       __d_inf                    0042cec8     libucrt:util.obj
 0002:00004ed0       __d_max                    0042ced0     libucrt:util.obj
 0002:00004ed8       __d_mzero                  0042ced8     libucrt:util.obj
 0002:00004f08       ??_C@_1M@HPNHIDJI@?$AAj?$AAa?$AA?9?$AAJ?$AAP@ 0042cf08     libucrt:mbctype.obj
 0002:00004f14       ??_C@_1M@BIBDDEMK@?$AAz?$AAh?$AA?9?$AAC?$AAN@ 0042cf14     libucrt:mbctype.obj
 0002:00004f20       ??_C@_1M@JLOOOEGK@?$AAk?$AAo?$AA?9?$AAK?$AAR@ 0042cf20     libucrt:mbctype.obj
 0002:00004f2c       ??_C@_1M@CLNBBOPM@?$AAz?$AAh?$AA?9?$AAT?$AAW@ 0042cf2c     libucrt:mbctype.obj
 0002:00004f38       ___acrt_rg_language        0042cf38     libucrt:get_qualified_locale.obj
 0002:00005244       ___acrt_rg_language_count  0042d244     libucrt:get_qualified_locale.obj
 0002:00005248       ___acrt_rg_country         0042d248     libucrt:get_qualified_locale.obj
 0002:0000535c       ___acrt_rg_country_count   0042d35c     libucrt:get_qualified_locale.obj
 0002:00005360       ??_C@_1BC@LLOKLNP@?$AAa?$AAm?$AAe?$AAr?$AAi?$AAc?$AAa?$AAn@ 0042d360     libucrt:get_qualified_locale.obj
 0002:00005374       ??_C@_1CC@HEIGCDGG@?$AAa?$AAm?$AAe?$AAr?$AAi?$AAc?$AAa?$AAn?$AA?5?$AAe?$AAn?$AAg?$AAl?$AAi?$AAs@ 0042d374     libucrt:get_qualified_locale.obj
 0002:00005398       ??_C@_1CC@IHCNOMIN@?$AAa?$AAm?$AAe?$AAr?$AAi?$AAc?$AAa?$AAn?$AA?9?$AAe?$AAn?$AAg?$AAl?$AAi?$AAs@ 0042d398     libucrt:get_qualified_locale.obj
 0002:000053bc       ??_C@_1BG@GKAGPCGG@?$AAa?$AAu?$AAs?$AAt?$AAr?$AAa?$AAl?$AAi?$AAa?$AAn@ 0042d3bc     libucrt:get_qualified_locale.obj
 0002:000053d4       ??_C@_1BA@GMENCENF@?$AAb?$AAe?$AAl?$AAg?$AAi?$AAa?$AAn@ 0042d3d4     libucrt:get_qualified_locale.obj
 0002:000053e4       ??_C@_1BC@PJMIIAAN@?$AAc?$AAa?$AAn?$AAa?$AAd?$AAi?$AAa?$AAn@ 0042d3e4     libucrt:get_qualified_locale.obj
 0002:000053f8       ??_C@_17NOIMNFBF@?$AAc?$AAh?$AAh@ 0042d3f8     libucrt:get_qualified_locale.obj
 0002:00005400       ??_C@_17GGDALCHA@?$AAc?$AAh?$AAi@ 0042d400     libucrt:get_qualified_locale.obj
 0002:00005408       ??_C@_1BA@NPNJKIBL@?$AAc?$AAh?$AAi?$AAn?$AAe?$AAs?$AAe@ 0042d408     libucrt:get_qualified_locale.obj
 0002:00005418       ??_C@_1CC@DINBAMMJ@?$AAc?$AAh?$AAi?$AAn?$AAe?$AAs?$AAe?$AA?9?$AAh?$AAo?$AAn?$AAg?$AAk?$AAo?$AAn@ 0042d418     libucrt:get_qualified_locale.obj
 0002:0000543c       ??_C@_1CG@IOBJPACO@?$AAc?$AAh?$AAi?$AAn?$AAe?$AAs?$AAe?$AA?9?$AAs?$AAi?$AAm?$AAp?$AAl?$AAi?$AAf@ 0042d43c     libucrt:get_qualified_locale.obj
 0002:00005464       ??_C@_1CE@GAJNDCKG@?$AAc?$AAh?$AAi?$AAn?$AAe?$AAs?$AAe?$AA?9?$AAs?$AAi?$AAn?$AAg?$AAa?$AAp?$AAo@ 0042d464     libucrt:get_qualified_locale.obj
 0002:00005488       ??_C@_1CI@PAJPIOOD@?$AAc?$AAh?$AAi?$AAn?$AAe?$AAs?$AAe?$AA?9?$AAt?$AAr?$AAa?$AAd?$AAi?$AAt?$AAi@ 0042d488     libucrt:get_qualified_locale.obj
 0002:000054b0       ??_C@_1BM@NILJBMMD@?$AAd?$AAu?$AAt?$AAc?$AAh?$AA?9?$AAb?$AAe?$AAl?$AAg?$AAi?$AAa?$AAn@ 0042d4b0     libucrt:get_qualified_locale.obj
 0002:000054cc       ??_C@_1CC@OOJPJNEJ@?$AAe?$AAn?$AAg?$AAl?$AAi?$AAs?$AAh?$AA?9?$AAa?$AAm?$AAe?$AAr?$AAi?$AAc?$AAa@ 0042d4cc     libucrt:get_qualified_locale.obj
 0002:000054f0       ??_C@_1BI@IOLFEEM@?$AAe?$AAn?$AAg?$AAl?$AAi?$AAs?$AAh?$AA?9?$AAa?$AAu?$AAs@ 0042d4f0     libucrt:get_qualified_locale.obj
 0002:00005508       ??_C@_1BO@HFFNLENJ@?$AAe?$AAn?$AAg?$AAl?$AAi?$AAs?$AAh?$AA?9?$AAb?$AAe?$AAl?$AAi?$AAz?$AAe@ 0042d508     libucrt:get_qualified_locale.obj
 0002:00005528       ??_C@_1BI@HAPKJMPO@?$AAe?$AAn?$AAg?$AAl?$AAi?$AAs?$AAh?$AA?9?$AAc?$AAa?$AAn@ 0042d528     libucrt:get_qualified_locale.obj
 0002:00005540       ??_C@_1CE@HLNDMIOJ@?$AAe?$AAn?$AAg?$AAl?$AAi?$AAs?$AAh?$AA?9?$AAc?$AAa?$AAr?$AAi?$AAb?$AAb?$AAe@ 0042d540     libucrt:get_qualified_locale.obj
 0002:00005564       ??_C@_1BI@LDHJHHAC@?$AAe?$AAn?$AAg?$AAl?$AAi?$AAs?$AAh?$AA?9?$AAi?$AAr?$AAe@ 0042d564     libucrt:get_qualified_locale.obj
 0002:0000557c       ??_C@_1CA@NJMMCFOC@?$AAe?$AAn?$AAg?$AAl?$AAi?$AAs?$AAh?$AA?9?$AAj?$AAa?$AAm?$AAa?$AAi?$AAc?$AAa@ 0042d57c     libucrt:get_qualified_locale.obj
 0002:0000559c       ??_C@_1BG@BHJEBBGG@?$AAe?$AAn?$AAg?$AAl?$AAi?$AAs?$AAh?$AA?9?$AAn?$AAz@ 0042d59c     libucrt:get_qualified_locale.obj
 0002:000055b4       ??_C@_1CK@FGOEJJCO@?$AAe?$AAn?$AAg?$AAl?$AAi?$AAs?$AAh?$AA?9?$AAs?$AAo?$AAu?$AAt?$AAh?$AA?5?$AAa@ 0042d5b4     libucrt:get_qualified_locale.obj
 0002:000055e0       ??_C@_1DE@PDBJPCJ@?$AAe?$AAn?$AAg?$AAl?$AAi?$AAs?$AAh?$AA?9?$AAt?$AAr?$AAi?$AAn?$AAi?$AAd?$AAa@ 0042d5e0     libucrt:get_qualified_locale.obj
 0002:00005614       ??_C@_1BG@JGCANDME@?$AAe?$AAn?$AAg?$AAl?$AAi?$AAs?$AAh?$AA?9?$AAu?$AAk@ 0042d614     libucrt:get_qualified_locale.obj
 0002:0000562c       ??_C@_1BG@DINKMLE@?$AAe?$AAn?$AAg?$AAl?$AAi?$AAs?$AAh?$AA?9?$AAu?$AAs@ 0042d62c     libucrt:get_qualified_locale.obj
 0002:00005644       ??_C@_1BI@NMFDBHJE@?$AAe?$AAn?$AAg?$AAl?$AAi?$AAs?$AAh?$AA?9?$AAu?$AAs?$AAa@ 0042d644     libucrt:get_qualified_locale.obj
 0002:0000565c       ??_C@_1BO@OIHKJKII@?$AAf?$AAr?$AAe?$AAn?$AAc?$AAh?$AA?9?$AAb?$AAe?$AAl?$AAg?$AAi?$AAa?$AAn@ 0042d65c     libucrt:get_qualified_locale.obj
 0002:0000567c       ??_C@_1CA@NKAELJKI@?$AAf?$AAr?$AAe?$AAn?$AAc?$AAh?$AA?9?$AAc?$AAa?$AAn?$AAa?$AAd?$AAi?$AAa?$AAn@ 0042d67c     libucrt:get_qualified_locale.obj
 0002:0000569c       ??_C@_1CE@MGKCNLGN@?$AAf?$AAr?$AAe?$AAn?$AAc?$AAh?$AA?9?$AAl?$AAu?$AAx?$AAe?$AAm?$AAb?$AAo?$AAu@ 0042d69c     libucrt:get_qualified_locale.obj
 0002:000056c0       ??_C@_1BK@CEGEAILM@?$AAf?$AAr?$AAe?$AAn?$AAc?$AAh?$AA?9?$AAs?$AAw?$AAi?$AAs?$AAs@ 0042d6c0     libucrt:get_qualified_locale.obj
 0002:000056dc       ??_C@_1CA@PAFKEOCC@?$AAg?$AAe?$AAr?$AAm?$AAa?$AAn?$AA?9?$AAa?$AAu?$AAs?$AAt?$AAr?$AAi?$AAa?$AAn@ 0042d6dc     libucrt:get_qualified_locale.obj
 0002:000056fc       ??_C@_1CI@HCFHGOFD@?$AAg?$AAe?$AAr?$AAm?$AAa?$AAn?$AA?9?$AAl?$AAi?$AAc?$AAh?$AAt?$AAe?$AAn?$AAs@ 0042d6fc     libucrt:get_qualified_locale.obj
 0002:00005724       ??_C@_1CE@FEDDNPDG@?$AAg?$AAe?$AAr?$AAm?$AAa?$AAn?$AA?9?$AAl?$AAu?$AAx?$AAe?$AAm?$AAb?$AAo?$AAu@ 0042d724     libucrt:get_qualified_locale.obj
 0002:00005748       ??_C@_1BK@LIMINNMN@?$AAg?$AAe?$AAr?$AAm?$AAa?$AAn?$AA?9?$AAs?$AAw?$AAi?$AAs?$AAs@ 0042d748     libucrt:get_qualified_locale.obj
 0002:00005764       ??_C@_1BM@LGMDBEPD@?$AAi?$AAr?$AAi?$AAs?$AAh?$AA?9?$AAe?$AAn?$AAg?$AAl?$AAi?$AAs?$AAh@ 0042d764     libucrt:get_qualified_locale.obj
 0002:00005780       ??_C@_1BM@NNCFBAEE@?$AAi?$AAt?$AAa?$AAl?$AAi?$AAa?$AAn?$AA?9?$AAs?$AAw?$AAi?$AAs?$AAs@ 0042d780     libucrt:get_qualified_locale.obj
 0002:0000579c       ??_C@_1BE@FEDJNPIB@?$AAn?$AAo?$AAr?$AAw?$AAe?$AAg?$AAi?$AAa?$AAn@ 0042d79c     libucrt:get_qualified_locale.obj
 0002:000057b0       ??_C@_1CC@CILKDEIE@?$AAn?$AAo?$AAr?$AAw?$AAe?$AAg?$AAi?$AAa?$AAn?$AA?9?$AAb?$AAo?$AAk?$AAm?$AAa@ 0042d7b0     libucrt:get_qualified_locale.obj
 0002:000057d4       ??_C@_1CE@DHMMHEPL@?$AAn?$AAo?$AAr?$AAw?$AAe?$AAg?$AAi?$AAa?$AAn?$AA?9?$AAn?$AAy?$AAn?$AAo?$AAr@ 0042d7d4     libucrt:get_qualified_locale.obj
 0002:000057f8       ??_C@_1CK@OPNMHECD@?$AAp?$AAo?$AAr?$AAt?$AAu?$AAg?$AAu?$AAe?$AAs?$AAe?$AA?9?$AAb?$AAr?$AAa?$AAz@ 0042d7f8     libucrt:get_qualified_locale.obj
 0002:00005824       ??_C@_1CE@KEEHCDB@?$AAs?$AAp?$AAa?$AAn?$AAi?$AAs?$AAh?$AA?9?$AAa?$AAr?$AAg?$AAe?$AAn?$AAt?$AAi@ 0042d824     libucrt:get_qualified_locale.obj
 0002:00005848       ??_C@_1CA@GIAOLHJD@?$AAs?$AAp?$AAa?$AAn?$AAi?$AAs?$AAh?$AA?9?$AAb?$AAo?$AAl?$AAi?$AAv?$AAi?$AAa@ 0042d848     libucrt:get_qualified_locale.obj
 0002:00005868       ??_C@_1BM@OJNDFNPD@?$AAs?$AAp?$AAa?$AAn?$AAi?$AAs?$AAh?$AA?9?$AAc?$AAh?$AAi?$AAl?$AAe@ 0042d868     libucrt:get_qualified_locale.obj
 0002:00005884       ??_C@_1CC@OCOLPALL@?$AAs?$AAp?$AAa?$AAn?$AAi?$AAs?$AAh?$AA?9?$AAc?$AAo?$AAl?$AAo?$AAm?$AAb?$AAi@ 0042d884     libucrt:get_qualified_locale.obj
 0002:000058a8       ??_C@_1CG@BPOFMKBB@?$AAs?$AAp?$AAa?$AAn?$AAi?$AAs?$AAh?$AA?9?$AAc?$AAo?$AAs?$AAt?$AAa?$AA?5?$AAr@ 0042d8a8     libucrt:get_qualified_locale.obj
 0002:000058d0       ??_C@_1DG@IGOBAPBB@?$AAs?$AAp?$AAa?$AAn?$AAi?$AAs?$AAh?$AA?9?$AAd?$AAo?$AAm?$AAi?$AAn?$AAi?$AAc@ 0042d8d0     libucrt:get_qualified_locale.obj
 0002:00005908       ??_C@_1CA@JHAPGEGI@?$AAs?$AAp?$AAa?$AAn?$AAi?$AAs?$AAh?$AA?9?$AAe?$AAc?$AAu?$AAa?$AAd?$AAo?$AAr@ 0042d908     libucrt:get_qualified_locale.obj
 0002:00005928       ??_C@_1CI@LAPALJPP@?$AAs?$AAp?$AAa?$AAn?$AAi?$AAs?$AAh?$AA?9?$AAe?$AAl?$AA?5?$AAs?$AAa?$AAl?$AAv@ 0042d928     libucrt:get_qualified_locale.obj
 0002:00005950       ??_C@_1CE@PDGBOFOM@?$AAs?$AAp?$AAa?$AAn?$AAi?$AAs?$AAh?$AA?9?$AAg?$AAu?$AAa?$AAt?$AAe?$AAm?$AAa@ 0042d950     libucrt:get_qualified_locale.obj
 0002:00005974       ??_C@_1CC@NBEBAODI@?$AAs?$AAp?$AAa?$AAn?$AAi?$AAs?$AAh?$AA?9?$AAh?$AAo?$AAn?$AAd?$AAu?$AAr?$AAa@ 0042d974     libucrt:get_qualified_locale.obj
 0002:00005998       ??_C@_1CA@LLKGHBMF@?$AAs?$AAp?$AAa?$AAn?$AAi?$AAs?$AAh?$AA?9?$AAm?$AAe?$AAx?$AAi?$AAc?$AAa?$AAn@ 0042d998     libucrt:get_qualified_locale.obj
 0002:000059b8       ??_C@_1BO@LKNDOIGD@?$AAs?$AAp?$AAa?$AAn?$AAi?$AAs?$AAh?$AA?9?$AAm?$AAo?$AAd?$AAe?$AAr?$AAn@ 0042d9b8     libucrt:get_qualified_locale.obj
 0002:000059d8       ??_C@_1CE@NMDMOEEB@?$AAs?$AAp?$AAa?$AAn?$AAi?$AAs?$AAh?$AA?9?$AAn?$AAi?$AAc?$AAa?$AAr?$AAa?$AAg@ 0042d9d8     libucrt:get_qualified_locale.obj
 0002:000059fc       ??_C@_1BO@LLCBEJGB@?$AAs?$AAp?$AAa?$AAn?$AAi?$AAs?$AAh?$AA?9?$AAp?$AAa?$AAn?$AAa?$AAm?$AAa@ 0042d9fc     libucrt:get_qualified_locale.obj
 0002:00005a1c       ??_C@_1CC@FKPGGIHO@?$AAs?$AAp?$AAa?$AAn?$AAi?$AAs?$AAh?$AA?9?$AAp?$AAa?$AAr?$AAa?$AAg?$AAu?$AAa@ 0042da1c     libucrt:get_qualified_locale.obj
 0002:00005a40       ??_C@_1BK@CDEIHOOP@?$AAs?$AAp?$AAa?$AAn?$AAi?$AAs?$AAh?$AA?9?$AAp?$AAe?$AAr?$AAu@ 0042da40     libucrt:get_qualified_locale.obj
 0002:00005a5c       ??_C@_1CI@GAHAKKGP@?$AAs?$AAp?$AAa?$AAn?$AAi?$AAs?$AAh?$AA?9?$AAp?$AAu?$AAe?$AAr?$AAt?$AAo?$AA?5@ 0042da5c     libucrt:get_qualified_locale.obj
 0002:00005a84       ??_C@_1CA@NKJBCAGP@?$AAs?$AAp?$AAa?$AAn?$AAi?$AAs?$AAh?$AA?9?$AAu?$AAr?$AAu?$AAg?$AAu?$AAa?$AAy@ 0042da84     libucrt:get_qualified_locale.obj
 0002:00005aa4       ??_C@_1CE@ODILCONM@?$AAs?$AAp?$AAa?$AAn?$AAi?$AAs?$AAh?$AA?9?$AAv?$AAe?$AAn?$AAe?$AAz?$AAu?$AAe@ 0042daa4     libucrt:get_qualified_locale.obj
 0002:00005ac8       ??_C@_1CA@OBNMCGFO@?$AAs?$AAw?$AAe?$AAd?$AAi?$AAs?$AAh?$AA?9?$AAf?$AAi?$AAn?$AAl?$AAa?$AAn?$AAd@ 0042dac8     libucrt:get_qualified_locale.obj
 0002:00005ae8       ??_C@_1M@PIPDDPPI@?$AAs?$AAw?$AAi?$AAs?$AAs@ 0042dae8     libucrt:get_qualified_locale.obj
 0002:00005af4       ??_C@_15PJPFLCCM@?$AAu?$AAk@ 0042daf4     libucrt:get_qualified_locale.obj
 0002:00005afc       ??_C@_15GMFIMNFM@?$AAu?$AAs@ 0042dafc     libucrt:get_qualified_locale.obj
 0002:00005b04       ??_C@_17HAEBFAGL@?$AAu?$AAs?$AAa@ 0042db04     libucrt:get_qualified_locale.obj
 0002:00005b0c       ??_C@_1BA@DPFJEPHB@?$AAa?$AAm?$AAe?$AAr?$AAi?$AAc?$AAa@ 0042db0c     libucrt:get_qualified_locale.obj
 0002:00005b1c       ??_C@_1BA@ELOGGFK@?$AAb?$AAr?$AAi?$AAt?$AAa?$AAi?$AAn@ 0042db1c     libucrt:get_qualified_locale.obj
 0002:00005b2c       ??_C@_1M@GHBGIGDA@?$AAc?$AAh?$AAi?$AAn?$AAa@ 0042db2c     libucrt:get_qualified_locale.obj
 0002:00005b38       ??_C@_1M@NCHEJOPO@?$AAc?$AAz?$AAe?$AAc?$AAh@ 0042db38     libucrt:get_qualified_locale.obj
 0002:00005b44       ??_C@_1BA@BKPAPBLA@?$AAe?$AAn?$AAg?$AAl?$AAa?$AAn?$AAd@ 0042db44     libucrt:get_qualified_locale.obj
 0002:00005b54       ??_C@_1BM@HKBCKIPC@?$AAg?$AAr?$AAe?$AAa?$AAt?$AA?5?$AAb?$AAr?$AAi?$AAt?$AAa?$AAi?$AAn@ 0042db54     libucrt:get_qualified_locale.obj
 0002:00005b70       ??_C@_1BA@PPCHPGJB@?$AAh?$AAo?$AAl?$AAl?$AAa?$AAn?$AAd@ 0042db70     libucrt:get_qualified_locale.obj
 0002:00005b80       ??_C@_1BE@JBMPEGDG@?$AAh?$AAo?$AAn?$AAg?$AA?9?$AAk?$AAo?$AAn?$AAg@ 0042db80     libucrt:get_qualified_locale.obj
 0002:00005b94       ??_C@_1BI@KOELBBPJ@?$AAn?$AAe?$AAw?$AA?9?$AAz?$AAe?$AAa?$AAl?$AAa?$AAn?$AAd@ 0042db94     libucrt:get_qualified_locale.obj
 0002:00005bac       ??_C@_15HIEBHAIO@?$AAn?$AAz@ 0042dbac     libucrt:get_qualified_locale.obj
 0002:00005bb4       ??_C@_1BC@CHBCPFPI@?$AAp?$AAr?$AA?5?$AAc?$AAh?$AAi?$AAn?$AAa@ 0042dbb4     libucrt:get_qualified_locale.obj
 0002:00005bc8       ??_C@_1BC@JAOIIFKD@?$AAp?$AAr?$AA?9?$AAc?$AAh?$AAi?$AAn?$AAa@ 0042dbc8     libucrt:get_qualified_locale.obj
 0002:00005bdc       ??_C@_1BI@BEHPPHKC@?$AAp?$AAu?$AAe?$AAr?$AAt?$AAo?$AA?9?$AAr?$AAi?$AAc?$AAo@ 0042dbdc     libucrt:get_qualified_locale.obj
 0002:00005bf4       ??_C@_1O@PAEOFKDI@?$AAs?$AAl?$AAo?$AAv?$AAa?$AAk@ 0042dbf4     libucrt:get_qualified_locale.obj
 0002:00005c04       ??_C@_1BK@FIHMCKAM@?$AAs?$AAo?$AAu?$AAt?$AAh?$AA?5?$AAa?$AAf?$AAr?$AAi?$AAc?$AAa@ 0042dc04     libucrt:get_qualified_locale.obj
 0002:00005c20       ??_C@_1BI@NAEOODKB@?$AAs?$AAo?$AAu?$AAt?$AAh?$AA?5?$AAk?$AAo?$AAr?$AAe?$AAa@ 0042dc20     libucrt:get_qualified_locale.obj
 0002:00005c38       ??_C@_1BK@FBDGGIFF@?$AAs?$AAo?$AAu?$AAt?$AAh?$AA?9?$AAa?$AAf?$AAr?$AAi?$AAc?$AAa@ 0042dc38     libucrt:get_qualified_locale.obj
 0002:00005c54       ??_C@_1BI@GHLEJDPK@?$AAs?$AAo?$AAu?$AAt?$AAh?$AA?9?$AAk?$AAo?$AAr?$AAe?$AAa@ 0042dc54     libucrt:get_qualified_locale.obj
 0002:00005c6c       ??_C@_1CE@PLHLOMJF@?$AAt?$AAr?$AAi?$AAn?$AAi?$AAd?$AAa?$AAd?$AA?5?$AA?$CG?$AA?5?$AAt?$AAo?$AAb?$AAa@ 0042dc6c     libucrt:get_qualified_locale.obj
 0002:00005c90       ??_C@_1BO@MODIMHHI@?$AAu?$AAn?$AAi?$AAt?$AAe?$AAd?$AA?9?$AAk?$AAi?$AAn?$AAg?$AAd?$AAo?$AAm@ 0042dc90     libucrt:get_qualified_locale.obj
 0002:00005cb0       ??_C@_1BM@FFHJONBJ@?$AAu?$AAn?$AAi?$AAt?$AAe?$AAd?$AA?9?$AAs?$AAt?$AAa?$AAt?$AAe?$AAs@ 0042dcb0     libucrt:get_qualified_locale.obj
 0002:00005ccc       ??_C@_19MPDNHKDG@?$AAu?$AAt?$AAf?$AA8@ 0042dccc     libucrt:get_qualified_locale.obj
 0002:00005cd8       ??_C@_17DNCLJFIF@?$AAA?$AAC?$AAP@ 0042dcd8     libucrt:get_qualified_locale.obj
 0002:00005ce0       ??_C@_1M@FPEIIFAM@?$AAu?$AAt?$AAf?$AA?9?$AA8@ 0042dce0     libucrt:get_qualified_locale.obj
 0002:00005cec       ??_C@_17CIKBIHLH@?$AAO?$AAC?$AAP@ 0042dcec     libucrt:get_qualified_locale.obj
 0002:00005cf4       ___rglangidNotDefault      0042dcf4     libucrt:getqloc_downlevel.obj
 0002:00005d08       ??_C@_01GBGANLPD@0@        0042dd08     libucrt:cfout.obj
 0002:00005d0c       ??_C@_05DNEBIAHO@1?$CDINF@ 0042dd0c     libucrt:cfout.obj
 0002:00005d14       ??_C@_06IMKFLFPG@1?$CDQNAN@ 0042dd14     libucrt:cfout.obj
 0002:00005d1c       ??_C@_06PGGFOGJG@1?$CDSNAN@ 0042dd1c     libucrt:cfout.obj
 0002:00005d24       ??_C@_05PHHOCPM@1?$CDIND@  0042dd24     libucrt:cfout.obj
 0002:00006450       ??_C@_15EMKDOKLE@?$AAa?$AAr@ 0042e450     libucrt:lcidtoname_downlevel.obj
 0002:00006458       ??_C@_15KNPADPLH@?$AAb?$AAg@ 0042e458     libucrt:lcidtoname_downlevel.obj
 0002:00006460       ??_C@_15EDMHLDMO@?$AAc?$AAa@ 0042e460     libucrt:lcidtoname_downlevel.obj
 0002:00006468       ??_C@_1O@BPEAJADD@?$AAz?$AAh?$AA?9?$AAC?$AAH?$AAS@ 0042e468     libucrt:lcidtoname_downlevel.obj
 0002:00006478       ??_C@_15LJNHCMNK@?$AAc?$AAs@ 0042e478     libucrt:lcidtoname_downlevel.obj
 0002:00006480       ??_C@_15FOMCIDHG@?$AAd?$AAa@ 0042e480     libucrt:lcidtoname_downlevel.obj
 0002:00006488       ??_C@_15NBKABECB@?$AAd?$AAe@ 0042e488     libucrt:lcidtoname_downlevel.obj
 0002:00006490       ??_C@_15GHPEIIAO@?$AAe?$AAl@ 0042e490     libucrt:lcidtoname_downlevel.obj
 0002:00006498       ??_C@_15MNPNEAIF@?$AAe?$AAn@ 0042e498     libucrt:lcidtoname_downlevel.obj
 0002:000064a0       ??_C@_15GPIOMPMH@?$AAe?$AAs@ 0042e4a0     libucrt:lcidtoname_downlevel.obj
 0002:000064a8       ??_C@_15NGLOAKJC@?$AAf?$AAi@ 0042e4a8     libucrt:lcidtoname_downlevel.obj
 0002:000064b0       ??_C@_15FBKGNKAM@?$AAf?$AAr@ 0042e4b0     libucrt:lcidtoname_downlevel.obj
 0002:000064b8       ??_C@_15KGGCNEFK@?$AAh?$AAe@ 0042e4b8     libucrt:lcidtoname_downlevel.obj
 0002:000064c0       ??_C@_15PGHLIDMF@?$AAh?$AAu@ 0042e4c0     libucrt:lcidtoname_downlevel.obj
 0002:000064c8       ??_C@_15BIEMAPLM@?$AAi?$AAs@ 0042e4c8     libucrt:lcidtoname_downlevel.obj
 0002:000064d0       ??_C@_15IFJLDHAF@?$AAi?$AAt@ 0042e4d0     libucrt:lcidtoname_downlevel.obj
 0002:000064d8       ??_C@_15GEMIOCAG@?$AAj?$AAa@ 0042e4d8     libucrt:lcidtoname_downlevel.obj
 0002:000064e0       ??_C@_15EPELEGJA@?$AAk?$AAo@ 0042e4e0     libucrt:lcidtoname_downlevel.obj
 0002:000064e8       ??_C@_15NDDHIMN@?$AAn?$AAl@ 0042e4e8     libucrt:lcidtoname_downlevel.obj
 0002:000064f0       ??_C@_15BPIGNHCD@?$AAn?$AAo@ 0042e4f0     libucrt:lcidtoname_downlevel.obj
 0002:000064f8       ??_C@_15DEOPBLCG@?$AAp?$AAl@ 0042e4f8     libucrt:lcidtoname_downlevel.obj
 0002:00006500       ??_C@_15KBECGEFG@?$AAp?$AAt@ 0042e500     libucrt:lcidtoname_downlevel.obj
 0002:00006508       ??_C@_15GLJCBFMD@?$AAr?$AAo@ 0042e508     libucrt:lcidtoname_downlevel.obj
 0002:00006510       ??_C@_15FEDGKCDI@?$AAr?$AAu@ 0042e510     libucrt:lcidtoname_downlevel.obj
 0002:00006518       ??_C@_15GLKMLLHM@?$AAh?$AAr@ 0042e518     libucrt:lcidtoname_downlevel.obj
 0002:00006520       ??_C@_15CPKMFBDB@?$AAs?$AAk@ 0042e520     libucrt:lcidtoname_downlevel.obj
 0002:00006528       ??_C@_15BAAIOGMK@?$AAs?$AAq@ 0042e528     libucrt:lcidtoname_downlevel.obj
 0002:00006530       ??_C@_15INNPNOHD@?$AAs?$AAv@ 0042e530     libucrt:lcidtoname_downlevel.obj
 0002:00006538       ??_C@_15CABMMOGH@?$AAt?$AAh@ 0042e538     libucrt:lcidtoname_downlevel.obj
 0002:00006540       ??_C@_15BPLIHJJM@?$AAt?$AAr@ 0042e540     libucrt:lcidtoname_downlevel.obj
 0002:00006548       ??_C@_15NEOEKKDJ@?$AAu?$AAr@ 0042e548     libucrt:lcidtoname_downlevel.obj
 0002:00006550       ??_C@_15NFICGAJK@?$AAi?$AAd@ 0042e550     libucrt:lcidtoname_downlevel.obj
 0002:00006558       ??_C@_15HPJPHDM@?$AAb?$AAe@ 0042e558     libucrt:lcidtoname_downlevel.obj
 0002:00006560       ??_C@_15LCHLGJII@?$AAs?$AAl@ 0042e560     libucrt:lcidtoname_downlevel.obj
 0002:00006568       ??_C@_15PCFJPHHO@?$AAe?$AAt@ 0042e568     libucrt:lcidtoname_downlevel.obj
 0002:00006570       ??_C@_15HPFPGODN@?$AAl?$AAv@ 0042e570     libucrt:lcidtoname_downlevel.obj
 0002:00006578       ??_C@_15NFFGKGLG@?$AAl?$AAt@ 0042e578     libucrt:lcidtoname_downlevel.obj
 0002:00006580       ??_C@_15BDAKCCHN@?$AAf?$AAa@ 0042e580     libucrt:lcidtoname_downlevel.obj
 0002:00006588       ??_C@_15NFGIAIAJ@?$AAv?$AAi@ 0042e588     libucrt:lcidtoname_downlevel.obj
 0002:00006590       ??_C@_15LMKNDMHN@?$AAh?$AAy@ 0042e590     libucrt:lcidtoname_downlevel.obj
 0002:00006598       ??_C@_15IJBHMCFL@?$AAa?$AAz@ 0042e598     libucrt:lcidtoname_downlevel.obj
 0002:000065a0       ??_C@_15EKOFJABL@?$AAe?$AAu@ 0042e5a0     libucrt:lcidtoname_downlevel.obj
 0002:000065a8       ??_C@_15BGHADCNK@?$AAm?$AAk@ 0042e5a8     libucrt:lcidtoname_downlevel.obj
 0002:000065b0       ??_C@_15JDNICKHM@?$AAa?$AAf@ 0042e5b0     libucrt:lcidtoname_downlevel.obj
 0002:000065b8       ??_C@_15KPJEDBKD@?$AAk?$AAa@ 0042e5b8     libucrt:lcidtoname_downlevel.obj
 0002:000065c0       ??_C@_15PDNFFFEO@?$AAf?$AAo@ 0042e5c0     libucrt:lcidtoname_downlevel.obj
 0002:000065c8       ??_C@_15OMLEGLOC@?$AAh?$AAi@ 0042e5c8     libucrt:lcidtoname_downlevel.obj
 0002:000065d0       ??_C@_15IDNNENKK@?$AAm?$AAs@ 0042e5d0     libucrt:lcidtoname_downlevel.obj
 0002:000065d8       ??_C@_15MACJNBMH@?$AAk?$AAk@ 0042e5d8     libucrt:lcidtoname_downlevel.obj
 0002:000065e0       ??_C@_15DKDJEOND@?$AAk?$AAy@ 0042e5e0     libucrt:lcidtoname_downlevel.obj
 0002:000065e8       ??_C@_15DFGDLJBG@?$AAs?$AAw@ 0042e5e8     libucrt:lcidtoname_downlevel.obj
 0002:000065f0       ??_C@_15BBFAICNG@?$AAu?$AAz@ 0042e5f0     libucrt:lcidtoname_downlevel.obj
 0002:000065f8       ??_C@_15DKNDCGEA@?$AAt?$AAt@ 0042e5f8     libucrt:lcidtoname_downlevel.obj
 0002:00006600       ??_C@_15MGIFMDPL@?$AAp?$AAa@ 0042e600     libucrt:lcidtoname_downlevel.obj
 0002:00006608       ??_C@_15HCNDBBA@?$AAg?$AAu@ 0042e608     libucrt:lcidtoname_downlevel.obj
 0002:00006610       ??_C@_15FNBEIBON@?$AAt?$AAa@ 0042e610     libucrt:lcidtoname_downlevel.obj
 0002:00006618       ??_C@_15NCHGBGLK@?$AAt?$AAe@ 0042e618     libucrt:lcidtoname_downlevel.obj
 0002:00006620       ??_C@_15PHPHCBPF@?$AAk?$AAn@ 0042e620     libucrt:lcidtoname_downlevel.obj
 0002:00006628       ??_C@_15DLGBCKMP@?$AAm?$AAr@ 0042e628     libucrt:lcidtoname_downlevel.obj
 0002:00006630       ??_C@_15EABBLBFF@?$AAs?$AAa@ 0042e630     libucrt:lcidtoname_downlevel.obj
 0002:00006638       ??_C@_15CBKOMCOI@?$AAm?$AAn@ 0042e638     libucrt:lcidtoname_downlevel.obj
 0002:00006640       ??_C@_15CKDMCJAF@?$AAg?$AAl@ 0042e640     libucrt:lcidtoname_downlevel.obj
 0002:00006648       ??_C@_17CNJFBPG@?$AAk?$AAo?$AAk@ 0042e648     libucrt:lcidtoname_downlevel.obj
 0002:00006650       ??_C@_17FFBJICPL@?$AAs?$AAy?$AAr@ 0042e650     libucrt:lcidtoname_downlevel.obj
 0002:00006658       ??_C@_17KPNDCPAF@?$AAd?$AAi?$AAv@ 0042e658     libucrt:lcidtoname_downlevel.obj
 0002:00006660       ??_C@_1M@OKAHONE@?$AAa?$AAr?$AA?9?$AAS?$AAA@ 0042e660     libucrt:lcidtoname_downlevel.obj
 0002:0000666c       ??_C@_1M@FFFIGIGK@?$AAb?$AAg?$AA?9?$AAB?$AAG@ 0042e66c     libucrt:lcidtoname_downlevel.obj
 0002:00006678       ??_C@_1M@BJNKEDC@?$AAc?$AAa?$AA?9?$AAE?$AAS@ 0042e678     libucrt:lcidtoname_downlevel.obj
 0002:00006684       ??_C@_1M@IJJHFJHA@?$AAc?$AAs?$AA?9?$AAC?$AAZ@ 0042e684     libucrt:lcidtoname_downlevel.obj
 0002:00006690       ??_C@_1M@CLPEOBGI@?$AAd?$AAa?$AA?9?$AAD?$AAK@ 0042e690     libucrt:lcidtoname_downlevel.obj
 0002:0000669c       ??_C@_1M@MCMADGCB@?$AAd?$AAe?$AA?9?$AAD?$AAE@ 0042e69c     libucrt:lcidtoname_downlevel.obj
 0002:000066a8       ??_C@_1M@OOCKEMAM@?$AAe?$AAl?$AA?9?$AAG?$AAR@ 0042e6a8     libucrt:lcidtoname_downlevel.obj
 0002:000066b4       ??_C@_1M@DDNJFGID@?$AAf?$AAi?$AA?9?$AAF?$AAI@ 0042e6b4     libucrt:lcidtoname_downlevel.obj
 0002:000066c0       ??_C@_1M@GLIPPMAC@?$AAf?$AAr?$AA?9?$AAF?$AAR@ 0042e6c0     libucrt:lcidtoname_downlevel.obj
 0002:000066cc       ??_C@_1M@GFMCHPE@?$AAh?$AAe?$AA?9?$AAI?$AAL@ 0042e6cc     libucrt:lcidtoname_downlevel.obj
 0002:000066d8       ??_C@_1M@MHLPGNKM@?$AAh?$AAu?$AA?9?$AAH?$AAU@ 0042e6d8     libucrt:lcidtoname_downlevel.obj
 0002:000066e4       ??_C@_1M@LPDDNNPN@?$AAi?$AAs?$AA?9?$AAI?$AAS@ 0042e6e4     libucrt:lcidtoname_downlevel.obj
 0002:000066f0       ??_C@_1M@MADIPODN@?$AAi?$AAt?$AA?9?$AAI?$AAT@ 0042e6f0     libucrt:lcidtoname_downlevel.obj
 0002:000066fc       ??_C@_1M@IHBJJGG@?$AAn?$AAl?$AA?9?$AAN?$AAL@ 0042e6fc     libucrt:lcidtoname_downlevel.obj
 0002:00006708       ??_C@_1M@EANAGDL@?$AAn?$AAb?$AA?9?$AAN?$AAO@ 0042e708     libucrt:lcidtoname_downlevel.obj
 0002:00006714       ??_C@_1M@NEIEMEGP@?$AAp?$AAl?$AA?9?$AAP?$AAL@ 0042e714     libucrt:lcidtoname_downlevel.obj
 0002:00006720       ??_C@_1M@BOCFIGEP@?$AAp?$AAt?$AA?9?$AAB?$AAR@ 0042e720     libucrt:lcidtoname_downlevel.obj
 0002:0000672c       ??_C@_1M@IMPFOPBG@?$AAr?$AAo?$AA?9?$AAR?$AAO@ 0042e72c     libucrt:lcidtoname_downlevel.obj
 0002:00006738       ??_C@_1M@IDNNEJMM@?$AAr?$AAu?$AA?9?$AAR?$AAU@ 0042e738     libucrt:lcidtoname_downlevel.obj
 0002:00006744       ??_C@_1M@LILEEOGM@?$AAh?$AAr?$AA?9?$AAH?$AAR@ 0042e744     libucrt:lcidtoname_downlevel.obj
 0002:00006750       ??_C@_1M@FKIFEHPB@?$AAs?$AAk?$AA?9?$AAS?$AAK@ 0042e750     libucrt:lcidtoname_downlevel.obj
 0002:0000675c       ??_C@_1M@LJMAMNPJ@?$AAs?$AAq?$AA?9?$AAA?$AAL@ 0042e75c     libucrt:lcidtoname_downlevel.obj
 0002:00006768       ??_C@_1M@GIAKDKJK@?$AAs?$AAv?$AA?9?$AAS?$AAE@ 0042e768     libucrt:lcidtoname_downlevel.obj
 0002:00006774       ??_C@_1M@MKJKIKCL@?$AAt?$AAh?$AA?9?$AAT?$AAH@ 0042e774     libucrt:lcidtoname_downlevel.obj
 0002:00006780       ??_C@_1M@MFLCCMPB@?$AAt?$AAr?$AA?9?$AAT?$AAR@ 0042e780     libucrt:lcidtoname_downlevel.obj
 0002:0000678c       ??_C@_1M@OIJHDKJN@?$AAu?$AAr?$AA?9?$AAP?$AAK@ 0042e78c     libucrt:lcidtoname_downlevel.obj
 0002:00006798       ??_C@_1M@LHIPCIEK@?$AAi?$AAd?$AA?9?$AAI?$AAD@ 0042e798     libucrt:lcidtoname_downlevel.obj
 0002:000067a4       ??_C@_1M@MFMOBGI@?$AAu?$AAk?$AA?9?$AAU?$AAA@ 0042e7a4     libucrt:lcidtoname_downlevel.obj
 0002:000067b0       ??_C@_1M@OBGLJIPL@?$AAb?$AAe?$AA?9?$AAB?$AAY@ 0042e7b0     libucrt:lcidtoname_downlevel.obj
 0002:000067bc       ??_C@_1M@BCFAJEAD@?$AAs?$AAl?$AA?9?$AAS?$AAI@ 0042e7bc     libucrt:lcidtoname_downlevel.obj
 0002:000067c8       ??_C@_1M@FKFFEDDN@?$AAe?$AAt?$AA?9?$AAE?$AAE@ 0042e7c8     libucrt:lcidtoname_downlevel.obj
 0002:000067d4       ??_C@_1M@KGKKAACI@?$AAl?$AAv?$AA?9?$AAL?$AAV@ 0042e7d4     libucrt:lcidtoname_downlevel.obj
 0002:000067e0       ??_C@_1M@IFGBIJO@?$AAl?$AAt?$AA?9?$AAL?$AAT@ 0042e7e0     libucrt:lcidtoname_downlevel.obj
 0002:000067ec       ??_C@_1M@FGEAHEDM@?$AAf?$AAa?$AA?9?$AAI?$AAR@ 0042e7ec     libucrt:lcidtoname_downlevel.obj
 0002:000067f8       ??_C@_1M@KBMAIBFN@?$AAv?$AAi?$AA?9?$AAV?$AAN@ 0042e7f8     libucrt:lcidtoname_downlevel.obj
 0002:00006804       ??_C@_1M@GPCBKDJK@?$AAh?$AAy?$AA?9?$AAA?$AAM@ 0042e804     libucrt:lcidtoname_downlevel.obj
 0002:00006810       ??_C@_1BG@BECMDDJB@?$AAa?$AAz?$AA?9?$AAA?$AAZ?$AA?9?$AAL?$AAa?$AAt?$AAn@ 0042e810     libucrt:lcidtoname_downlevel.obj
 0002:00006828       ??_C@_1M@MAOFCAEA@?$AAe?$AAu?$AA?9?$AAE?$AAS@ 0042e828     libucrt:lcidtoname_downlevel.obj
 0002:00006834       ??_C@_1M@IGHABKPI@?$AAm?$AAk?$AA?9?$AAM?$AAK@ 0042e834     libucrt:lcidtoname_downlevel.obj
 0002:00006840       ??_C@_1M@IAIGNEJG@?$AAt?$AAn?$AA?9?$AAZ?$AAA@ 0042e840     libucrt:lcidtoname_downlevel.obj
 0002:0000684c       ??_C@_1M@IIJCOJFA@?$AAx?$AAh?$AA?9?$AAZ?$AAA@ 0042e84c     libucrt:lcidtoname_downlevel.obj
 0002:00006858       ??_C@_1M@LGPJHNJH@?$AAz?$AAu?$AA?9?$AAZ?$AAA@ 0042e858     libucrt:lcidtoname_downlevel.obj
 0002:00006864       ??_C@_1M@HOKAOIO@?$AAa?$AAf?$AA?9?$AAZ?$AAA@ 0042e864     libucrt:lcidtoname_downlevel.obj
 0002:00006870       ??_C@_1M@DPCLHLIE@?$AAk?$AAa?$AA?9?$AAG?$AAE@ 0042e870     libucrt:lcidtoname_downlevel.obj
 0002:0000687c       ??_C@_1M@BLKMHJBI@?$AAf?$AAo?$AA?9?$AAF?$AAO@ 0042e87c     libucrt:lcidtoname_downlevel.obj
 0002:00006888       ??_C@_1M@LGGJAPPB@?$AAh?$AAi?$AA?9?$AAI?$AAN@ 0042e888     libucrt:lcidtoname_downlevel.obj
 0002:00006894       ??_C@_1M@FIKPIHFE@?$AAm?$AAt?$AA?9?$AAM?$AAT@ 0042e894     libucrt:lcidtoname_downlevel.obj
 0002:000068a0       ??_C@_1M@HEGGPBFA@?$AAs?$AAe?$AA?9?$AAN?$AAO@ 0042e8a0     libucrt:lcidtoname_downlevel.obj
 0002:000068ac       ??_C@_1M@EIBJEEPA@?$AAm?$AAs?$AA?9?$AAM?$AAY@ 0042e8ac     libucrt:lcidtoname_downlevel.obj
 0002:000068b8       ??_C@_1M@FHLBGMPP@?$AAk?$AAk?$AA?9?$AAK?$AAZ@ 0042e8b8     libucrt:lcidtoname_downlevel.obj
 0002:000068c4       ??_C@_1M@NGJJLCGI@?$AAk?$AAy?$AA?9?$AAK?$AAG@ 0042e8c4     libucrt:lcidtoname_downlevel.obj
 0002:000068d0       ??_C@_1M@GIENNBFC@?$AAs?$AAw?$AA?9?$AAK?$AAE@ 0042e8d0     libucrt:lcidtoname_downlevel.obj
 0002:000068dc       ??_C@_1BG@NDGMJIMJ@?$AAu?$AAz?$AA?9?$AAU?$AAZ?$AA?9?$AAL?$AAa?$AAt?$AAn@ 0042e8dc     libucrt:lcidtoname_downlevel.obj
 0002:000068f4       ??_C@_1M@IDCCIHBC@?$AAt?$AAt?$AA?9?$AAR?$AAU@ 0042e8f4     libucrt:lcidtoname_downlevel.obj
 0002:00006900       ??_C@_1M@LOICPMOJ@?$AAb?$AAn?$AA?9?$AAI?$AAN@ 0042e900     libucrt:lcidtoname_downlevel.obj
 0002:0000690c       ??_C@_1M@KPKKNEAH@?$AAp?$AAa?$AA?9?$AAI?$AAN@ 0042e90c     libucrt:lcidtoname_downlevel.obj
 0002:00006918       ??_C@_1M@PJGPPBOG@?$AAg?$AAu?$AA?9?$AAI?$AAN@ 0042e918     libucrt:lcidtoname_downlevel.obj
 0002:00006924       ??_C@_1M@KMKMOPHI@?$AAt?$AAa?$AA?9?$AAI?$AAN@ 0042e924     libucrt:lcidtoname_downlevel.obj
 0002:00006930       ??_C@_1M@KFEHEPAC@?$AAt?$AAe?$AA?9?$AAI?$AAN@ 0042e930     libucrt:lcidtoname_downlevel.obj
 0002:0000693c       ??_C@_1M@CDCLMGHI@?$AAk?$AAn?$AA?9?$AAI?$AAN@ 0042e93c     libucrt:lcidtoname_downlevel.obj
 0002:00006948       ??_C@_1M@MIODLDKF@?$AAm?$AAl?$AA?9?$AAI?$AAN@ 0042e948     libucrt:lcidtoname_downlevel.obj
 0002:00006954       ??_C@_1M@PBIEACPO@?$AAm?$AAr?$AA?9?$AAI?$AAN@ 0042e954     libucrt:lcidtoname_downlevel.obj
 0002:00006960       ??_C@_1M@NIDEAGPH@?$AAs?$AAa?$AA?9?$AAI?$AAN@ 0042e960     libucrt:lcidtoname_downlevel.obj
 0002:0000696c       ??_C@_1M@FHIHCBIO@?$AAm?$AAn?$AA?9?$AAM?$AAN@ 0042e96c     libucrt:lcidtoname_downlevel.obj
 0002:00006978       ??_C@_1M@JAIJPENP@?$AAc?$AAy?$AA?9?$AAG?$AAB@ 0042e978     libucrt:lcidtoname_downlevel.obj
 0002:00006984       ??_C@_1M@PHGFBEPN@?$AAg?$AAl?$AA?9?$AAE?$AAS@ 0042e984     libucrt:lcidtoname_downlevel.obj
 0002:00006990       ??_C@_1O@KPIPDNCP@?$AAk?$AAo?$AAk?$AA?9?$AAI?$AAN@ 0042e990     libucrt:lcidtoname_downlevel.obj
 0002:000069a0       ??_C@_1O@KNHJLDJA@?$AAs?$AAy?$AAr?$AA?9?$AAS?$AAY@ 0042e9a0     libucrt:lcidtoname_downlevel.obj
 0002:000069b0       ??_C@_1O@MKEKBLAH@?$AAd?$AAi?$AAv?$AA?9?$AAM?$AAV@ 0042e9b0     libucrt:lcidtoname_downlevel.obj
 0002:000069c0       ??_C@_1O@OHDCKDDF@?$AAq?$AAu?$AAz?$AA?9?$AAB?$AAO@ 0042e9c0     libucrt:lcidtoname_downlevel.obj
 0002:000069d0       ??_C@_1M@LEPJNLFD@?$AAn?$AAs?$AA?9?$AAZ?$AAA@ 0042e9d0     libucrt:lcidtoname_downlevel.obj
 0002:000069dc       ??_C@_1M@OMLEIIJB@?$AAm?$AAi?$AA?9?$AAN?$AAZ@ 0042e9dc     libucrt:lcidtoname_downlevel.obj
 0002:000069e8       ??_C@_1M@PMPEAILG@?$AAa?$AAr?$AA?9?$AAI?$AAQ@ 0042e9e8     libucrt:lcidtoname_downlevel.obj
 0002:000069f4       ??_C@_1M@CNKPNOEE@?$AAd?$AAe?$AA?9?$AAC?$AAH@ 0042e9f4     libucrt:lcidtoname_downlevel.obj
 0002:00006a00       ??_C@_1M@LKMGMLKO@?$AAe?$AAn?$AA?9?$AAG?$AAB@ 0042ea00     libucrt:lcidtoname_downlevel.obj
 0002:00006a0c       ??_C@_1M@PGKJFFGL@?$AAe?$AAs?$AA?9?$AAM?$AAX@ 0042ea0c     libucrt:lcidtoname_downlevel.obj
 0002:00006a18       ??_C@_1M@DNNANBDC@?$AAf?$AAr?$AA?9?$AAB?$AAE@ 0042ea18     libucrt:lcidtoname_downlevel.obj
 0002:00006a24       ??_C@_1M@HLGMDFHM@?$AAi?$AAt?$AA?9?$AAC?$AAH@ 0042ea24     libucrt:lcidtoname_downlevel.obj
 0002:00006a30       ??_C@_1M@CLLBGJH@?$AAn?$AAl?$AA?9?$AAB?$AAE@ 0042ea30     libucrt:lcidtoname_downlevel.obj
 0002:00006a3c       ??_C@_1M@BODBOGLF@?$AAn?$AAn?$AA?9?$AAN?$AAO@ 0042ea3c     libucrt:lcidtoname_downlevel.obj
 0002:00006a48       ??_C@_1M@HFFAHKAD@?$AAp?$AAt?$AA?9?$AAP?$AAT@ 0042ea48     libucrt:lcidtoname_downlevel.obj
 0002:00006a54       ??_C@_1BG@LNOAKHIE@?$AAs?$AAr?$AA?9?$AAS?$AAP?$AA?9?$AAL?$AAa?$AAt?$AAn@ 0042ea54     libucrt:lcidtoname_downlevel.obj
 0002:00006a6c       ??_C@_1M@HBMHBGAK@?$AAs?$AAv?$AA?9?$AAF?$AAI@ 0042ea6c     libucrt:lcidtoname_downlevel.obj
 0002:00006a78       ??_C@_1BG@DGCJGJBE@?$AAa?$AAz?$AA?9?$AAA?$AAZ?$AA?9?$AAC?$AAy?$AAr?$AAl@ 0042ea78     libucrt:lcidtoname_downlevel.obj
 0002:00006a90       ??_C@_1M@KEJDAAHB@?$AAs?$AAe?$AA?9?$AAS?$AAE@ 0042ea90     libucrt:lcidtoname_downlevel.obj
 0002:00006a9c       ??_C@_1M@HEIBJJAD@?$AAm?$AAs?$AA?9?$AAB?$AAN@ 0042ea9c     libucrt:lcidtoname_downlevel.obj
 0002:00006aa8       ??_C@_1BG@PBGJMCEM@?$AAu?$AAz?$AA?9?$AAU?$AAZ?$AA?9?$AAC?$AAy?$AAr?$AAl@ 0042eaa8     libucrt:lcidtoname_downlevel.obj
 0002:00006ac0       ??_C@_1O@LAOBCMDF@?$AAq?$AAu?$AAz?$AA?9?$AAE?$AAC@ 0042eac0     libucrt:lcidtoname_downlevel.obj
 0002:00006ad0       ??_C@_1M@POEEMAIO@?$AAa?$AAr?$AA?9?$AAE?$AAG@ 0042ead0     libucrt:lcidtoname_downlevel.obj
 0002:00006adc       ??_C@_1M@EFAKDEDL@?$AAz?$AAh?$AA?9?$AAH?$AAK@ 0042eadc     libucrt:lcidtoname_downlevel.obj
 0002:00006ae8       ??_C@_1M@HKKIJHGI@?$AAd?$AAe?$AA?9?$AAA?$AAT@ 0042eae8     libucrt:lcidtoname_downlevel.obj
 0002:00006af4       ??_C@_1M@KBFBEHJF@?$AAe?$AAn?$AA?9?$AAA?$AAU@ 0042eaf4     libucrt:lcidtoname_downlevel.obj
 0002:00006b00       ??_C@_1M@MNPLFAAH@?$AAe?$AAs?$AA?9?$AAE?$AAS@ 0042eb00     libucrt:lcidtoname_downlevel.obj
 0002:00006b0c       ??_C@_1M@HJOOJFMA@?$AAf?$AAr?$AA?9?$AAC?$AAA@ 0042eb0c     libucrt:lcidtoname_downlevel.obj
 0002:00006b18       ??_C@_1BG@JPOFPNAB@?$AAs?$AAr?$AA?9?$AAS?$AAP?$AA?9?$AAC?$AAy?$AAr?$AAl@ 0042eb18     libucrt:lcidtoname_downlevel.obj
 0002:00006b30       ??_C@_1M@LNFOCMOB@?$AAs?$AAe?$AA?9?$AAF?$AAI@ 0042eb30     libucrt:lcidtoname_downlevel.obj
 0002:00006b3c       ??_C@_1O@MGJBOAMB@?$AAq?$AAu?$AAz?$AA?9?$AAP?$AAE@ 0042eb3c     libucrt:lcidtoname_downlevel.obj
 0002:00006b4c       ??_C@_1M@GJINLBOK@?$AAa?$AAr?$AA?9?$AAL?$AAY@ 0042eb4c     libucrt:lcidtoname_downlevel.obj
 0002:00006b58       ??_C@_1M@GGMNHJNL@?$AAz?$AAh?$AA?9?$AAS?$AAG@ 0042eb58     libucrt:lcidtoname_downlevel.obj
 0002:00006b64       ??_C@_1M@HOIKODND@?$AAd?$AAe?$AA?9?$AAL?$AAU@ 0042eb64     libucrt:lcidtoname_downlevel.obj
 0002:00006b70       ??_C@_1M@DDOCCGFG@?$AAe?$AAn?$AA?9?$AAC?$AAA@ 0042eb70     libucrt:lcidtoname_downlevel.obj
 0002:00006b7c       ??_C@_1M@BNOEMJLF@?$AAe?$AAs?$AA?9?$AAG?$AAT@ 0042eb7c     libucrt:lcidtoname_downlevel.obj
 0002:00006b88       ??_C@_1M@EOGNKEK@?$AAf?$AAr?$AA?9?$AAC?$AAH@ 0042eb88     libucrt:lcidtoname_downlevel.obj
 0002:00006b94       ??_C@_1M@FLIDJFHL@?$AAh?$AAr?$AA?9?$AAB?$AAA@ 0042eb94     libucrt:lcidtoname_downlevel.obj
 0002:00006ba0       ??_C@_1O@FMCELNAJ@?$AAs?$AAm?$AAj?$AA?9?$AAN?$AAO@ 0042eba0     libucrt:lcidtoname_downlevel.obj
 0002:00006bb0       ??_C@_1M@JHGLJMGJ@?$AAa?$AAr?$AA?9?$AAD?$AAZ@ 0042ebb0     libucrt:lcidtoname_downlevel.obj
 0002:00006bbc       ??_C@_1M@JKKFDCNP@?$AAz?$AAh?$AA?9?$AAM?$AAO@ 0042ebbc     libucrt:lcidtoname_downlevel.obj
 0002:00006bc8       ??_C@_1M@GEEFALPE@?$AAd?$AAe?$AA?9?$AAL?$AAI@ 0042ebc8     libucrt:lcidtoname_downlevel.obj
 0002:00006bd4       ??_C@_1M@IGEOFBG@?$AAe?$AAn?$AA?9?$AAN?$AAZ@ 0042ebd4     libucrt:lcidtoname_downlevel.obj
 0002:00006be0       ??_C@_1M@KDBONEHP@?$AAe?$AAs?$AA?9?$AAC?$AAR@ 0042ebe0     libucrt:lcidtoname_downlevel.obj
 0002:00006bec       ??_C@_1M@FHMDOHNN@?$AAf?$AAr?$AA?9?$AAL?$AAU@ 0042ebec     libucrt:lcidtoname_downlevel.obj
 0002:00006bf8       ??_C@_1BG@NFKKMAFG@?$AAb?$AAs?$AA?9?$AAB?$AAA?$AA?9?$AAL?$AAa?$AAt?$AAn@ 0042ebf8     libucrt:lcidtoname_downlevel.obj
 0002:00006c10       ??_C@_1O@IMNBEMCI@?$AAs?$AAm?$AAj?$AA?9?$AAS?$AAE@ 0042ec10     libucrt:lcidtoname_downlevel.obj
 0002:00006c20       ??_C@_1M@DHHMBNDP@?$AAa?$AAr?$AA?9?$AAM?$AAA@ 0042ec20     libucrt:lcidtoname_downlevel.obj
 0002:00006c2c       ??_C@_1M@BNBLJCGH@?$AAe?$AAn?$AA?9?$AAI?$AAE@ 0042ec2c     libucrt:lcidtoname_downlevel.obj
 0002:00006c38       ??_C@_1M@GEPAFMDL@?$AAe?$AAs?$AA?9?$AAP?$AAA@ 0042ec38     libucrt:lcidtoname_downlevel.obj
 0002:00006c44       ??_C@_1M@OJONDMDL@?$AAf?$AAr?$AA?9?$AAM?$AAC@ 0042ec44     libucrt:lcidtoname_downlevel.obj
 0002:00006c50       ??_C@_1BG@OBCNFJB@?$AAs?$AAr?$AA?9?$AAB?$AAA?$AA?9?$AAL?$AAa?$AAt?$AAn@ 0042ec50     libucrt:lcidtoname_downlevel.obj
 0002:00006c68       ??_C@_1O@KEMEEGPO@?$AAs?$AAm?$AAa?$AA?9?$AAN?$AAO@ 0042ec68     libucrt:lcidtoname_downlevel.obj
 0002:00006c78       ??_C@_1M@ELMGFODK@?$AAa?$AAr?$AA?9?$AAT?$AAN@ 0042ec78     libucrt:lcidtoname_downlevel.obj
 0002:00006c84       ??_C@_1M@BHDLHFAF@?$AAe?$AAn?$AA?9?$AAZ?$AAA@ 0042ec84     libucrt:lcidtoname_downlevel.obj
 0002:00006c90       ??_C@_1M@BMGIGLIF@?$AAe?$AAs?$AA?9?$AAD?$AAO@ 0042ec90     libucrt:lcidtoname_downlevel.obj
 0002:00006c9c       ??_C@_1BG@CMBHIPBE@?$AAs?$AAr?$AA?9?$AAB?$AAA?$AA?9?$AAC?$AAy?$AAr?$AAl@ 0042ec9c     libucrt:lcidtoname_downlevel.obj
 0002:00006cb4       ??_C@_1O@HEDBLHNP@?$AAs?$AAm?$AAa?$AA?9?$AAS?$AAE@ 0042ecb4     libucrt:lcidtoname_downlevel.obj
 0002:00006cc4       ??_C@_1M@DAGCADIM@?$AAa?$AAr?$AA?9?$AAO?$AAM@ 0042ecc4     libucrt:lcidtoname_downlevel.obj
 0002:00006cd0       ??_C@_1M@FODLMICG@?$AAe?$AAn?$AA?9?$AAJ?$AAM@ 0042ecd0     libucrt:lcidtoname_downlevel.obj
 0002:00006cdc       ??_C@_1M@DNMLCIHB@?$AAe?$AAs?$AA?9?$AAV?$AAE@ 0042ecdc     libucrt:lcidtoname_downlevel.obj
 0002:00006ce8       ??_C@_1O@EOKHMKJK@?$AAs?$AAm?$AAs?$AA?9?$AAF?$AAI@ 0042ece8     libucrt:lcidtoname_downlevel.obj
 0002:00006cf8       ??_C@_1M@CAFJMKOF@?$AAa?$AAr?$AA?9?$AAY?$AAE@ 0042ecf8     libucrt:lcidtoname_downlevel.obj
 0002:00006d04       ??_C@_1M@CBFHIJLI@?$AAe?$AAn?$AA?9?$AAC?$AAB@ 0042ed04     libucrt:lcidtoname_downlevel.obj
 0002:00006d10       ??_C@_1M@BGNFLDN@?$AAe?$AAs?$AA?9?$AAC?$AAO@ 0042ed10     libucrt:lcidtoname_downlevel.obj
 0002:00006d1c       ??_C@_1O@JMPHMAMC@?$AAs?$AAm?$AAn?$AA?9?$AAF?$AAI@ 0042ed1c     libucrt:lcidtoname_downlevel.obj
 0002:00006d2c       ??_C@_1M@JLANABKE@?$AAa?$AAr?$AA?9?$AAS?$AAY@ 0042ed2c     libucrt:lcidtoname_downlevel.obj
 0002:00006d38       ??_C@_1M@HPKGCFGN@?$AAe?$AAn?$AA?9?$AAB?$AAZ@ 0042ed38     libucrt:lcidtoname_downlevel.obj
 0002:00006d44       ??_C@_1M@OLJCMLGM@?$AAe?$AAs?$AA?9?$AAP?$AAE@ 0042ed44     libucrt:lcidtoname_downlevel.obj
 0002:00006d50       ??_C@_1M@MKKGFKLE@?$AAa?$AAr?$AA?9?$AAJ?$AAO@ 0042ed50     libucrt:lcidtoname_downlevel.obj
 0002:00006d5c       ??_C@_1M@EKPGLDNI@?$AAe?$AAn?$AA?9?$AAT?$AAT@ 0042ed5c     libucrt:lcidtoname_downlevel.obj
 0002:00006d68       ??_C@_1M@OONGHFHE@?$AAe?$AAs?$AA?9?$AAA?$AAR@ 0042ed68     libucrt:lcidtoname_downlevel.obj
 0002:00006d74       ??_C@_1M@OOJFGBHE@?$AAa?$AAr?$AA?9?$AAL?$AAB@ 0042ed74     libucrt:lcidtoname_downlevel.obj
 0002:00006d80       ??_C@_1M@GCEJHNEG@?$AAe?$AAn?$AA?9?$AAZ?$AAW@ 0042ed80     libucrt:lcidtoname_downlevel.obj
 0002:00006d8c       ??_C@_1M@JNOCAHJI@?$AAe?$AAs?$AA?9?$AAE?$AAC@ 0042ed8c     libucrt:lcidtoname_downlevel.obj
 0002:00006d98       ??_C@_1M@JEFHPGGB@?$AAa?$AAr?$AA?9?$AAK?$AAW@ 0042ed98     libucrt:lcidtoname_downlevel.obj
 0002:00006da4       ??_C@_1M@MLKIBJOJ@?$AAe?$AAn?$AA?9?$AAP?$AAH@ 0042eda4     libucrt:lcidtoname_downlevel.obj
 0002:00006db0       ??_C@_1M@BDNIPEND@?$AAe?$AAs?$AA?9?$AAC?$AAL@ 0042edb0     libucrt:lcidtoname_downlevel.obj
 0002:00006dbc       ??_C@_1M@MPNMEKBD@?$AAa?$AAr?$AA?9?$AAA?$AAE@ 0042edbc     libucrt:lcidtoname_downlevel.obj
 0002:00006dc8       ??_C@_1M@KBJALCPI@?$AAe?$AAs?$AA?9?$AAU?$AAY@ 0042edc8     libucrt:lcidtoname_downlevel.obj
 0002:00006dd4       ??_C@_1M@LLCCOAGA@?$AAa?$AAr?$AA?9?$AAB?$AAH@ 0042edd4     libucrt:lcidtoname_downlevel.obj
 0002:00006de0       ??_C@_1M@PBFNCDEL@?$AAe?$AAs?$AA?9?$AAP?$AAY@ 0042ede0     libucrt:lcidtoname_downlevel.obj
 0002:00006dec       ??_C@_1M@EDGINPNP@?$AAa?$AAr?$AA?9?$AAQ?$AAA@ 0042edec     libucrt:lcidtoname_downlevel.obj
 0002:00006df8       ??_C@_1M@MKDBIIJI@?$AAe?$AAs?$AA?9?$AAB?$AAO@ 0042edf8     libucrt:lcidtoname_downlevel.obj
 0002:00006e04       ??_C@_1M@CPKKEBLD@?$AAe?$AAs?$AA?9?$AAS?$AAV@ 0042ee04     libucrt:lcidtoname_downlevel.obj
 0002:00006e10       ??_C@_1M@NDBGMMJL@?$AAe?$AAs?$AA?9?$AAH?$AAN@ 0042ee10     libucrt:lcidtoname_downlevel.obj
 0002:00006e1c       ??_C@_1M@JIJIBHDP@?$AAe?$AAs?$AA?9?$AAN?$AAI@ 0042ee1c     libucrt:lcidtoname_downlevel.obj
 0002:00006e28       ??_C@_1M@CGFMKEEK@?$AAe?$AAs?$AA?9?$AAP?$AAR@ 0042ee28     libucrt:lcidtoname_downlevel.obj
 0002:00006e34       ??_C@_1O@ICJHKIIK@?$AAz?$AAh?$AA?9?$AAC?$AAH?$AAT@ 0042ee34     libucrt:lcidtoname_downlevel.obj
 0002:00006e44       ??_C@_15CLNEJCE@?$AAs?$AAr@ 0042ee44     libucrt:lcidtoname_downlevel.obj
 0002:00007570       ??_C@_1M@KAHEKEIG@?$AAa?$AAf?$AA?9?$AAz?$AAa@ 0042f570     libucrt:lcidtoname_downlevel.obj
 0002:0000757c       ??_C@_1M@GIECOABL@?$AAa?$AAr?$AA?9?$AAa?$AAe@ 0042f57c     libucrt:lcidtoname_downlevel.obj
 0002:00007588       ??_C@_1M@BMLMEKGI@?$AAa?$AAr?$AA?9?$AAb?$AAh@ 0042f588     libucrt:lcidtoname_downlevel.obj
 0002:00007594       ??_C@_1M@DAPFDGGB@?$AAa?$AAr?$AA?9?$AAd?$AAz@ 0042f594     libucrt:lcidtoname_downlevel.obj
 0002:000075a0       ??_C@_1M@FJNKGKIG@?$AAa?$AAr?$AA?9?$AAe?$AAg@ 0042f5a0     libucrt:lcidtoname_downlevel.obj
 0002:000075ac       ??_C@_1M@FLGKKCLO@?$AAa?$AAr?$AA?9?$AAi?$AAq@ 0042f5ac     libucrt:lcidtoname_downlevel.obj
 0002:000075b8       ??_C@_1M@GNDIPALM@?$AAa?$AAr?$AA?9?$AAj?$AAo@ 0042f5b8     libucrt:lcidtoname_downlevel.obj
 0002:000075c4       ??_C@_1M@DDMJFMGJ@?$AAa?$AAr?$AA?9?$AAk?$AAw@ 0042f5c4     libucrt:lcidtoname_downlevel.obj
 0002:000075d0       ??_C@_1M@EJALMLHM@?$AAa?$AAr?$AA?9?$AAl?$AAb@ 0042f5d0     libucrt:lcidtoname_downlevel.obj
 0002:000075dc       ??_C@_1M@MOBDBLOC@?$AAa?$AAr?$AA?9?$AAl?$AAy@ 0042f5dc     libucrt:lcidtoname_downlevel.obj
 0002:000075e8       ??_C@_1M@JAOCLHDH@?$AAa?$AAr?$AA?9?$AAm?$AAa@ 0042f5e8     libucrt:lcidtoname_downlevel.obj
 0002:000075f4       ??_C@_1M@JHPMKJIE@?$AAa?$AAr?$AA?9?$AAo?$AAm@ 0042f5f4     libucrt:lcidtoname_downlevel.obj
 0002:00007600       ??_C@_1M@OEPGHFNH@?$AAa?$AAr?$AA?9?$AAq?$AAa@ 0042f600     libucrt:lcidtoname_downlevel.obj
 0002:0000760c       ??_C@_1M@KJDONENM@?$AAa?$AAr?$AA?9?$AAs?$AAa@ 0042f60c     libucrt:lcidtoname_downlevel.obj
 0002:00007618       ??_C@_1M@DMJDKLKM@?$AAa?$AAr?$AA?9?$AAs?$AAy@ 0042f618     libucrt:lcidtoname_downlevel.obj
 0002:00007624       ??_C@_1M@OMFIPEDC@?$AAa?$AAr?$AA?9?$AAt?$AAn@ 0042f624     libucrt:lcidtoname_downlevel.obj
 0002:00007630       ??_C@_1M@IHMHGAON@?$AAa?$AAr?$AA?9?$AAy?$AAe@ 0042f630     libucrt:lcidtoname_downlevel.obj
 0002:0000763c       ??_C@_1BG@KDCPGJGB@?$AAa?$AAz?$AA?9?$AAa?$AAz?$AA?9?$AAc?$AAy?$AAr?$AAl@ 0042f63c     libucrt:lcidtoname_downlevel.obj
 0002:00007654       ??_C@_1BG@IBCKDDOE@?$AAa?$AAz?$AA?9?$AAa?$AAz?$AA?9?$AAl?$AAa?$AAt?$AAn@ 0042f654     libucrt:lcidtoname_downlevel.obj
 0002:0000766c       ??_C@_1M@EGPFDCPD@?$AAb?$AAe?$AA?9?$AAb?$AAy@ 0042f66c     libucrt:lcidtoname_downlevel.obj
 0002:00007678       ??_C@_1M@PCMGMCGC@?$AAb?$AAg?$AA?9?$AAb?$AAg@ 0042f678     libucrt:lcidtoname_downlevel.obj
 0002:00007684       ??_C@_1M@BJBMFGOB@?$AAb?$AAn?$AA?9?$AAi?$AAn@ 0042f684     libucrt:lcidtoname_downlevel.obj
 0002:00007690       ??_C@_1BG@EAKMMACD@?$AAb?$AAs?$AA?9?$AAb?$AAa?$AA?9?$AAl?$AAa?$AAt?$AAn@ 0042f690     libucrt:lcidtoname_downlevel.obj
 0002:000076a8       ??_C@_1M@KGADAODK@?$AAc?$AAa?$AA?9?$AAe?$AAs@ 0042f6a8     libucrt:lcidtoname_downlevel.obj
 0002:000076b4       ??_C@_1M@COAJPDHI@?$AAc?$AAs?$AA?9?$AAc?$AAz@ 0042f6b4     libucrt:lcidtoname_downlevel.obj
 0002:000076c0       ??_C@_1M@DHBHFONH@?$AAc?$AAy?$AA?9?$AAg?$AAb@ 0042f6c0     libucrt:lcidtoname_downlevel.obj
 0002:000076cc       ??_C@_1M@IMGKELGA@?$AAd?$AAa?$AA?9?$AAd?$AAk@ 0042f6cc     libucrt:lcidtoname_downlevel.obj
 0002:000076d8       ??_C@_1M@NNDGDNGA@?$AAd?$AAe?$AA?9?$AAa?$AAt@ 0042f6d8     libucrt:lcidtoname_downlevel.obj
 0002:000076e4       ??_C@_1M@IKDBHEEM@?$AAd?$AAe?$AA?9?$AAc?$AAh@ 0042f6e4     libucrt:lcidtoname_downlevel.obj
 0002:000076f0       ??_C@_1M@GFFOJMCJ@?$AAd?$AAe?$AA?9?$AAd?$AAe@ 0042f6f0     libucrt:lcidtoname_downlevel.obj
 0002:000076fc       ??_C@_1M@MDNLKBPM@?$AAd?$AAe?$AA?9?$AAl?$AAi@ 0042f6fc     libucrt:lcidtoname_downlevel.obj
 0002:00007708       ??_C@_1M@NJBEEJNL@?$AAd?$AAe?$AA?9?$AAl?$AAu@ 0042f708     libucrt:lcidtoname_downlevel.obj
 0002:00007714       ??_C@_1O@GNNELBAP@?$AAd?$AAi?$AAv?$AA?9?$AAm?$AAv@ 0042f714     libucrt:lcidtoname_downlevel.obj
 0002:00007724       ??_C@_1M@EJLEOGAE@?$AAe?$AAl?$AA?9?$AAg?$AAr@ 0042f724     libucrt:lcidtoname_downlevel.obj
 0002:00007730       ??_C@_1M@GMPONJN@?$AAe?$AAn?$AA?9?$AAa?$AAu@ 0042f730     libucrt:lcidtoname_downlevel.obj
 0002:0000773c       ??_C@_1M@NIDIIPGF@?$AAe?$AAn?$AA?9?$AAb?$AAz@ 0042f73c     libucrt:lcidtoname_downlevel.obj
 0002:00007748       ??_C@_1M@JEHMIMFO@?$AAe?$AAn?$AA?9?$AAc?$AAa@ 0042f748     libucrt:lcidtoname_downlevel.obj
 0002:00007754       ??_C@_1M@IGMJCDLA@?$AAe?$AAn?$AA?9?$AAc?$AAb@ 0042f754     libucrt:lcidtoname_downlevel.obj
 0002:00007760       ??_C@_1M@BNFIGBKG@?$AAe?$AAn?$AA?9?$AAg?$AAb@ 0042f760     libucrt:lcidtoname_downlevel.obj
 0002:0000776c       ??_C@_1M@LKIFDIGP@?$AAe?$AAn?$AA?9?$AAi?$AAe@ 0042f76c     libucrt:lcidtoname_downlevel.obj
 0002:00007778       ??_C@_1M@PJKFGCCO@?$AAe?$AAn?$AA?9?$AAj?$AAm@ 0042f778     libucrt:lcidtoname_downlevel.obj
 0002:00007784       ??_C@_1M@KPPKEPBO@?$AAe?$AAn?$AA?9?$AAn?$AAz@ 0042f784     libucrt:lcidtoname_downlevel.obj
 0002:00007790       ??_C@_1M@GMDGLDOB@?$AAe?$AAn?$AA?9?$AAp?$AAh@ 0042f790     libucrt:lcidtoname_downlevel.obj
 0002:0000779c       ??_C@_1M@ONGIBJNA@?$AAe?$AAn?$AA?9?$AAt?$AAt@ 0042f79c     libucrt:lcidtoname_downlevel.obj
 0002:000077a8       ??_C@_1M@LLODPCMM@?$AAe?$AAn?$AA?9?$AAu?$AAs@ 0042f7a8     libucrt:lcidtoname_downlevel.obj
 0002:000077b4       ??_C@_1M@LAKFNPAN@?$AAe?$AAn?$AA?9?$AAz?$AAa@ 0042f7b4     libucrt:lcidtoname_downlevel.obj
 0002:000077c0       ??_C@_1M@MFNHNHEO@?$AAe?$AAn?$AA?9?$AAz?$AAw@ 0042f7c0     libucrt:lcidtoname_downlevel.obj
 0002:000077cc       ??_C@_1M@EJEINPHM@?$AAe?$AAs?$AA?9?$AAa?$AAr@ 0042f7cc     libucrt:lcidtoname_downlevel.obj
 0002:000077d8       ??_C@_1M@GNKPCCJA@?$AAe?$AAs?$AA?9?$AAb?$AAo@ 0042f7d8     libucrt:lcidtoname_downlevel.obj
 0002:000077e4       ??_C@_1M@LEEGFONL@?$AAe?$AAs?$AA?9?$AAc?$AAl@ 0042f7e4     libucrt:lcidtoname_downlevel.obj
 0002:000077f0       ??_C@_1M@KGPDPBDF@?$AAe?$AAs?$AA?9?$AAc?$AAo@ 0042f7f0     libucrt:lcidtoname_downlevel.obj
 0002:000077fc       ??_C@_1M@EIAHOHH@?$AAe?$AAs?$AA?9?$AAc?$AAr@ 0042f7fc     libucrt:lcidtoname_downlevel.obj
 0002:00007808       ??_C@_1M@LLPGMBIN@?$AAe?$AAs?$AA?9?$AAd?$AAo@ 0042f808     libucrt:lcidtoname_downlevel.obj
 0002:00007814       ??_C@_1M@DKHMKNJA@?$AAe?$AAs?$AA?9?$AAe?$AAc@ 0042f814     libucrt:lcidtoname_downlevel.obj
 0002:00007820       ??_C@_1M@GKGFPKAP@?$AAe?$AAs?$AA?9?$AAe?$AAs@ 0042f820     libucrt:lcidtoname_downlevel.obj
 0002:0000782c       ??_C@_1M@LKHKGDLN@?$AAe?$AAs?$AA?9?$AAg?$AAt@ 0042f82c     libucrt:lcidtoname_downlevel.obj
 0002:00007838       ??_C@_1M@HEIIGGJD@?$AAe?$AAs?$AA?9?$AAh?$AAn@ 0042f838     libucrt:lcidtoname_downlevel.obj
 0002:00007844       ??_C@_1M@FBDHPPGD@?$AAe?$AAs?$AA?9?$AAm?$AAx@ 0042f844     libucrt:lcidtoname_downlevel.obj
 0002:00007850       ??_C@_1M@DPAGLNDH@?$AAe?$AAs?$AA?9?$AAn?$AAi@ 0042f850     libucrt:lcidtoname_downlevel.obj
 0002:0000785c       ??_C@_1M@MDGOPGDD@?$AAe?$AAs?$AA?9?$AAp?$AAa@ 0042f85c     libucrt:lcidtoname_downlevel.obj
 0002:00007868       ??_C@_1M@EMAMGBGE@?$AAe?$AAs?$AA?9?$AAp?$AAe@ 0042f868     libucrt:lcidtoname_downlevel.obj
 0002:00007874       ??_C@_1M@IBMCAOEC@?$AAe?$AAs?$AA?9?$AAp?$AAr@ 0042f874     libucrt:lcidtoname_downlevel.obj
 0002:00007880       ??_C@_1M@FGMDIJED@?$AAe?$AAs?$AA?9?$AAp?$AAy@ 0042f880     libucrt:lcidtoname_downlevel.obj
 0002:0000788c       ??_C@_1M@IIDEOLLL@?$AAe?$AAs?$AA?9?$AAs?$AAv@ 0042f88c     libucrt:lcidtoname_downlevel.obj
 0002:00007898       ??_C@_1M@GAOBIPA@?$AAe?$AAs?$AA?9?$AAu?$AAy@ 0042f898     libucrt:lcidtoname_downlevel.obj
 0002:000078a4       ??_C@_1M@JKFFICHJ@?$AAe?$AAs?$AA?9?$AAv?$AAe@ 0042f8a4     libucrt:lcidtoname_downlevel.obj
 0002:000078b0       ??_C@_1M@PNMLOJDF@?$AAe?$AAt?$AA?9?$AAe?$AAe@ 0042f8b0     libucrt:lcidtoname_downlevel.obj
 0002:000078bc       ??_C@_1M@GHHLIKEI@?$AAe?$AAu?$AA?9?$AAe?$AAs@ 0042f8bc     libucrt:lcidtoname_downlevel.obj
 0002:000078c8       ??_C@_1M@PBNONODE@?$AAf?$AAa?$AA?9?$AAi?$AAr@ 0042f8c8     libucrt:lcidtoname_downlevel.obj
 0002:000078d4       ??_C@_1M@JEEHPMIL@?$AAf?$AAi?$AA?9?$AAf?$AAi@ 0042f8d4     libucrt:lcidtoname_downlevel.obj
 0002:000078e0       ??_C@_1M@LMDCNDBA@?$AAf?$AAo?$AA?9?$AAf?$AAo@ 0042f8e0     libucrt:lcidtoname_downlevel.obj
 0002:000078ec       ??_C@_1M@JKEOHLDK@?$AAf?$AAr?$AA?9?$AAb?$AAe@ 0042f8ec     libucrt:lcidtoname_downlevel.obj
 0002:000078f8       ??_C@_1M@NOHADPMI@?$AAf?$AAr?$AA?9?$AAc?$AAa@ 0042f8f8     libucrt:lcidtoname_downlevel.obj
 0002:00007904       ??_C@_1M@KDHIHAEC@?$AAf?$AAr?$AA?9?$AAc?$AAh@ 0042f904     libucrt:lcidtoname_downlevel.obj
 0002:00007910       ??_C@_1M@MMBBFGAK@?$AAf?$AAr?$AA?9?$AAf?$AAr@ 0042f910     libucrt:lcidtoname_downlevel.obj
 0002:0000791c       ??_C@_1M@PAFNENNF@?$AAf?$AAr?$AA?9?$AAl?$AAu@ 0042f91c     libucrt:lcidtoname_downlevel.obj
 0002:00007928       ??_C@_1M@EOHDJGDD@?$AAf?$AAr?$AA?9?$AAm?$AAc@ 0042f928     libucrt:lcidtoname_downlevel.obj
 0002:00007934       ??_C@_1M@FAPLLOPF@?$AAg?$AAl?$AA?9?$AAe?$AAs@ 0042f934     libucrt:lcidtoname_downlevel.obj
 0002:00007940       ??_C@_1M@FOPBFLOO@?$AAg?$AAu?$AA?9?$AAi?$AAn@ 0042f940     libucrt:lcidtoname_downlevel.obj
 0002:0000794c       ??_C@_1M@KBMCINPM@?$AAh?$AAe?$AA?9?$AAi?$AAl@ 0042f94c     libucrt:lcidtoname_downlevel.obj
 0002:00007958       ??_C@_1M@BBPHKFPJ@?$AAh?$AAi?$AA?9?$AAi?$AAn@ 0042f958     libucrt:lcidtoname_downlevel.obj
 0002:00007964       ??_C@_1M@PMBNDPHD@?$AAh?$AAr?$AA?9?$AAb?$AAa@ 0042f964     libucrt:lcidtoname_downlevel.obj
 0002:00007970       ??_C@_1M@BPCKOEGE@?$AAh?$AAr?$AA?9?$AAh?$AAr@ 0042f970     libucrt:lcidtoname_downlevel.obj
 0002:0000797c       ??_C@_1M@GACBMHKE@?$AAh?$AAu?$AA?9?$AAh?$AAu@ 0042f97c     libucrt:lcidtoname_downlevel.obj
 0002:00007988       ??_C@_1M@MILPAJJC@?$AAh?$AAy?$AA?9?$AAa?$AAm@ 0042f988     libucrt:lcidtoname_downlevel.obj
 0002:00007994       ??_C@_1M@BABBICEC@?$AAi?$AAd?$AA?9?$AAi?$AAd@ 0042f994     libucrt:lcidtoname_downlevel.obj
 0002:000079a0       ??_C@_1M@BIKNHHPF@?$AAi?$AAs?$AA?9?$AAi?$AAs@ 0042f9a0     libucrt:lcidtoname_downlevel.obj
 0002:000079ac       ??_C@_1M@NMPCJPHE@?$AAi?$AAt?$AA?9?$AAc?$AAh@ 0042f9ac     libucrt:lcidtoname_downlevel.obj
 0002:000079b8       ??_C@_1M@GHKGFEDF@?$AAi?$AAt?$AA?9?$AAi?$AAt@ 0042f9b8     libucrt:lcidtoname_downlevel.obj
 0002:000079c4       ??_C@_1M@NIEJCJJA@?$AAj?$AAa?$AA?9?$AAj?$AAp@ 0042f9c4     libucrt:lcidtoname_downlevel.obj
 0002:000079d0       ??_C@_1M@JILFNBIM@?$AAk?$AAa?$AA?9?$AAg?$AAe@ 0042f9d0     libucrt:lcidtoname_downlevel.obj
 0002:000079dc       ??_C@_1M@PACPMGPH@?$AAk?$AAk?$AA?9?$AAk?$AAz@ 0042f9dc     libucrt:lcidtoname_downlevel.obj
 0002:000079e8       ??_C@_1M@IELFGMHA@?$AAk?$AAn?$AA?9?$AAi?$AAn@ 0042f9e8     libucrt:lcidtoname_downlevel.obj
 0002:000079f4       ??_C@_1O@IBBJHCH@?$AAk?$AAo?$AAk?$AA?9?$AAi?$AAn@ 0042f9f4     libucrt:lcidtoname_downlevel.obj
 0002:00007a04       ??_C@_1M@DMHAEOGC@?$AAk?$AAo?$AA?9?$AAk?$AAr@ 0042fa04     libucrt:lcidtoname_downlevel.obj
 0002:00007a10       ??_C@_1M@HBAHBIGA@?$AAk?$AAy?$AA?9?$AAk?$AAg@ 0042fa10     libucrt:lcidtoname_downlevel.obj
 0002:00007a1c       ??_C@_1M@KPMILCJG@?$AAl?$AAt?$AA?9?$AAl?$AAt@ 0042fa1c     libucrt:lcidtoname_downlevel.obj
 0002:00007a28       ??_C@_1M@BDEKKCA@?$AAl?$AAv?$AA?9?$AAl?$AAv@ 0042fa28     libucrt:lcidtoname_downlevel.obj
 0002:00007a34       ??_C@_1M@ELCKCCJJ@?$AAm?$AAi?$AA?9?$AAn?$AAz@ 0042fa34     libucrt:lcidtoname_downlevel.obj
 0002:00007a40       ??_C@_1M@CBOOLAPA@?$AAm?$AAk?$AA?9?$AAm?$AAk@ 0042fa40     libucrt:lcidtoname_downlevel.obj
 0002:00007a4c       ??_C@_1M@GPHNBJKN@?$AAm?$AAl?$AA?9?$AAi?$AAn@ 0042fa4c     libucrt:lcidtoname_downlevel.obj
 0002:00007a58       ??_C@_1M@PABJILIG@?$AAm?$AAn?$AA?9?$AAm?$AAn@ 0042fa58     libucrt:lcidtoname_downlevel.obj
 0002:00007a64       ??_C@_1M@FGBKKIPG@?$AAm?$AAr?$AA?9?$AAi?$AAn@ 0042fa64     libucrt:lcidtoname_downlevel.obj
 0002:00007a70       ??_C@_1M@NDBPDDAL@?$AAm?$AAs?$AA?9?$AAb?$AAn@ 0042fa70     libucrt:lcidtoname_downlevel.obj
 0002:00007a7c       ??_C@_1M@OPIHOOPI@?$AAm?$AAs?$AA?9?$AAm?$AAy@ 0042fa7c     libucrt:lcidtoname_downlevel.obj
 0002:00007a88       ??_C@_1M@PPDBCNFM@?$AAm?$AAt?$AA?9?$AAm?$AAt@ 0042fa88     libucrt:lcidtoname_downlevel.obj
 0002:00007a94       ??_C@_1M@KDJDKMDD@?$AAn?$AAb?$AA?9?$AAn?$AAo@ 0042fa94     libucrt:lcidtoname_downlevel.obj
 0002:00007aa0       ??_C@_1M@KFCFLMJP@?$AAn?$AAl?$AA?9?$AAb?$AAe@ 0042faa0     libucrt:lcidtoname_downlevel.obj
 0002:00007aac       ??_C@_1M@KPOPDDGO@?$AAn?$AAl?$AA?9?$AAn?$AAl@ 0042faac     libucrt:lcidtoname_downlevel.obj
 0002:00007ab8       ??_C@_1M@LJKPEMLN@?$AAn?$AAn?$AA?9?$AAn?$AAo@ 0042fab8     libucrt:lcidtoname_downlevel.obj
 0002:00007ac4       ??_C@_1M@BDGHHBFL@?$AAn?$AAs?$AA?9?$AAz?$AAa@ 0042fac4     libucrt:lcidtoname_downlevel.obj
 0002:00007ad0       ??_C@_1M@IDEHOAP@?$AAp?$AAa?$AA?9?$AAi?$AAn@ 0042fad0     libucrt:lcidtoname_downlevel.obj
 0002:00007adc       ??_C@_1M@HDBKGOGH@?$AAp?$AAl?$AA?9?$AAp?$AAl@ 0042fadc     libucrt:lcidtoname_downlevel.obj
 0002:00007ae8       ??_C@_1M@LJLLCMEH@?$AAp?$AAt?$AA?9?$AAb?$AAr@ 0042fae8     libucrt:lcidtoname_downlevel.obj
 0002:00007af4       ??_C@_1M@NCMONAAL@?$AAp?$AAt?$AA?9?$AAp?$AAt@ 0042faf4     libucrt:lcidtoname_downlevel.obj
 0002:00007b00       ??_C@_1O@EAKMAJDN@?$AAq?$AAu?$AAz?$AA?9?$AAb?$AAo@ 0042fb00     libucrt:lcidtoname_downlevel.obj
 0002:00007b10       ??_C@_1O@BHHPIGDN@?$AAq?$AAu?$AAz?$AA?9?$AAe?$AAc@ 0042fb10     libucrt:lcidtoname_downlevel.obj
 0002:00007b20       ??_C@_1O@GBAPEKMJ@?$AAq?$AAu?$AAz?$AA?9?$AAp?$AAe@ 0042fb20     libucrt:lcidtoname_downlevel.obj
 0002:00007b30       ??_C@_1M@CLGLEFBO@?$AAr?$AAo?$AA?9?$AAr?$AAo@ 0042fb30     libucrt:lcidtoname_downlevel.obj
 0002:00007b3c       ??_C@_1M@CEEDODME@?$AAr?$AAu?$AA?9?$AAr?$AAu@ 0042fb3c     libucrt:lcidtoname_downlevel.obj
 0002:00007b48       ??_C@_1M@HPKKKMPP@?$AAs?$AAa?$AA?9?$AAi?$AAn@ 0042fb48     libucrt:lcidtoname_downlevel.obj
 0002:00007b54       ??_C@_1M@BKMAIGOJ@?$AAs?$AAe?$AA?9?$AAf?$AAi@ 0042fb54     libucrt:lcidtoname_downlevel.obj
 0002:00007b60       ??_C@_1M@NDPIFLFI@?$AAs?$AAe?$AA?9?$AAn?$AAo@ 0042fb60     libucrt:lcidtoname_downlevel.obj
 0002:00007b6c       ??_C@_1M@DANKKHJ@?$AAs?$AAe?$AA?9?$AAs?$AAe@ 0042fb6c     libucrt:lcidtoname_downlevel.obj
 0002:00007b78       ??_C@_1M@PNBLONPJ@?$AAs?$AAk?$AA?9?$AAs?$AAk@ 0042fb78     libucrt:lcidtoname_downlevel.obj
 0002:00007b84       ??_C@_1M@LFMODOAL@?$AAs?$AAl?$AA?9?$AAs?$AAi@ 0042fb84     libucrt:lcidtoname_downlevel.obj
 0002:00007b90       ??_C@_1O@DFKOMPG@?$AAs?$AAm?$AAa?$AA?9?$AAn?$AAo@ 0042fb90     libucrt:lcidtoname_downlevel.obj
 0002:00007ba0       ??_C@_1O@NDKPBNNH@?$AAs?$AAm?$AAa?$AA?9?$AAs?$AAe@ 0042fba0     libucrt:lcidtoname_downlevel.obj
 0002:00007bb0       ??_C@_1O@PLLKBHAB@?$AAs?$AAm?$AAj?$AA?9?$AAn?$AAo@ 0042fbb0     libucrt:lcidtoname_downlevel.obj
 0002:00007bc0       ??_C@_1O@CLEPOGCA@?$AAs?$AAm?$AAj?$AA?9?$AAs?$AAe@ 0042fbc0     libucrt:lcidtoname_downlevel.obj
 0002:00007bd0       ??_C@_1O@DLGJGKMK@?$AAs?$AAm?$AAn?$AA?9?$AAf?$AAi@ 0042fbd0     libucrt:lcidtoname_downlevel.obj
 0002:00007be0       ??_C@_1O@OJDJGAJC@?$AAs?$AAm?$AAs?$AA?9?$AAf?$AAi@ 0042fbe0     libucrt:lcidtoname_downlevel.obj
 0002:00007bf0       ??_C@_1M@BOFOGHPB@?$AAs?$AAq?$AA?9?$AAa?$AAl@ 0042fbf0     libucrt:lcidtoname_downlevel.obj
 0002:00007bfc       ??_C@_1BG@LJBBIPGB@?$AAs?$AAr?$AA?9?$AAb?$AAa?$AA?9?$AAc?$AAy?$AAr?$AAl@ 0042fbfc     libucrt:lcidtoname_downlevel.obj
 0002:00007c14       ??_C@_1BG@JLBENFOE@?$AAs?$AAr?$AA?9?$AAb?$AAa?$AA?9?$AAl?$AAa?$AAt?$AAn@ 0042fc14     libucrt:lcidtoname_downlevel.obj
 0002:00007c2c       ??_C@_1BG@KODPNHE@?$AAs?$AAr?$AA?9?$AAs?$AAp?$AA?9?$AAc?$AAy?$AAr?$AAl@ 0042fc2c     libucrt:lcidtoname_downlevel.obj
 0002:00007c44       ??_C@_1BG@CIOGKHPB@?$AAs?$AAr?$AA?9?$AAs?$AAp?$AA?9?$AAl?$AAa?$AAt?$AAn@ 0042fc44     libucrt:lcidtoname_downlevel.obj
 0002:00007c5c       ??_C@_1M@NGFJLMAC@?$AAs?$AAv?$AA?9?$AAf?$AAi@ 0042fc5c     libucrt:lcidtoname_downlevel.obj
 0002:00007c68       ??_C@_1M@MPJEJAJC@?$AAs?$AAv?$AA?9?$AAs?$AAe@ 0042fc68     libucrt:lcidtoname_downlevel.obj
 0002:00007c74       ??_C@_1M@MPNDHLFK@?$AAs?$AAw?$AA?9?$AAk?$AAe@ 0042fc74     libucrt:lcidtoname_downlevel.obj
 0002:00007c80       ??_C@_1O@KOHBJJI@?$AAs?$AAy?$AAr?$AA?9?$AAs?$AAy@ 0042fc80     libucrt:lcidtoname_downlevel.obj
 0002:00007c90       ??_C@_1M@LDCEFHA@?$AAt?$AAa?$AA?9?$AAi?$AAn@ 0042fc90     libucrt:lcidtoname_downlevel.obj
 0002:00007c9c       ??_C@_1M@CNJOFAK@?$AAt?$AAe?$AA?9?$AAi?$AAn@ 0042fc9c     libucrt:lcidtoname_downlevel.obj
 0002:00007ca8       ??_C@_1M@GNAECACD@?$AAt?$AAh?$AA?9?$AAt?$AAh@ 0042fca8     libucrt:lcidtoname_downlevel.obj
 0002:00007cb4       ??_C@_1M@CHBIHOJO@?$AAt?$AAn?$AA?9?$AAz?$AAa@ 0042fcb4     libucrt:lcidtoname_downlevel.obj
 0002:00007cc0       ??_C@_1M@GCCMIGPJ@?$AAt?$AAr?$AA?9?$AAt?$AAr@ 0042fcc0     libucrt:lcidtoname_downlevel.obj
 0002:00007ccc       ??_C@_1M@CELMCNBK@?$AAt?$AAt?$AA?9?$AAr?$AAu@ 0042fccc     libucrt:lcidtoname_downlevel.obj
 0002:00007cd8       ??_C@_1M@KLMCELGA@?$AAu?$AAk?$AA?9?$AAu?$AAa@ 0042fcd8     libucrt:lcidtoname_downlevel.obj
 0002:00007ce4       ??_C@_1M@EPAJJAJF@?$AAu?$AAr?$AA?9?$AAp?$AAk@ 0042fce4     libucrt:lcidtoname_downlevel.obj
 0002:00007cf0       ??_C@_1BG@GEGPMCDJ@?$AAu?$AAz?$AA?9?$AAu?$AAz?$AA?9?$AAc?$AAy?$AAr?$AAl@ 0042fcf0     libucrt:lcidtoname_downlevel.obj
 0002:00007d08       ??_C@_1BG@EGGKJILM@?$AAu?$AAz?$AA?9?$AAu?$AAz?$AA?9?$AAl?$AAa?$AAt?$AAn@ 0042fd08     libucrt:lcidtoname_downlevel.obj
 0002:00007d20       ??_C@_1M@GFOCLFF@?$AAv?$AAi?$AA?9?$AAv?$AAn@ 0042fd20     libucrt:lcidtoname_downlevel.obj
 0002:00007d2c       ??_C@_1M@CPAMEDFI@?$AAx?$AAh?$AA?9?$AAz?$AAa@ 0042fd2c     libucrt:lcidtoname_downlevel.obj
 0002:00007d38       ??_C@_1O@EBKIFIGN@?$AAz?$AAh?$AA?9?$AAc?$AAh?$AAs@ 0042fd38     libucrt:lcidtoname_downlevel.obj
 0002:00007d48       ??_C@_1O@NMHPGANE@?$AAz?$AAh?$AA?9?$AAc?$AAh?$AAt@ 0042fd48     libucrt:lcidtoname_downlevel.obj
 0002:00007d58       ??_C@_1M@LPINJOMC@?$AAz?$AAh?$AA?9?$AAc?$AAn@ 0042fd58     libucrt:lcidtoname_downlevel.obj
 0002:00007d64       ??_C@_1M@OCJEJODD@?$AAz?$AAh?$AA?9?$AAh?$AAk@ 0042fd64     libucrt:lcidtoname_downlevel.obj
 0002:00007d70       ??_C@_1M@DNDLJINH@?$AAz?$AAh?$AA?9?$AAm?$AAo@ 0042fd70     libucrt:lcidtoname_downlevel.obj
 0002:00007d7c       ??_C@_1M@MBFDNDND@?$AAz?$AAh?$AA?9?$AAs?$AAg@ 0042fd7c     libucrt:lcidtoname_downlevel.obj
 0002:00007d88       ??_C@_1M@IMEPLEPE@?$AAz?$AAh?$AA?9?$AAt?$AAw@ 0042fd88     libucrt:lcidtoname_downlevel.obj
 0002:00007d94       ??_C@_1M@BBGHNHJP@?$AAz?$AAu?$AA?9?$AAz?$AAa@ 0042fd94     libucrt:lcidtoname_downlevel.obj
 0002:00007df8       ??_C@_1BA@BALFACEM@?$AAC?$AAO?$AAN?$AAO?$AAU?$AAT?$AA$@ 0042fdf8     libucrt:initcon.obj
 0002:00007f10       __infinity                 0042ff10     libucrt:87tran.obj
 0002:00007f1a       __minfinity                0042ff1a     libucrt:87tran.obj
 0002:00007f24       __logemax                  0042ff24     libucrt:87tran.obj
 0002:00007f4a       __OP_EXPjmptab             0042ff4a     libucrt:87tran.obj
 0002:00007f70       __indefinite               0042ff70     libucrt:87disp.obj
 0002:00007f7a       __piby2                    0042ff7a     libucrt:87disp.obj
 0002:00007f84       __piby4                    0042ff84     libucrt:87disp.obj
 0002:00007fb8       __DEFAULT_CW_in_mem        0042ffb8     libucrt:common.obj
 0002:00007fba       __pi_by_2_to_61            0042ffba     libucrt:common.obj
 0002:00008000       ___acrt_log10_table_t      00430000     libucrt:log10_tables.obj
 0002:00008410       ___acrt_log10_table_cb     00430410     libucrt:log10_tables.obj
 0002:00008820       __real@3fe0000000000000    00430820     libucrt:powhlp.obj
 0002:00008840       __xmm@00000000000000000000000000000000 00430840     libvcruntime:wcschr.obj
 0002:00008850       __Asan_string_should_annotate 00430850     libcpmt:asan_noop.obj
 0002:00008850       __Asan_string_should_annotate_default 00430850     libcpmt:asan_noop.obj
 0002:00008851       __Asan_vector_should_annotate_default 00430851     libcpmt:asan_noop.obj
 0002:00008858       __load_config_used         00430858     LIBCMT:loadcfg.obj
 0002:00008980       __tls_used                 00430980     LIBCMT:tlssup.obj
 0002:00008998       ??_R4exception@std@@6B@    00430998     cts_mysql.obj
 0002:000089ac       ??_R3exception@std@@8      004309ac     cts_mysql.obj
 0002:000089bc       ??_R2exception@std@@8      004309bc     cts_mysql.obj
 0002:000089c4       ??_R1A@?0A@EA@exception@std@@8 004309c4     cts_mysql.obj
 0002:000089e0       ??_R4bad_alloc@std@@6B@    004309e0     cts_mysql.obj
 0002:000089f4       ??_R3bad_alloc@std@@8      004309f4     cts_mysql.obj
 0002:00008a04       ??_R2bad_alloc@std@@8      00430a04     cts_mysql.obj
 0002:00008a10       ??_R1A@?0A@EA@bad_alloc@std@@8 00430a10     cts_mysql.obj
 0002:00008a2c       ??_R4bad_array_new_length@std@@6B@ 00430a2c     cts_mysql.obj
 0002:00008a40       ??_R3bad_array_new_length@std@@8 00430a40     cts_mysql.obj
 0002:00008a50       ??_R2bad_array_new_length@std@@8 00430a50     cts_mysql.obj
 0002:00008a60       ??_R1A@?0A@EA@bad_array_new_length@std@@8 00430a60     cts_mysql.obj
 0002:00008a7c       ??_R4runtime_error@std@@6B@ 00430a7c     TimeLog.obj
 0002:00008a90       ??_R3runtime_error@std@@8  00430a90     TimeLog.obj
 0002:00008aa0       ??_R2runtime_error@std@@8  00430aa0     TimeLog.obj
 0002:00008aac       ??_R1A@?0A@EA@runtime_error@std@@8 00430aac     TimeLog.obj
 0002:00008ac8       ??_R3error_category@std@@8 00430ac8     TimeLog.obj
 0002:00008ad8       ??_R2error_category@std@@8 00430ad8     TimeLog.obj
 0002:00008ae0       ??_R1A@?0A@EA@error_category@std@@8 00430ae0     TimeLog.obj
 0002:00008afc       ??_R4_System_error@std@@6B@ 00430afc     TimeLog.obj
 0002:00008b10       ??_R3_System_error@std@@8  00430b10     TimeLog.obj
 0002:00008b20       ??_R2_System_error@std@@8  00430b20     TimeLog.obj
 0002:00008b30       ??_R1A@?0A@EA@_System_error@std@@8 00430b30     TimeLog.obj
 0002:00008b4c       ??_R4system_error@std@@6B@ 00430b4c     TimeLog.obj
 0002:00008b60       ??_R3system_error@std@@8   00430b60     TimeLog.obj
 0002:00008b70       ??_R2system_error@std@@8   00430b70     TimeLog.obj
 0002:00008b84       ??_R1A@?0A@EA@system_error@std@@8 00430b84     TimeLog.obj
 0002:00008ba0       ??_R4_Iostream_error_category2@std@@6B@ 00430ba0     TimeLog.obj
 0002:00008bb4       ??_R3_Iostream_error_category2@std@@8 00430bb4     TimeLog.obj
 0002:00008bc4       ??_R2_Iostream_error_category2@std@@8 00430bc4     TimeLog.obj
 0002:00008bd0       ??_R1A@?0A@EA@_Iostream_error_category2@std@@8 00430bd0     TimeLog.obj
 0002:00008bec       ??_R4failure@ios_base@std@@6B@ 00430bec     TimeLog.obj
 0002:00008c00       ??_R3failure@ios_base@std@@8 00430c00     TimeLog.obj
 0002:00008c10       ??_R2failure@ios_base@std@@8 00430c10     TimeLog.obj
 0002:00008c28       ??_R1A@?0A@EA@failure@ios_base@std@@8 00430c28     TimeLog.obj
 0002:00008c44       ??_R4logic_error@std@@6B@  00430c44     libcpmt:xthrow.obj
 0002:00008c58       ??_R3logic_error@std@@8    00430c58     libcpmt:xthrow.obj
 0002:00008c68       ??_R2logic_error@std@@8    00430c68     libcpmt:xthrow.obj
 0002:00008c74       ??_R1A@?0A@EA@logic_error@std@@8 00430c74     libcpmt:xthrow.obj
 0002:00008c90       ??_R4length_error@std@@6B@ 00430c90     libcpmt:xthrow.obj
 0002:00008ca4       ??_R3length_error@std@@8   00430ca4     libcpmt:xthrow.obj
 0002:00008cb4       ??_R2length_error@std@@8   00430cb4     libcpmt:xthrow.obj
 0002:00008cc4       ??_R1A@?0A@EA@length_error@std@@8 00430cc4     libcpmt:xthrow.obj
 0002:00008ce0       ??_R4ios_base@std@@6B@     00430ce0     libcpmt:cout.obj
 0002:00008cf4       ??_R3ios_base@std@@8       00430cf4     libcpmt:cout.obj
 0002:00008d04       ??_R2ios_base@std@@8       00430d04     libcpmt:cout.obj
 0002:00008d10       ??_R1A@?0A@EA@ios_base@std@@8 00430d10     libcpmt:cout.obj
 0002:00008d2c       ??_R17?0A@EA@?$_Iosb@H@std@@8 00430d2c     libcpmt:cout.obj
 0002:00008d48       ??_R3?$_Iosb@H@std@@8      00430d48     libcpmt:cout.obj
 0002:00008d58       ??_R2?$_Iosb@H@std@@8      00430d58     libcpmt:cout.obj
 0002:00008d60       ??_R1A@?0A@EA@?$_Iosb@H@std@@8 00430d60     libcpmt:cout.obj
 0002:00008d7c       ??_R4?$basic_ios@DU?$char_traits@D@std@@@std@@6B@ 00430d7c     libcpmt:cout.obj
 0002:00008d90       ??_R3?$basic_ios@DU?$char_traits@D@std@@@std@@8 00430d90     libcpmt:cout.obj
 0002:00008da0       ??_R2?$basic_ios@DU?$char_traits@D@std@@@std@@8 00430da0     libcpmt:cout.obj
 0002:00008db0       ??_R1A@?0A@EA@?$basic_ios@DU?$char_traits@D@std@@@std@@8 00430db0     libcpmt:cout.obj
 0002:00008dcc       ??_R4?$basic_streambuf@DU?$char_traits@D@std@@@std@@6B@ 00430dcc     libcpmt:cout.obj
 0002:00008de0       ??_R3?$basic_streambuf@DU?$char_traits@D@std@@@std@@8 00430de0     libcpmt:cout.obj
 0002:00008df0       ??_R2?$basic_streambuf@DU?$char_traits@D@std@@@std@@8 00430df0     libcpmt:cout.obj
 0002:00008df8       ??_R1A@?0A@EA@?$basic_streambuf@DU?$char_traits@D@std@@@std@@8 00430df8     libcpmt:cout.obj
 0002:00008e14       ??_R1A@A@3FA@?$basic_ios@DU?$char_traits@D@std@@@std@@8 00430e14     libcpmt:cout.obj
 0002:00008e30       ??_R1A@A@3EA@ios_base@std@@8 00430e30     libcpmt:cout.obj
 0002:00008e4c       ??_R17A@3EA@?$_Iosb@H@std@@8 00430e4c     libcpmt:cout.obj
 0002:00008e68       ??_R4?$basic_ostream@DU?$char_traits@D@std@@@std@@6B@ 00430e68     libcpmt:cout.obj
 0002:00008e7c       ??_R3?$basic_ostream@DU?$char_traits@D@std@@@std@@8 00430e7c     libcpmt:cout.obj
 0002:00008e8c       ??_R2?$basic_ostream@DU?$char_traits@D@std@@@std@@8 00430e8c     libcpmt:cout.obj
 0002:00008ea0       ??_R1A@?0A@EA@?$basic_ostream@DU?$char_traits@D@std@@@std@@8 00430ea0     libcpmt:cout.obj
 0002:00008ebc       ??_R4?$basic_filebuf@DU?$char_traits@D@std@@@std@@6B@ 00430ebc     libcpmt:cout.obj
 0002:00008ed0       ??_R3?$basic_filebuf@DU?$char_traits@D@std@@@std@@8 00430ed0     libcpmt:cout.obj
 0002:00008ee0       ??_R2?$basic_filebuf@DU?$char_traits@D@std@@@std@@8 00430ee0     libcpmt:cout.obj
 0002:00008eec       ??_R1A@?0A@EA@?$basic_filebuf@DU?$char_traits@D@std@@@std@@8 00430eec     libcpmt:cout.obj
 0002:00008f08       ??_R4bad_cast@std@@6B@     00430f08     libcpmt:cout.obj
 0002:00008f1c       ??_R3bad_cast@std@@8       00430f1c     libcpmt:cout.obj
 0002:00008f2c       ??_R2bad_cast@std@@8       00430f2c     libcpmt:cout.obj
 0002:00008f38       ??_R1A@?0A@EA@bad_cast@std@@8 00430f38     libcpmt:cout.obj
 0002:00008f54       ??_R4_Facet_base@std@@6B@  00430f54     libcpmt:cout.obj
 0002:00008f68       ??_R3_Facet_base@std@@8    00430f68     libcpmt:cout.obj
 0002:00008f78       ??_R2_Facet_base@std@@8    00430f78     libcpmt:cout.obj
 0002:00008f80       ??_R1A@?0A@EA@_Facet_base@std@@8 00430f80     libcpmt:cout.obj
 0002:00008f9c       ??_R3facet@locale@std@@8   00430f9c     libcpmt:cout.obj
 0002:00008fac       ??_R2facet@locale@std@@8   00430fac     libcpmt:cout.obj
 0002:00008fbc       ??_R1A@?0A@EA@facet@locale@std@@8 00430fbc     libcpmt:cout.obj
 0002:00008fd8       ??_R13?0A@EA@_Crt_new_delete@std@@8 00430fd8     libcpmt:cout.obj
 0002:00008ff4       ??_R3_Crt_new_delete@std@@8 00430ff4     libcpmt:cout.obj
 0002:00009004       ??_R2_Crt_new_delete@std@@8 00431004     libcpmt:cout.obj
 0002:0000900c       ??_R1A@?0A@EA@_Crt_new_delete@std@@8 0043100c     libcpmt:cout.obj
 0002:00009028       ??_R3codecvt_base@std@@8   00431028     libcpmt:cout.obj
 0002:00009038       ??_R2codecvt_base@std@@8   00431038     libcpmt:cout.obj
 0002:0000904c       ??_R1A@?0A@EA@codecvt_base@std@@8 0043104c     libcpmt:cout.obj
 0002:00009068       ??_R3ctype_base@std@@8     00431068     libcpmt:cout.obj
 0002:00009078       ??_R2ctype_base@std@@8     00431078     libcpmt:cout.obj
 0002:0000908c       ??_R1A@?0A@EA@ctype_base@std@@8 0043108c     libcpmt:cout.obj
 0002:000090a8       ??_R4?$ctype@D@std@@6B@    004310a8     libcpmt:cout.obj
 0002:000090bc       ??_R3?$ctype@D@std@@8      004310bc     libcpmt:cout.obj
 0002:000090cc       ??_R2?$ctype@D@std@@8      004310cc     libcpmt:cout.obj
 0002:000090e4       ??_R1A@?0A@EA@?$ctype@D@std@@8 004310e4     libcpmt:cout.obj
 0002:00009100       ??_R4?$codecvt@DDU_Mbstatet@@@std@@6B@ 00431100     libcpmt:cout.obj
 0002:00009114       ??_R3?$codecvt@DDU_Mbstatet@@@std@@8 00431114     libcpmt:cout.obj
 0002:00009124       ??_R2?$codecvt@DDU_Mbstatet@@@std@@8 00431124     libcpmt:cout.obj
 0002:0000913c       ??_R1A@?0A@EA@?$codecvt@DDU_Mbstatet@@@std@@8 0043113c     libcpmt:cout.obj
 0002:00009158       ??_R4_Locimp@locale@std@@6B@ 00431158     libcpmt:locale0.obj
 0002:0000916c       ??_R3_Locimp@locale@std@@8 0043116c     libcpmt:locale0.obj
 0002:0000917c       ??_R2_Locimp@locale@std@@8 0043117c     libcpmt:locale0.obj
 0002:00009190       ??_R1A@?0A@EA@_Locimp@locale@std@@8 00431190     libcpmt:locale0.obj
 0002:000091ac       ??_R4type_info@@6B@        004311ac     LIBCMT:std_type_info_static.obj
 0002:000091c0       ??_R3type_info@@8          004311c0     LIBCMT:std_type_info_static.obj
 0002:000091d0       ??_R2type_info@@8          004311d0     LIBCMT:std_type_info_static.obj
 0002:000091d8       ??_R1A@?0A@EA@type_info@@8 004311d8     LIBCMT:std_type_info_static.obj
 0002:000091f4       ??_R4bad_exception@std@@6B@ 004311f4     libvcruntime:frame.obj
 0002:00009208       ??_R3bad_exception@std@@8  00431208     libvcruntime:frame.obj
 0002:00009218       ??_R2bad_exception@std@@8  00431218     libvcruntime:frame.obj
 0002:00009224       ??_R1A@?0A@EA@bad_exception@std@@8 00431224     libvcruntime:frame.obj
 0002:00009240       ___safe_se_handler_table   00431240     <linker-defined>
 0002:000092bc       ___volatile_metadata       004312bc     <linker-defined>
 0002:00009a30       ___rtc_iaa                 00431a30     LIBCMT:initsect.obj
 0002:00009a34       ___rtc_izz                 00431a34     LIBCMT:initsect.obj
 0002:00009a38       ___rtc_taa                 00431a38     LIBCMT:initsect.obj
 0002:00009a3c       ___rtc_tzz                 00431a3c     LIBCMT:initsect.obj
 0002:00009a40       __tls_start                00431a40     LIBCMT:tlssup.obj
 0002:00009a44       __Init_thread_epoch        00431a44     LIBCMT:thread_safe_statics.obj
 0002:00009a48       __tls_end                  00431a48     LIBCMT:tlssup.obj
 0002:00009a50       __CT??_R0?AVexception@std@@@8??0exception@std@@QAE@ABV01@@Z12 00431a50     cts_mysql.obj
 0002:00009a6c       __TI3?AVbad_array_new_length@std@@ 00431a6c     cts_mysql.obj
 0002:00009a7c       __CTA3?AVbad_array_new_length@std@@ 00431a7c     cts_mysql.obj
 0002:00009a8c       __CT??_R0?AVbad_array_new_length@std@@@8??0bad_array_new_length@std@@QAE@ABV01@@Z12 00431a8c     cts_mysql.obj
 0002:00009aa8       __CT??_R0?AVbad_alloc@std@@@8??0bad_alloc@std@@QAE@ABV01@@Z12 00431aa8     cts_mysql.obj
 0002:00009cc8       __CT??_R0?AVruntime_error@std@@@8??0runtime_error@std@@QAE@ABV01@@Z12 00431cc8     TimeLog.obj
 0002:00009ce4       __CT??_R0?AVsystem_error@std@@@8??0system_error@std@@QAE@ABV01@@Z20 00431ce4     TimeLog.obj
 0002:00009d00       __CT??_R0?AV_System_error@std@@@8??0_System_error@std@@QAE@ABV01@@Z20 00431d00     TimeLog.obj
 0002:00009d1c       __TI5?AVfailure@ios_base@std@@ 00431d1c     TimeLog.obj
 0002:00009d2c       __CTA5?AVfailure@ios_base@std@@ 00431d2c     TimeLog.obj
 0002:00009d44       __CT??_R0?AVfailure@ios_base@std@@@8??0failure@ios_base@std@@QAE@ABV012@@Z20 00431d44     TimeLog.obj
 0002:00009d8c       __TI2?AVbad_alloc@std@@    00431d8c     libcpmt:xthrow.obj
 0002:00009d9c       __CTA2?AVbad_alloc@std@@   00431d9c     libcpmt:xthrow.obj
 0002:00009da8       __CT??_R0?AVlogic_error@std@@@8??0logic_error@std@@QAE@ABV01@@Z12 00431da8     libcpmt:xthrow.obj
 0002:00009dc4       __TI3?AVlength_error@std@@ 00431dc4     libcpmt:xthrow.obj
 0002:00009dd4       __CTA3?AVlength_error@std@@ 00431dd4     libcpmt:xthrow.obj
 0002:00009de4       __CT??_R0?AVlength_error@std@@@8??0length_error@std@@QAE@ABV01@@Z12 00431de4     libcpmt:xthrow.obj
 0002:00009e00       __TI2?AVruntime_error@std@@ 00431e00     libcpmt:xthrow.obj
 0002:00009e10       __CTA2?AVruntime_error@std@@ 00431e10     libcpmt:xthrow.obj
 0002:00009fb4       __TI2?AVbad_cast@std@@     00431fb4     libcpmt:cout.obj
 0002:00009fc4       __CTA2?AVbad_cast@std@@    00431fc4     libcpmt:cout.obj
 0002:00009fd0       __CT??_R0?AVbad_cast@std@@@8??0bad_cast@std@@QAE@ABV01@@Z12 00431fd0     libcpmt:cout.obj
 0002:0000a15c       __TI2?AVbad_exception@std@@ 0043215c     libvcruntime:frame.obj
 0002:0000a16c       __CTA2?AVbad_exception@std@@ 0043216c     libvcruntime:frame.obj
 0002:0000a178       __CT??_R0?AVbad_exception@std@@@8??0bad_exception@std@@QAE@ABV01@@Z12 00432178     libvcruntime:frame.obj
 0002:0000a7c4       __IMPORT_DESCRIPTOR_libmysql 004327c4     libmysql:libmysql.dll
 0002:0000a7d8       __IMPORT_DESCRIPTOR_KERNEL32 004327d8     kernel32:KERNEL32.dll
 0002:0000a7ec       __IMPORT_DESCRIPTOR_USER32 004327ec     user32:USER32.dll
 0002:0000a800       __IMPORT_DESCRIPTOR_GDI32  00432800     gdi32:GDI32.dll
 0002:0000a814       __IMPORT_DESCRIPTOR_BugTrap 00432814     BugTrap:BugTrap.dll
 0002:0000a828       __IMPORT_DESCRIPTOR_WS2_32 00432828     WS2_32:WS2_32.dll
 0002:0000a83c       __NULL_IMPORT_DESCRIPTOR   0043283c     libmysql:libmysql.dll
 0003:00000000       ?_Static@?1???$_Immortalize_memcpy_image@V_Iostream_error_category2@std@@@std@@YAABV_Iostream_error_category2@1@XZ@4U?$_Constexpr_immortalize_impl@V_Iostream_error_category2@std@@@1@A 00434000     TimeLog.obj
 0003:00000008       ?g_env@@3U__g_env@@A       00434008     Server_EXTRA.obj
 0003:00000028       ?_Sync@ios_base@std@@0_NA  00434028     libcpmt:ios.obj
 0003:00000030       ___scrt_native_dllmain_reason 00434030     LIBCMT:utility.obj
 0003:00000034       __Init_global_epoch        00434034     LIBCMT:thread_safe_statics.obj
 0003:00000040       ___security_cookie         00434040     LIBCMT:gs_cookie.obj
 0003:00000080       ___security_cookie_complement 00434080     LIBCMT:gs_cookie.obj
 0003:00000084       __fltused                  00434084     LIBCMT:fltused.obj
 0003:00000090       ___isa_enabled             00434090     LIBCMT:cpu_disp.obj
 0003:000000a0       ___scrt_default_matherr    004340a0     LIBCMT:matherr.obj
 0003:000000c0       __NLG_Destination          004340c0     libvcruntime:exsup.obj
 0003:000000d0       __iob                      004340d0     libucrt:_file.obj
 0003:00000180       __pctype                   00434180     libucrt:ctype.obj
 0003:00000184       __pwctype                  00434184     libucrt:ctype.obj
 0003:00000188       ___abort_behavior          00434188     libucrt:abort.obj
 0003:000001a0       ___acrt_lconv_c            004341a0     libucrt:localeconv.obj
 0003:000001f0       ___acrt_lconv              004341f0     libucrt:localeconv.obj
 0003:000001f4       ___acrt_lconv_static_decimal 004341f4     libucrt:localeconv.obj
 0003:000001f8       ___acrt_lconv_static_W_decimal 004341f8     libucrt:localeconv.obj
 0003:00000208       ___acrt_initial_locale_data 00434208     libucrt:nlsdata.obj
 0003:000002c0       ___acrt_initial_locale_pointers 004342c0     libucrt:nlsdata.obj
 0003:000002c8       ___acrt_wide_c_locale_string 004342c8     libucrt:nlsdata.obj
 0003:000002cc       ___mb_cur_max              004342cc     libucrt:nlsdata.obj
 0003:000002d0       ___badioinfo               004342d0     libucrt:ioinit.obj
 0003:00000498       __lookuptrailbytes         00434498     libucrt:read.obj
 0003:00000598       ___globallocalestatus      00434598     libucrt:glstatus.obj
 0003:000005a0       ___acrt_initial_multibyte_data 004345a0     libucrt:mbctype.obj
 0003:00000ad0       ??_R0?AVexception@std@@@8  00434ad0     cts_mysql.obj
 0003:00000aec       ??_R0?AVbad_array_new_length@std@@@8 00434aec     cts_mysql.obj
 0003:00000b14       ??_R0?AVbad_alloc@std@@@8  00434b14     cts_mysql.obj
 0003:00000b30       ??_R0?AVruntime_error@std@@@8 00434b30     TimeLog.obj
 0003:00000b50       ??_R0?AVsystem_error@std@@@8 00434b50     TimeLog.obj
 0003:00000b70       ??_R0?AV_System_error@std@@@8 00434b70     TimeLog.obj
 0003:00000b90       ??_R0?AVfailure@ios_base@std@@@8 00434b90     TimeLog.obj
 0003:00000bb4       ??_R0?AVlogic_error@std@@@8 00434bb4     libcpmt:xthrow.obj
 0003:00000bd4       ??_R0?AVlength_error@std@@@8 00434bd4     libcpmt:xthrow.obj
 0003:00000bf4       ??_R0?AVbad_cast@std@@@8   00434bf4     libcpmt:cout.obj
 0003:00000c10       ??_R0?AVbad_exception@std@@@8 00434c10     libvcruntime:frame.obj
 0003:00000c30       ??_R0?AVerror_category@std@@@8 00434c30     TimeLog.obj
 0003:00000c54       ??_R0?AV_Iostream_error_category2@std@@@8 00434c54     TimeLog.obj
 0003:00000c80       ??_R0?AVios_base@std@@@8   00434c80     libcpmt:cout.obj
 0003:00000c9c       ??_R0?AV?$_Iosb@H@std@@@8  00434c9c     libcpmt:cout.obj
 0003:00000cb8       ??_R0?AV?$basic_ios@DU?$char_traits@D@std@@@std@@@8 00434cb8     libcpmt:cout.obj
 0003:00000cf0       ??_R0?AV?$basic_streambuf@DU?$char_traits@D@std@@@std@@@8 00434cf0     libcpmt:cout.obj
 0003:00000d2c       ??_R0?AV?$basic_ostream@DU?$char_traits@D@std@@@std@@@8 00434d2c     libcpmt:cout.obj
 0003:00000d68       ??_R0?AV?$basic_filebuf@DU?$char_traits@D@std@@@std@@@8 00434d68     libcpmt:cout.obj
 0003:00000da4       ??_R0?AV_Facet_base@std@@@8 00434da4     libcpmt:cout.obj
 0003:00000dc4       ??_R0?AVfacet@locale@std@@@8 00434dc4     libcpmt:cout.obj
 0003:00000de4       ??_R0?AU_Crt_new_delete@std@@@8 00434de4     libcpmt:cout.obj
 0003:00000e08       ??_R0?AVcodecvt_base@std@@@8 00434e08     libcpmt:cout.obj
 0003:00000e28       ??_R0?AUctype_base@std@@@8 00434e28     libcpmt:cout.obj
 0003:00000e48       ??_R0?AV?$ctype@D@std@@@8  00434e48     libcpmt:cout.obj
 0003:00000e64       ??_R0?AV?$codecvt@DDU_Mbstatet@@@std@@@8 00434e64     libcpmt:cout.obj
 0003:00000e90       ??_R0?AV_Locimp@locale@std@@@8 00434e90     libcpmt:locale0.obj
 0003:00000eb4       ??_R0?AVtype_info@@@8      00434eb4     LIBCMT:std_type_info_static.obj
 0003:00000ed0       ?_OptionsStorage@?1??__local_stdio_printf_options@@9@4_KA 00434ed0     TimeLog.obj
 0003:00002700       ?mSERVER@@3VMyServer@@A    00436700     S02_MyServer.obj
 0003:000028a4       ?mUSER@@3PAVMyUser@@A      004368a4     S03_MyUser.obj
 0003:000028a8       ?mWORK@@3VMyWork@@A        004368a8     S04_MyWork01.obj
 0003:00002ca8       ?W_FUNCTION@@3PAUWORKER_FUNCTION@@A 00436ca8     S04_MyWork02.obj
 0003:000030a8       ?mTRANSFER@@3VMyTransfer@@A 004370a8     S05_MyTransfer.obj
 0003:000057c0       ?mGAME@@3VMyGame@@A        004397c0     S07_MyGame01.obj
 0003:0001cde8       ?mDB@@3VMyDB@@A            00450de8     S08_MyDB.obj
 0003:0001fd18       ?mSERVER_INFO@@3USERVER_INFO@@A 00453d18     Server_EXTRA.obj
 0003:00020174       ?hMainWindow@@3PAUHWND__@@A 00454174     Server_EXTRA.obj
 0003:00020180       ?cout@std@@3V?$basic_ostream@DU?$char_traits@D@std@@@1@A 00454180     libcpmt:cout.obj
 0003:00020228       ?id@?$codecvt@DDU_Mbstatet@@@std@@2V0locale@2@A 00454228     libcpmt:cout.obj
 0003:0002022c       ?_Stinit@?1??_Init@?$basic_filebuf@DU?$char_traits@D@std@@@std@@IAEXPAU_iobuf@@W4_Initfl@23@@Z@4U_Mbstatet@@A 0045422c     libcpmt:cout.obj
 0003:00020234       ?_Psave@?$_Facetptr@V?$ctype@D@std@@@std@@2PBVfacet@locale@2@B 00454234     libcpmt:cout.obj
 0003:00020238       ?_Psave@?$_Facetptr@V?$codecvt@DDU_Mbstatet@@@std@@@std@@2PBVfacet@locale@2@B 00454238     libcpmt:cout.obj
 0003:00020308       ?_Id_cnt@id@locale@std@@0HA 00454308     libcpmt:locale0.obj
 0003:0002030c       ?_Clocptr@_Locimp@locale@std@@0PAV123@A 0045430c     libcpmt:locale0.obj
 0003:00020310       ?id@?$ctype@G@std@@2V0locale@2@A 00454310     libcpmt:locale0.obj
 0003:00020314       ?id@?$codecvt@_WDU_Mbstatet@@@std@@2V0locale@2@A 00454314     libcpmt:locale0.obj
 0003:00020318       ?id@?$codecvt@GDU_Mbstatet@@@std@@2V0locale@2@A 00454318     libcpmt:locale0.obj
 0003:0002031c       ?id@?$ctype@_W@std@@2V0locale@2@A 0045431c     libcpmt:locale0.obj
 0003:00020320       ?id@?$ctype@D@std@@2V0locale@2@A 00454320     libcpmt:locale0.obj
 0003:0002033c       ?_Index@ios_base@std@@0HA  0045433c     libcpmt:ios.obj
 0003:00020374       ?_Ptr_cin@std@@3PAV?$basic_istream@DU?$char_traits@D@std@@@1@A 00454374     libcpmt:iosptrs.obj
 0003:00020378       ?_Ptr_cout@std@@3PAV?$basic_ostream@DU?$char_traits@D@std@@@1@A 00454378     libcpmt:iosptrs.obj
 0003:0002037c       ?_Ptr_cerr@std@@3PAV?$basic_ostream@DU?$char_traits@D@std@@@1@A 0045437c     libcpmt:iosptrs.obj
 0003:00020380       ?_Ptr_clog@std@@3PAV?$basic_ostream@DU?$char_traits@D@std@@@1@A 00454380     libcpmt:iosptrs.obj
 0003:00020384       ?_Ptr_wcin@std@@3PAV?$basic_istream@_WU?$char_traits@_W@std@@@1@A 00454384     libcpmt:iosptrs.obj
 0003:00020388       ?_Ptr_wcout@std@@3PAV?$basic_ostream@_WU?$char_traits@_W@std@@@1@A 00454388     libcpmt:iosptrs.obj
 0003:0002038c       ?_Ptr_wcerr@std@@3PAV?$basic_ostream@_WU?$char_traits@_W@std@@@1@A 0045438c     libcpmt:iosptrs.obj
 0003:00020390       ?_Ptr_wclog@std@@3PAV?$basic_ostream@_WU?$char_traits@_W@std@@@1@A 00454390     libcpmt:iosptrs.obj
 0003:000203c0       ?id@?$num_get@DV?$istreambuf_iterator@DU?$char_traits@D@std@@@std@@@std@@2V0locale@2@A 004543c0     libcpmt:locale.obj
 0003:000203c4       ?id@?$num_put@DV?$ostreambuf_iterator@DU?$char_traits@D@std@@@std@@@std@@2V0locale@2@A 004543c4     libcpmt:locale.obj
 0003:000203c8       ?id@?$numpunct@D@std@@2V0locale@2@A 004543c8     libcpmt:locale.obj
 0003:000203cc       ?id@?$time_put@_WV?$ostreambuf_iterator@_WU?$char_traits@_W@std@@@std@@@std@@2V0locale@2@A 004543cc     libcpmt:wlocale.obj
 0003:000203d0       ?id@?$num_get@_WV?$istreambuf_iterator@_WU?$char_traits@_W@std@@@std@@@std@@2V0locale@2@A 004543d0     libcpmt:wlocale.obj
 0003:000203d4       ?id@?$num_put@_WV?$ostreambuf_iterator@_WU?$char_traits@_W@std@@@std@@@std@@2V0locale@2@A 004543d4     libcpmt:wlocale.obj
 0003:000203d8       ?id@?$numpunct@_W@std@@2V0locale@2@A 004543d8     libcpmt:wlocale.obj
 0003:000203dc       ?id@?$collate@_W@std@@2V0locale@2@A 004543dc     libcpmt:wlocale.obj
 0003:000203e0       ?id@?$messages@_W@std@@2V0locale@2@A 004543e0     libcpmt:wlocale.obj
 0003:000203e4       ?id@?$money_get@_WV?$istreambuf_iterator@_WU?$char_traits@_W@std@@@std@@@std@@2V0locale@2@A 004543e4     libcpmt:wlocale.obj
 0003:000203e8       ?id@?$money_put@_WV?$ostreambuf_iterator@_WU?$char_traits@_W@std@@@std@@@std@@2V0locale@2@A 004543e8     libcpmt:wlocale.obj
 0003:000203ec       ?id@?$moneypunct@_W$0A@@std@@2V0locale@2@A 004543ec     libcpmt:wlocale.obj
 0003:000203f0       ?id@?$moneypunct@_W$00@std@@2V0locale@2@A 004543f0     libcpmt:wlocale.obj
 0003:000203f4       ?id@?$time_get@_WV?$istreambuf_iterator@_WU?$char_traits@_W@std@@@std@@@std@@2V0locale@2@A 004543f4     libcpmt:wlocale.obj
 0003:000203f8       ?id@?$num_get@GV?$istreambuf_iterator@GU?$char_traits@G@std@@@std@@@std@@2V0locale@2@A 004543f8     libcpmt:wlocale.obj
 0003:000203fc       ?id@?$num_put@GV?$ostreambuf_iterator@GU?$char_traits@G@std@@@std@@@std@@2V0locale@2@A 004543fc     libcpmt:wlocale.obj
 0003:00020400       ?id@?$numpunct@G@std@@2V0locale@2@A 00454400     libcpmt:wlocale.obj
 0003:00020404       ?id@?$collate@G@std@@2V0locale@2@A 00454404     libcpmt:wlocale.obj
 0003:00020408       ?id@?$messages@G@std@@2V0locale@2@A 00454408     libcpmt:wlocale.obj
 0003:0002040c       ?id@?$money_get@GV?$istreambuf_iterator@GU?$char_traits@G@std@@@std@@@std@@2V0locale@2@A 0045440c     libcpmt:wlocale.obj
 0003:00020410       ?id@?$money_put@GV?$ostreambuf_iterator@GU?$char_traits@G@std@@@std@@@std@@2V0locale@2@A 00454410     libcpmt:wlocale.obj
 0003:00020414       ?id@?$moneypunct@G$0A@@std@@2V0locale@2@A 00454414     libcpmt:wlocale.obj
 0003:00020418       ?id@?$moneypunct@G$00@std@@2V0locale@2@A 00454418     libcpmt:wlocale.obj
 0003:0002041c       ?id@?$time_get@GV?$istreambuf_iterator@GU?$char_traits@G@std@@@std@@@std@@2V0locale@2@A 0045441c     libcpmt:wlocale.obj
 0003:00020420       ?id@?$time_put@GV?$ostreambuf_iterator@GU?$char_traits@G@std@@@std@@@std@@2V0locale@2@A 00454420     libcpmt:wlocale.obj
 0003:00020424       ?id@?$collate@D@std@@2V0locale@2@A 00454424     libcpmt:xlocale.obj
 0003:00020428       ?id@?$messages@D@std@@2V0locale@2@A 00454428     libcpmt:xlocale.obj
 0003:0002042c       ?id@?$money_get@DV?$istreambuf_iterator@DU?$char_traits@D@std@@@std@@@std@@2V0locale@2@A 0045442c     libcpmt:xlocale.obj
 0003:00020430       ?id@?$money_put@DV?$ostreambuf_iterator@DU?$char_traits@D@std@@@std@@@std@@2V0locale@2@A 00454430     libcpmt:xlocale.obj
 0003:00020434       ?id@?$moneypunct@D$0A@@std@@2V0locale@2@A 00454434     libcpmt:xlocale.obj
 0003:00020438       ?id@?$moneypunct@D$00@std@@2V0locale@2@A 00454438     libcpmt:xlocale.obj
 0003:0002043c       ?id@?$time_get@DV?$istreambuf_iterator@DU?$char_traits@D@std@@@std@@@std@@2V0locale@2@A 0045443c     libcpmt:xlocale.obj
 0003:00020440       ?id@?$time_put@DV?$ostreambuf_iterator@DU?$char_traits@D@std@@@std@@@std@@2V0locale@2@A 00454440     libcpmt:xlocale.obj
 0003:00020444       ___scrt_current_native_startup_state 00454444     LIBCMT:utility.obj
 0003:00020448       ___scrt_native_startup_lock 00454448     LIBCMT:utility.obj
 0003:0002078c       __tls_index                0045478c     LIBCMT:tlssup.obj
 0003:00020790       ___isa_available           00454790     LIBCMT:cpu_disp.obj
 0003:00020794       ___favor                   00454794     LIBCMT:cpu_disp.obj
 0003:00020798       ___scrt_debugger_hook_flag 00454798     LIBCMT:utility_desktop.obj
 0003:000207a0       ?__type_info_root_node@@3U__type_info_node@@A 004547a0     LIBCMT:tncleanup.obj
 0003:000207a8       ?_OptionsStorage@?1??__local_stdio_scanf_options@@9@4_KA 004547a8     LIBCMT:default_local_stdio_options.obj
 0003:000207b0       ?__WinRTOutOfMemoryExceptionCallback@@3P6GPAXXZA 004547b0     libvcruntime:ehhelpers.obj
 0003:000207dc       ___pPurecall               004547dc     libvcruntime:purevirt_data.obj
 0003:000207fc       ?pArgList@UnDecorator@@0PAVReplicator@@A 004547fc     libvcruntime:undname.obj
 0003:00020800       ?pZNameList@UnDecorator@@0PAVReplicator@@A 00454800     libvcruntime:undname.obj
 0003:00020804       ?pTemplateArgList@UnDecorator@@0PAVReplicator@@A 00454804     libvcruntime:undname.obj
 0003:00020808       ?gName@UnDecorator@@0PBDB  00454808     libvcruntime:undname.obj
 0003:0002080c       ?name@UnDecorator@@0PBDB   0045480c     libvcruntime:undname.obj
 0003:00020810       ?disableFlags@UnDecorator@@0KA 00454810     libvcruntime:undname.obj
 0003:00020814       ?fExplicitTemplateParams@UnDecorator@@0_NA 00454814     libvcruntime:undname.obj
 0003:00020815       ?fGetTemplateArgumentList@UnDecorator@@0_NA 00454815     libvcruntime:undname.obj
 0003:00020818       ?m_pGetParameter@UnDecorator@@0P6APADJ@ZA 00454818     libvcruntime:undname.obj
 0003:0002081c       ?m_CHPENameOffset@UnDecorator@@0KA 0045481c     libvcruntime:undname.obj
 0003:00020820       ?m_recursionLevel@UnDecorator@@0KA 00454820     libvcruntime:undname.obj
 0003:0002085c       __nstream                  0045485c     libucrt:_file.obj
 0003:00020860       ___piob                    00454860     libucrt:_file.obj
 0003:00020864       __cflush                   00454864     libucrt:_file.obj
 0003:000209bc       ___acrt_lconv_static_null  004549bc     libucrt:localeconv.obj
 0003:000209c0       ___acrt_lconv_static_W_null 004549c0     libucrt:localeconv.obj
 0003:00020ae0       __environ_table            00454ae0     libucrt:environment_initialization.obj
 0003:00020ae4       __wenviron_table           00454ae4     libucrt:environment_initialization.obj
 0003:00020ae8       ___dcrt_initial_wide_environment 00454ae8     libucrt:environment_initialization.obj
 0003:00020aec       ___dcrt_initial_narrow_environment 00454aec     libucrt:environment_initialization.obj
 0003:00020af0       ___acrt_atexit_table       00454af0     libucrt:onexit.obj
 0003:00020afc       ___acrt_at_quick_exit_table 00454afc     libucrt:onexit.obj
 0003:00020b10       __pgmptr                   00454b10     libucrt:argv_data.obj
 0003:00020b14       ___argc                    00454b14     libucrt:argv_data.obj
 0003:00020b18       ___argv                    00454b18     libucrt:argv_data.obj
 0003:00020b1c       ___wargv                   00454b1c     libucrt:argv_data.obj
 0003:00020b20       __acmdln                   00454b20     libucrt:argv_data.obj
 0003:00020b24       __wcmdln                   00454b24     libucrt:argv_data.obj
 0003:00020b28       ___acrt_locale_changed_data 00454b28     libucrt:wsetlocale.obj
 0003:00020b30       __commode                  00454b30     libucrt:ncommode.obj
 0003:00020b34       ___acrt_current_locale_data 00454b34     libucrt:nlsdata.obj
 0003:00020b44       ___acrt_stdout_buffer      00454b44     libucrt:_sftbuf.obj
 0003:00020b48       ___acrt_stderr_buffer      00454b48     libucrt:_sftbuf.obj
 0003:00020b50       ___pioinfo                 00454b50     libucrt:ioinit.obj
 0003:00020d50       __nhandle                  00454d50     libucrt:ioinit.obj
 0003:00020d54       ?_timezone@@3V?$dual_state_global@J@__crt_state_management@@A 00454d54     libucrt:timeset.obj
 0003:00020d58       ?_daylight@@3V?$dual_state_global@H@__crt_state_management@@A 00454d58     libucrt:timeset.obj
 0003:00020d5c       ?_dstbias@@3V?$dual_state_global@J@__crt_state_management@@A 00454d5c     libucrt:timeset.obj
 0003:00020f18       __mbctype                  00454f18     libucrt:mbctype.obj
 0003:00020f1c       __mbcasemap                00454f1c     libucrt:mbctype.obj
 0003:00020f20       ___acrt_current_multibyte_data 00454f20     libucrt:mbctype.obj
 0003:00020f2c       ___acrt_heap               00454f2c     libucrt:heap_handle.obj
 0003:00020f30       __fmode                    00454f30     libucrt:txtmode.obj
 0003:00020f3c       __umaskval                 00454f3c     libucrt:umask.obj
 0003:00020f48       ___fastflag                00454f48     libucrt:fp_flags.obj
 0003:00020f50       ___dyn_tls_dtor_callback   00454f50     <common>
 0003:00020f54       ___dyn_tls_init_callback   00454f54     <common>
 0003:00020f58       ___scrt_ucrt_dll_is_in_use 00454f58     <common>
 0003:00020f5c       __pmatherr                 00454f5c     <common>
 0003:00020f60       ___use_sse2_mathfcns       00454f60     <common>

 entry point at        0001:00008e32

 Static symbols

 0000:fffa7000       .debug$S                   00400000     libmysql:libmysql.dll
 0000:fffa7000       .debug$S                   00400000     libmysql:libmysql.dll
 0000:fffa7000       .debug$S                   00400000     libmysql:libmysql.dll
 0000:fffa7000       .debug$S                   00400000     libmysql:libmysql.dll
 0000:fffa7000       .debug$S                   00400000     libmysql:libmysql.dll
 0000:fffa7000       .debug$S                   00400000     libmysql:libmysql.dll
 0000:fffa7000       .debug$S                   00400000     libmysql:libmysql.dll
 0000:fffa7000       .debug$S                   00400000     libmysql:libmysql.dll
 0000:fffa7000       .debug$S                   00400000     libmysql:libmysql.dll
 0000:fffa7000       .debug$S                   00400000     libmysql:libmysql.dll
 0000:fffa7000       .debug$S                   00400000     libmysql:libmysql.dll
 0000:fffa7000       .debug$S                   00400000     libmysql:libmysql.dll
 0000:fffa7000       .debug$S                   00400000     libmysql:libmysql.dll
 0000:fffa7000       .debug$S                   00400000     libmysql:libmysql.dll
 0000:fffa7000       .debug$S                   00400000     libmysql:libmysql.dll
 0000:fffa7000       .debug$S                   00400000     BugTrap:BugTrap.dll
 0000:fffa7000       .debug$S                   00400000     BugTrap:BugTrap.dll
 0000:fffa7000       .debug$S                   00400000     BugTrap:BugTrap.dll
 0000:fffa7000       .debug$S                   00400000     BugTrap:BugTrap.dll
 0000:fffa7000       .debug$S                   00400000     WS2_32:WS2_32.dll
 0000:fffa7000       .debug$S                   00400000     WS2_32:WS2_32.dll
 0000:fffa7000       .debug$S                   00400000     WS2_32:WS2_32.dll
 0000:fffa7000       .debug$S                   00400000     WS2_32:WS2_32.dll
 0000:fffa7000       .debug$S                   00400000     WS2_32:WS2_32.dll
 0000:fffa7000       .debug$S                   00400000     WS2_32:WS2_32.dll
 0000:fffa7000       .debug$S                   00400000     WS2_32:WS2_32.dll
 0000:fffa7000       .debug$S                   00400000     WS2_32:WS2_32.dll
 0000:fffa7000       .debug$S                   00400000     WS2_32:WS2_32.dll
 0000:fffa7000       .debug$S                   00400000     WS2_32:WS2_32.dll
 0000:fffa7000       .debug$S                   00400000     WS2_32:WS2_32.dll
 0000:fffa7000       .debug$S                   00400000     WS2_32:WS2_32.dll
 0000:fffa7000       .debug$S                   00400000     WS2_32:WS2_32.dll
 0000:fffa7000       .debug$S                   00400000     WS2_32:WS2_32.dll
 0000:fffa7000       .debug$S                   00400000     WS2_32:WS2_32.dll
 0000:fffa7000       .debug$S                   00400000     gdi32:GDI32.dll
 0000:fffa7000       .debug$S                   00400000     kernel32:KERNEL32.dll
 0000:fffa7000       .debug$S                   00400000     kernel32:KERNEL32.dll
 0000:fffa7000       .debug$S                   00400000     kernel32:KERNEL32.dll
 0000:fffa7000       .debug$S                   00400000     kernel32:KERNEL32.dll
 0000:fffa7000       .debug$S                   00400000     kernel32:KERNEL32.dll
 0000:fffa7000       .debug$S                   00400000     kernel32:KERNEL32.dll
 0000:fffa7000       .debug$S                   00400000     kernel32:KERNEL32.dll
 0000:fffa7000       .debug$S                   00400000     kernel32:KERNEL32.dll
 0000:fffa7000       .debug$S                   00400000     kernel32:KERNEL32.dll
 0000:fffa7000       .debug$S                   00400000     kernel32:KERNEL32.dll
 0000:fffa7000       .debug$S                   00400000     kernel32:KERNEL32.dll
 0000:fffa7000       .debug$S                   00400000     kernel32:KERNEL32.dll
 0000:fffa7000       .debug$S                   00400000     kernel32:KERNEL32.dll
 0000:fffa7000       .debug$S                   00400000     kernel32:KERNEL32.dll
 0000:fffa7000       .debug$S                   00400000     kernel32:KERNEL32.dll
 0000:fffa7000       .debug$S                   00400000     kernel32:KERNEL32.dll
 0000:fffa7000       .debug$S                   00400000     kernel32:KERNEL32.dll
 0000:fffa7000       .debug$S                   00400000     kernel32:KERNEL32.dll
 0000:fffa7000       .debug$S                   00400000     kernel32:KERNEL32.dll
 0000:fffa7000       .debug$S                   00400000     kernel32:KERNEL32.dll
 0000:fffa7000       .debug$S                   00400000     kernel32:KERNEL32.dll
 0000:fffa7000       .debug$S                   00400000     kernel32:KERNEL32.dll
 0000:fffa7000       .debug$S                   00400000     kernel32:KERNEL32.dll
 0000:fffa7000       .debug$S                   00400000     kernel32:KERNEL32.dll
 0000:fffa7000       .debug$S                   00400000     kernel32:KERNEL32.dll
 0000:fffa7000       .debug$S                   00400000     kernel32:KERNEL32.dll
 0000:fffa7000       .debug$S                   00400000     kernel32:KERNEL32.dll
 0000:fffa7000       .debug$S                   00400000     kernel32:KERNEL32.dll
 0000:fffa7000       .debug$S                   00400000     kernel32:KERNEL32.dll
 0000:fffa7000       .debug$S                   00400000     kernel32:KERNEL32.dll
 0000:fffa7000       .debug$S                   00400000     kernel32:KERNEL32.dll
 0000:fffa7000       .debug$S                   00400000     kernel32:KERNEL32.dll
 0000:fffa7000       .debug$S                   00400000     kernel32:KERNEL32.dll
 0000:fffa7000       .debug$S                   00400000     kernel32:KERNEL32.dll
 0000:fffa7000       .debug$S                   00400000     kernel32:KERNEL32.dll
 0000:fffa7000       .debug$S                   00400000     kernel32:KERNEL32.dll
 0000:fffa7000       .debug$S                   00400000     kernel32:KERNEL32.dll
 0000:fffa7000       .debug$S                   00400000     kernel32:KERNEL32.dll
 0000:fffa7000       .debug$S                   00400000     kernel32:KERNEL32.dll
 0000:fffa7000       .debug$S                   00400000     kernel32:KERNEL32.dll
 0000:fffa7000       .debug$S                   00400000     kernel32:KERNEL32.dll
 0000:fffa7000       .debug$S                   00400000     kernel32:KERNEL32.dll
 0000:fffa7000       .debug$S                   00400000     kernel32:KERNEL32.dll
 0000:fffa7000       .debug$S                   00400000     kernel32:KERNEL32.dll
 0000:fffa7000       .debug$S                   00400000     kernel32:KERNEL32.dll
 0000:fffa7000       .debug$S                   00400000     kernel32:KERNEL32.dll
 0000:fffa7000       .debug$S                   00400000     kernel32:KERNEL32.dll
 0000:fffa7000       .debug$S                   00400000     kernel32:KERNEL32.dll
 0000:fffa7000       .debug$S                   00400000     kernel32:KERNEL32.dll
 0000:fffa7000       .debug$S                   00400000     kernel32:KERNEL32.dll
 0000:fffa7000       .debug$S                   00400000     kernel32:KERNEL32.dll
 0000:fffa7000       .debug$S                   00400000     kernel32:KERNEL32.dll
 0000:fffa7000       .debug$S                   00400000     kernel32:KERNEL32.dll
 0000:fffa7000       .debug$S                   00400000     kernel32:KERNEL32.dll
 0000:fffa7000       .debug$S                   00400000     kernel32:KERNEL32.dll
 0000:fffa7000       .debug$S                   00400000     kernel32:KERNEL32.dll
 0000:fffa7000       .debug$S                   00400000     kernel32:KERNEL32.dll
 0000:fffa7000       .debug$S                   00400000     kernel32:KERNEL32.dll
 0000:fffa7000       .debug$S                   00400000     kernel32:KERNEL32.dll
 0000:fffa7000       .debug$S                   00400000     kernel32:KERNEL32.dll
 0000:fffa7000       .debug$S                   00400000     kernel32:KERNEL32.dll
 0000:fffa7000       .debug$S                   00400000     kernel32:KERNEL32.dll
 0000:fffa7000       .debug$S                   00400000     kernel32:KERNEL32.dll
 0000:fffa7000       .debug$S                   00400000     kernel32:KERNEL32.dll
 0000:fffa7000       .debug$S                   00400000     kernel32:KERNEL32.dll
 0000:fffa7000       .debug$S                   00400000     kernel32:KERNEL32.dll
 0000:fffa7000       .debug$S                   00400000     kernel32:KERNEL32.dll
 0000:fffa7000       .debug$S                   00400000     kernel32:KERNEL32.dll
 0000:fffa7000       .debug$S                   00400000     kernel32:KERNEL32.dll
 0000:fffa7000       .debug$S                   00400000     kernel32:KERNEL32.dll
 0000:fffa7000       .debug$S                   00400000     kernel32:KERNEL32.dll
 0000:fffa7000       .debug$S                   00400000     kernel32:KERNEL32.dll
 0000:fffa7000       .debug$S                   00400000     kernel32:KERNEL32.dll
 0000:fffa7000       .debug$S                   00400000     kernel32:KERNEL32.dll
 0000:fffa7000       .debug$S                   00400000     kernel32:KERNEL32.dll
 0000:fffa7000       .debug$S                   00400000     kernel32:KERNEL32.dll
 0000:fffa7000       .debug$S                   00400000     kernel32:KERNEL32.dll
 0000:fffa7000       .debug$S                   00400000     kernel32:KERNEL32.dll
 0000:fffa7000       .debug$S                   00400000     kernel32:KERNEL32.dll
 0000:fffa7000       .debug$S                   00400000     kernel32:KERNEL32.dll
 0000:fffa7000       .debug$S                   00400000     kernel32:KERNEL32.dll
 0000:fffa7000       .debug$S                   00400000     kernel32:KERNEL32.dll
 0000:fffa7000       .debug$S                   00400000     kernel32:KERNEL32.dll
 0000:fffa7000       .debug$S                   00400000     kernel32:KERNEL32.dll
 0000:fffa7000       .debug$S                   00400000     kernel32:KERNEL32.dll
 0000:fffa7000       .debug$S                   00400000     kernel32:KERNEL32.dll
 0000:fffa7000       .debug$S                   00400000     kernel32:KERNEL32.dll
 0000:fffa7000       .debug$S                   00400000     kernel32:KERNEL32.dll
 0000:fffa7000       .debug$S                   00400000     kernel32:KERNEL32.dll
 0000:fffa7000       .debug$S                   00400000     kernel32:KERNEL32.dll
 0000:fffa7000       .debug$S                   00400000     kernel32:KERNEL32.dll
 0000:fffa7000       .debug$S                   00400000     kernel32:KERNEL32.dll
 0000:fffa7000       .debug$S                   00400000     kernel32:KERNEL32.dll
 0000:fffa7000       .debug$S                   00400000     kernel32:KERNEL32.dll
 0000:fffa7000       .debug$S                   00400000     kernel32:KERNEL32.dll
 0000:fffa7000       .debug$S                   00400000     kernel32:KERNEL32.dll
 0000:fffa7000       .debug$S                   00400000     kernel32:KERNEL32.dll
 0000:fffa7000       .debug$S                   00400000     kernel32:KERNEL32.dll
 0000:fffa7000       .debug$S                   00400000     kernel32:KERNEL32.dll
 0000:fffa7000       .debug$S                   00400000     kernel32:KERNEL32.dll
 0000:fffa7000       .debug$S                   00400000     kernel32:KERNEL32.dll
 0000:fffa7000       .debug$S                   00400000     kernel32:KERNEL32.dll
 0000:fffa7000       .debug$S                   00400000     user32:USER32.dll
 0000:fffa7000       .debug$S                   00400000     user32:USER32.dll
 0000:fffa7000       .debug$S                   00400000     user32:USER32.dll
 0000:fffa7000       .debug$S                   00400000     user32:USER32.dll
 0000:fffa7000       .debug$S                   00400000     user32:USER32.dll
 0000:fffa7000       .debug$S                   00400000     user32:USER32.dll
 0000:fffa7000       .debug$S                   00400000     user32:USER32.dll
 0000:fffa7000       .debug$S                   00400000     user32:USER32.dll
 0000:fffa7000       .debug$S                   00400000     user32:USER32.dll
 0000:fffa7000       .debug$S                   00400000     user32:USER32.dll
 0001:00000000       ??__EmDB@@YAXXZ            00401000 f   S08_MyDB.obj
 0001:00000060       ??__Eg_env@@YAXXZ          00401060 f   Server_EXTRA.obj
 0001:0000006c       ??__Ecout@std@@YAXXZ       0040106c f   libcpmt:cout.obj
 0001:0000008b       ??__Efout@std@@YAXXZ       0040108b f   libcpmt:cout.obj
 0001:000000c5       ??__Einit_cout@std@@YAXXZ  004010c5 f   libcpmt:cout.obj
 0001:000000cf       ??__Einitlocks@@YAXXZ      004010cf f   libcpmt:cout.obj
 0001:000000e5       ??__Einitlocks@std@@YAXXZ  004010e5 f   libcpmt:xlock.obj
 0001:000000fb       ??__Eclassic_locale@std@@YAXXZ 004010fb f   libcpmt:locale0.obj
 0001:00000107       ??__F_Fac_tidy_reg@std@@YAXXZ 00401107 f   libcpmt:locale0.obj
 0001:00000113       ??__Einitlocks@std@@YAXXZ  00401113 f   libcpmt:iosptrs.obj
 0001:00000129       ??__Finit_atexit@@YAXXZ    00401129 f   libcpmt:iosptrs.obj
 0001:00000b10       __catch$??$?6U?$char_traits@D@std@@@std@@YAAAV?$basic_ostream@DU?$char_traits@D@std@@@0@AAV10@PBD@Z$0 00401b10 f i TimeLog.obj
 0001:000013c2       __catch$?_Osfx@?$basic_ostream@DU?$char_traits@D@std@@@std@@QAEXXZ$0 004023c2 f i TimeLog.obj
 0001:0000178d       __catch$?flush@?$basic_ostream@DU?$char_traits@D@std@@@std@@QAEAAV12@XZ$0 0040278d f i TimeLog.obj
 0001:00002124       $LN111                     00403124     S02_MyServer.obj
 0001:00002138       $LN110                     00403138     S02_MyServer.obj
 0001:00003988       $LN227                     00404988     S04_MyWork02.obj
 0001:00006ff3       _initialize_environment    00407ff3 f i libucrt:initialization.obj
 0001:00006ff3       _initialize_global_state_isolation 00407ff3 f i libucrt:initialization.obj
 0001:00006ff3       _report_memory_leaks       00407ff3 f i libucrt:initialization.obj
 0001:00006ff3       _uninitialize_c            00407ff3 f i libucrt:initialization.obj
 0001:00006ff3       _uninitialize_global_state_isolation 00407ff3 f i libucrt:initialization.obj
 0001:00007577       _no_op_initialize          00408577 f i libucrt:wsetlocale.obj
 0001:00007f7e       _tidy_global               00408f7e f   libcpmt:locale0.obj
 0001:000086a5       ?find_pe_section@@YAPAU_IMAGE_SECTION_HEADER@@QAEI@Z 004096a5 f   LIBCMT:utility.obj
 0001:00008bc0       $$000000                   00409bc0     LIBCMT:chkstk.obj
 0001:00008bd4       cs10                       00409bd4     LIBCMT:chkstk.obj
 0001:00008be2       cs20                       00409be2     LIBCMT:chkstk.obj
 0001:00008beb       ?pre_c_initialization@@YAHXZ 00409beb f   LIBCMT:exe_main.obj
 0001:00008c96       ?post_pgo_initialization@@YAHXZ 00409c96 f   LIBCMT:exe_main.obj
 0001:00008c9e       ?pre_cpp_initialization@@YAXXZ 00409c9e f   LIBCMT:exe_main.obj
 0001:00008cb0       ?__scrt_common_main_seh@@YAHXZ 00409cb0 f   LIBCMT:exe_main.obj
 0001:00008f10       $$000000                   00409f10     LIBCMT:alloca16.obj
 0001:00008f26       alloca_8                   00409f26     LIBCMT:alloca16.obj
 0001:00009120       $$000000                   0040a120     LIBCMT:llmul.obj
 0001:00009139       hard                       0040a139     LIBCMT:llmul.obj
 0001:00009160       $$000000                   0040a160     LIBCMT:ulldiv.obj
 0001:00009182       L1                         0040a182     LIBCMT:ulldiv.obj
 0001:00009190       L3                         0040a190     LIBCMT:ulldiv.obj
 0001:000091be       L4                         0040a1be     LIBCMT:ulldiv.obj
 0001:000091bf       L5                         0040a1bf     LIBCMT:ulldiv.obj
 0001:000091c3       L2                         0040a1c3     LIBCMT:ulldiv.obj
 0001:00009310       ?is_managed_app@@YA_NXZ    0040a310 f   libucrt:exit.obj
 0001:000093c0       $$000000                   0040a3c0     LIBCMT:sehprolg4.obj
 0001:00009405       ___get_entropy             0040a405 f   LIBCMT:gs_support.obj
 0001:00009660       $$000000                   0040a660     libvcruntime:memcpy.obj
 0001:00009660       $$000000                   0040a660     libvcruntime:memmove.obj
 0001:00009680       CopyUp                     0040a680     libvcruntime:memcpy.obj
 0001:00009680       CopyUp                     0040a680     libvcruntime:memmove.obj
 0001:000096a4       CopyUpLargeMov             0040a6a4     libvcruntime:memcpy.obj
 0001:000096a4       CopyUpLargeMov             0040a6a4     libvcruntime:memmove.obj
 0001:000096b7       CopyUpSSE2Check            0040a6b7     libvcruntime:memcpy.obj
 0001:000096b7       CopyUpSSE2Check            0040a6b7     libvcruntime:memmove.obj
 0001:000096d0       AtomChk                    0040a6d0     libvcruntime:memcpy.obj
 0001:000096d0       AtomChk                    0040a6d0     libvcruntime:memmove.obj
 0001:000096f6       PalignHead4                0040a6f6     libvcruntime:memcpy.obj
 0001:000096f6       PalignHead4                0040a6f6     libvcruntime:memmove.obj
 0001:00009709       PalignHead8                0040a709     libvcruntime:memcpy.obj
 0001:00009709       PalignHead8                0040a709     libvcruntime:memmove.obj
 0001:00009720       PalignLoop                 0040a720     libvcruntime:memcpy.obj
 0001:00009720       PalignLoop                 0040a720     libvcruntime:memmove.obj
 0001:00009732       MovPalign12                0040a732     libvcruntime:memcpy.obj
 0001:00009732       MovPalign12                0040a732     libvcruntime:memmove.obj
 0001:0000973c       PalignLoop12               0040a73c     libvcruntime:memcpy.obj
 0001:0000973c       PalignLoop12               0040a73c     libvcruntime:memmove.obj
 0001:0000978d       MovPalign8                 0040a78d     libvcruntime:memcpy.obj
 0001:0000978d       MovPalign8                 0040a78d     libvcruntime:memmove.obj
 0001:00009798       PalignLoop8                0040a798     libvcruntime:memcpy.obj
 0001:00009798       PalignLoop8                0040a798     libvcruntime:memmove.obj
 0001:000097e6       MovPalign4                 0040a7e6     libvcruntime:memcpy.obj
 0001:000097e6       MovPalign4                 0040a7e6     libvcruntime:memmove.obj
 0001:000097f0       PalignLoop4                0040a7f0     libvcruntime:memcpy.obj
 0001:000097f0       PalignLoop4                0040a7f0     libvcruntime:memmove.obj
 0001:0000983c       PalignTail                 0040a83c     libvcruntime:memcpy.obj
 0001:0000983c       PalignTail                 0040a83c     libvcruntime:memmove.obj
 0001:00009854       PalignTail4                0040a854     libvcruntime:memcpy.obj
 0001:00009854       PalignTail4                0040a854     libvcruntime:memmove.obj
 0001:00009867       PalignTail8                0040a867     libvcruntime:memcpy.obj
 0001:00009867       PalignTail8                0040a867     libvcruntime:memmove.obj
 0001:0000987e       PalignTailLE3              0040a87e     libvcruntime:memcpy.obj
 0001:0000987e       PalignTailLE3              0040a87e     libvcruntime:memmove.obj
 0001:00009887       Dword_align                0040a887     libvcruntime:memcpy.obj
 0001:00009887       Dword_align                0040a887     libvcruntime:memmove.obj
 0001:0000988f       Dword_up_align_loop        0040a88f     libvcruntime:memcpy.obj
 0001:0000988f       Dword_up_align_loop        0040a88f     libvcruntime:memmove.obj
 0001:000098a2       Dword_align_Ok             0040a8a2     libvcruntime:memcpy.obj
 0001:000098a2       Dword_align_Ok             0040a8a2     libvcruntime:memmove.obj
 0001:000098bc       ByteCopyUp                 0040a8bc     libvcruntime:memcpy.obj
 0001:000098bc       ByteCopyUp                 0040a8bc     libvcruntime:memmove.obj
 0001:000098c4       TrailingUpVec              0040a8c4     libvcruntime:memcpy.obj
 0001:000098c4       TrailingUpVec              0040a8c4     libvcruntime:memmove.obj
 0001:000098d4       TrailingUp0                0040a8d4     libvcruntime:memcpy.obj
 0001:000098d4       TrailingUp0                0040a8d4     libvcruntime:memmove.obj
 0001:000098dc       TrailingUp1                0040a8dc     libvcruntime:memcpy.obj
 0001:000098dc       TrailingUp1                0040a8dc     libvcruntime:memmove.obj
 0001:000098e8       TrailingUp2                0040a8e8     libvcruntime:memcpy.obj
 0001:000098e8       TrailingUp2                0040a8e8     libvcruntime:memmove.obj
 0001:000098fc       TrailingUp3                0040a8fc     libvcruntime:memcpy.obj
 0001:000098fc       TrailingUp3                0040a8fc     libvcruntime:memmove.obj
 0001:00009914       CopyDown                   0040a914     libvcruntime:memcpy.obj
 0001:00009914       CopyDown                   0040a914     libvcruntime:memmove.obj
 0001:00009939       CopyDownNotAligned         0040a939     libvcruntime:memcpy.obj
 0001:00009939       CopyDownNotAligned         0040a939     libvcruntime:memmove.obj
 0001:00009940       CopyDownAlignLoop          0040a940     libvcruntime:memcpy.obj
 0001:00009940       CopyDownAlignLoop          0040a940     libvcruntime:memmove.obj
 0001:0000994d       CopyDownAligned            0040a94d     libvcruntime:memcpy.obj
 0001:0000994d       CopyDownAligned            0040a94d     libvcruntime:memmove.obj
 0001:00009970       TrailingDownVec            0040a970     libvcruntime:memcpy.obj
 0001:00009970       TrailingDownVec            0040a970     libvcruntime:memmove.obj
 0001:00009980       TrailingDown0              0040a980     libvcruntime:memcpy.obj
 0001:00009980       TrailingDown0              0040a980     libvcruntime:memmove.obj
 0001:00009988       TrailingDown1              0040a988     libvcruntime:memcpy.obj
 0001:00009988       TrailingDown1              0040a988     libvcruntime:memmove.obj
 0001:00009998       TrailingDown2              0040a998     libvcruntime:memcpy.obj
 0001:00009998       TrailingDown2              0040a998     libvcruntime:memmove.obj
 0001:000099ac       TrailingDown3              0040a9ac     libvcruntime:memcpy.obj
 0001:000099ac       TrailingDown3              0040a9ac     libvcruntime:memmove.obj
 0001:000099c5       XmmMovLargeAlignTest       0040a9c5     libvcruntime:memcpy.obj
 0001:000099c5       XmmMovLargeAlignTest       0040a9c5     libvcruntime:memmove.obj
 0001:000099cd       XmmMovAlignLoop            0040a9cd     libvcruntime:memcpy.obj
 0001:000099cd       XmmMovAlignLoop            0040a9cd     libvcruntime:memmove.obj
 0001:000099dc       XmmMovLargeLoop            0040a9dc     libvcruntime:memcpy.obj
 0001:000099dc       XmmMovLargeLoop            0040a9dc     libvcruntime:memmove.obj
 0001:00009a4c       XmmMovSmallTest            0040aa4c     libvcruntime:memcpy.obj
 0001:00009a4c       XmmMovSmallTest            0040aa4c     libvcruntime:memmove.obj
 0001:00009a51       XmmMovSmallLoop            0040aa51     libvcruntime:memcpy.obj
 0001:00009a51       XmmMovSmallLoop            0040aa51     libvcruntime:memmove.obj
 0001:00009a74       CopyDownSmall              0040aa74     libvcruntime:memcpy.obj
 0001:00009a74       CopyDownSmall              0040aa74     libvcruntime:memmove.obj
 0001:00009a7c       CopyDownDwordLoop          0040aa7c     libvcruntime:memcpy.obj
 0001:00009a7c       CopyDownDwordLoop          0040aa7c     libvcruntime:memmove.obj
 0001:00009a91       CopyDownByteTest           0040aa91     libvcruntime:memcpy.obj
 0001:00009a91       CopyDownByteTest           0040aa91     libvcruntime:memmove.obj
 0001:00009a95       CopyDownByteLoop           0040aa95     libvcruntime:memcpy.obj
 0001:00009a95       CopyDownByteLoop           0040aa95     libvcruntime:memmove.obj
 0001:00009aa4       CopyDownReturn             0040aaa4     libvcruntime:memcpy.obj
 0001:00009aa4       CopyDownReturn             0040aaa4     libvcruntime:memmove.obj
 0001:00009ab0       XmmCopy                    0040aab0     libvcruntime:memcpy.obj
 0001:00009ab0       XmmCopy                    0040aab0     libvcruntime:memmove.obj
 0001:00009abd       XmmCopyAligned             0040aabd     libvcruntime:memcpy.obj
 0001:00009abd       XmmCopyAligned             0040aabd     libvcruntime:memmove.obj
 0001:00009ad0       XmmCopyLargeLoop           0040aad0     libvcruntime:memcpy.obj
 0001:00009ad0       XmmCopyLargeLoop           0040aad0     libvcruntime:memmove.obj
 0001:00009b2d       XmmCopySmallTest           0040ab2d     libvcruntime:memcpy.obj
 0001:00009b2d       XmmCopySmallTest           0040ab2d     libvcruntime:memmove.obj
 0001:00009b40       XmmCopySmallLoop           0040ab40     libvcruntime:memcpy.obj
 0001:00009b40       XmmCopySmallLoop           0040ab40     libvcruntime:memmove.obj
 0001:00009b5b       CopyUpDwordMov             0040ab5b     libvcruntime:memcpy.obj
 0001:00009b5b       CopyUpDwordMov             0040ab5b     libvcruntime:memmove.obj
 0001:00009b60       CopyUpDwordTest            0040ab60     libvcruntime:memcpy.obj
 0001:00009b60       CopyUpDwordTest            0040ab60     libvcruntime:memmove.obj
 0001:00009b67       CopyUpDwordLoop            0040ab67     libvcruntime:memcpy.obj
 0001:00009b67       CopyUpDwordLoop            0040ab67     libvcruntime:memmove.obj
 0001:00009b76       CopyUpByteTest             0040ab76     libvcruntime:memcpy.obj
 0001:00009b76       CopyUpByteTest             0040ab76     libvcruntime:memmove.obj
 0001:00009b7d       CopyUpByteLoop             0040ab7d     libvcruntime:memcpy.obj
 0001:00009b7d       CopyUpByteLoop             0040ab7d     libvcruntime:memmove.obj
 0001:00009b90       CopyUpReturn               0040ab90     libvcruntime:memcpy.obj
 0001:00009b90       CopyUpReturn               0040ab90     libvcruntime:memmove.obj
 0001:00009ba0       XmmCopyUnaligned           0040aba0     libvcruntime:memcpy.obj
 0001:00009ba0       XmmCopyUnaligned           0040aba0     libvcruntime:memmove.obj
 0001:00009bb3       XmmAlignByte               0040abb3     libvcruntime:memcpy.obj
 0001:00009bb3       XmmAlignByte               0040abb3     libvcruntime:memmove.obj
 0001:00009bbc       XmmAlignDwordTest          0040abbc     libvcruntime:memcpy.obj
 0001:00009bbc       XmmAlignDwordTest          0040abbc     libvcruntime:memmove.obj
 0001:00009bc1       XmmAlignDwordLoop          0040abc1     libvcruntime:memcpy.obj
 0001:00009bc1       XmmAlignDwordLoop          0040abc1     libvcruntime:memmove.obj
 0001:00009bce       XmmAlignAdjustCnt          0040abce     libvcruntime:memcpy.obj
 0001:00009bce       XmmAlignAdjustCnt          0040abce     libvcruntime:memmove.obj
 0001:00009c8e       ?_FilterSetCurrentException@@YAKPAU_EXCEPTION_POINTERS@@E@Z 0040ac8e f   libvcruntime:ehhelpers.obj
 0001:0000a150       $$000000                   0040b150     libvcruntime:memset.obj
 0001:0000a195       XMMMov                     0040b195     libvcruntime:memset.obj
 0001:0000a1d0       LargeRangeBytes            0040b1d0     libvcruntime:memset.obj
 0001:0000a20d       XmmMovSmall                0040b20d     libvcruntime:memset.obj
 0001:0000a220       XmmSmallLoop               0040b220     libvcruntime:memset.obj
 0001:0000a225       MidRangeBytes              0040b225     libvcruntime:memset.obj
 0001:0000a241       XMMTrailingBytes           0040b241     libvcruntime:memset.obj
 0001:0000a255       SmallMov                   0040b255     libvcruntime:memset.obj
 0001:0000a25d       ByteLoop                   0040b25d     libvcruntime:memset.obj
 0001:0000a26b       DwordTest                  0040b26b     libvcruntime:memset.obj
 0001:0000a27b       QwordTest                  0040b27b     libvcruntime:memset.obj
 0001:0000a290       QwordLoop                  0040b290     libvcruntime:memset.obj
 0001:0000a2a3       toend                      0040b2a3     libvcruntime:memset.obj
 0001:0000b8ec       $LN1250                    0040c8ec     libvcruntime:memcmp.obj
 0001:0000b9b0       _ValidateLocalCookies      0040c9b0 f   libvcruntime:chandler4.obj
 0001:0000bccb       ??$BuildCatchObjectHelperInternal@V__FrameHandler3@@@@YAHPAUEHExceptionRecord@@PAXPBU_s_HandlerType@@PBU_s_CatchableType@@@Z 0040cccb f   libvcruntime:frame.obj
 0001:0000be09       ??$BuildCatchObjectInternal@V__FrameHandler3@@@@YAXPAUEHExceptionRecord@@PAXPBU_s_HandlerType@@PBU_s_CatchableType@@@Z 0040ce09 f   libvcruntime:frame.obj
 0001:0000bea2       ??$CatchIt@V__FrameHandler3@@@@YAXPAUEHExceptionRecord@@PAUEHRegistrationNode@@PAU_CONTEXT@@PAXPBU_s_FuncInfo@@PBU_s_HandlerType@@PBU_s_CatchableType@@PBU_s_TryBlockMapEntry@@H1EE@Z 0040cea2 f   libvcruntime:frame.obj
 0001:0000bf22       ??$FindHandler@V__FrameHandler3@@@@YAXPAUEHExceptionRecord@@PAUEHRegistrationNode@@PAU_CONTEXT@@PAXPBU_s_FuncInfo@@EH1@Z 0040cf22 f   libvcruntime:frame.obj
 0001:0000c2c7       ??$FindHandlerForForeignException@V__FrameHandler3@@@@YAXPAUEHExceptionRecord@@PAUEHRegistrationNode@@PAU_CONTEXT@@PAXPBU_s_FuncInfo@@HH1@Z 0040d2c7 f   libvcruntime:frame.obj
 0001:0000c5e8       ?CallCatchBlock@@YAPAXPAUEHExceptionRecord@@PAUEHRegistrationNode@@PAU_CONTEXT@@PBU_s_FuncInfo@@PAXHK@Z 0040d5e8 f   libvcruntime:frame.obj
 0001:0000c7b7       ?CallUnexpected@@YAXPBU_s_ESTypeList@@@Z 0040d7b7 f   libvcruntime:frame.obj
 0001:0000c7d7       __catch$?CallUnexpected@@YAXPBU_s_ESTypeList@@@Z$0 0040d7d7 f   libvcruntime:frame.obj
 0001:0000c7f6       ?ExFilterRethrow@@YAHPAU_EXCEPTION_POINTERS@@@Z 0040d7f6 f   libvcruntime:frame.obj
 0001:0000c940       ?IsInExceptionSpec@@YAEPAUEHExceptionRecord@@PBU_s_ESTypeList@@@Z 0040d940 f   libvcruntime:frame.obj
 0001:0000ca10       $$000000                   0040da10     libvcruntime:lowhelpr.obj
 0001:0000ca4f       _NLG_Continue              0040da4f     libvcruntime:lowhelpr.obj
 0001:0000cb00       $$000000                   0040db00     libvcruntime:exsup4.obj
 0001:0000cb32       _lu_top                    0040db32     libvcruntime:exsup4.obj
 0001:0000cb91       _lu_done                   0040db91     libvcruntime:exsup4.obj
 0001:0000cba0       $$000000                   0040dba0     libvcruntime:exsup4.obj
 0001:0000cba0       __unwind_handler4          0040dba0 f   libvcruntime:exsup4.obj
 0001:0000cbf0       $$000000                   0040dbf0     libvcruntime:exsup4.obj
 0001:0000cc10       $$000000                   0040dc10     libvcruntime:exsup4.obj
 0001:0000cc30       $$000000                   0040dc30     libvcruntime:exsup4.obj
 0001:0000cc45       ReturnPoint                0040dc45     libvcruntime:exsup4.obj
 0001:0000cc50       $$000000                   0040dc50     libvcruntime:exsup4.obj
 0001:0000cc67       ?try_get_function@@YAPAXW4function_id@?A0x14174aea@@QBDQBW4module_id@2@2@Z 0040dc67 f   libvcruntime:winapi_downlevel.obj
 0001:0000cd07       ?try_load_library_from_system_directory@@YAPAUHINSTANCE__@@QB_W@Z 0040dd07 f   libvcruntime:winapi_downlevel.obj
 0001:0000ced0       $$000000                   0040ded0     libvcruntime:exsup.obj
 0001:0000cee0       $$000000                   0040dee0     libvcruntime:exsup.obj
 0001:0000ceeb       __NLG_Go                   0040deeb     libvcruntime:exsup.obj
 0001:0000cf00       $$000000                   0040df00     libvcruntime:exsup.obj
 0001:0000d2df       ??$common_xtox@K_W@@YAHKQA_WII_N@Z 0040e2df f   libucrt:xtoa.obj
 0001:0000d39b       ??$common_xtox_s@K_W@@YAHKQA_WII_N@Z 0040e39b f   libucrt:xtoa.obj
 0001:0000d440       ??$?RV<lambda_62491a2101a2aba6cc4a769149c84f1f>@@AAV<lambda_826c27fce7726908515bbc79a5266961>@@V<lambda_4e64bbd54b50a7b070e3ea8d795375b6>@@@?$__crt_seh_guarded_call@H@@QAEH$$QAV<lambda_62491a2101a2aba6cc4a769149c84f1f>@@AAV<lambda_826c27fce7726908515bbc79a5266961>@@$$QAV<lambda_4e64bbd54b50a7b070e3ea8d795375b6>@@@Z 0040e440 f   libucrt:output.obj
 0001:0000d49b       ??$common_vsprintf@Vstandard_base@__crt_stdio_output@@D@@YAH_KQADIQBDAAV__crt_cached_ptd_host@@1@Z 0040e49b f   libucrt:output.obj
 0001:0000e196       ??R<lambda_826c27fce7726908515bbc79a5266961>@@QBEHXZ 0040f196 f   libucrt:output.obj
 0001:0000e631       $LN121                     0040f631     libucrt:output.obj
 0001:0000e905       $LN130                     0040f905     libucrt:output.obj
 0001:0000f2ac       $LN18                      004102ac     libucrt:output.obj
 0001:0000f2c0       $LN17                      004102c0     libucrt:output.obj
 0001:0000fabb       ??$common_strtime_s@D@@YAHQADI@Z 00410abb f   libucrt:strtime.obj
 0001:000106ee       ?_fclose_internal@@YAHQAU_iobuf@@AAV__crt_cached_ptd_host@@@Z 004116ee f   libucrt:fclose.obj
 0001:00010785       ?_fclose_nolock_internal@@YAHQAU_iobuf@@AAV__crt_cached_ptd_host@@@Z 00411785 f   libucrt:fclose.obj
 0001:00010843       ??$common_fgets@D@@YAPADQADHV__crt_stdio_stream@@@Z 00411843 f   libucrt:fgets.obj
 0001:00010920       ??$common_fsopen@D@@YAPAU_iobuf@@QBD0H@Z 00411920 f   libucrt:fopen.obj
 0001:000109f0       $$000000                   004119f0     libucrt:strncpy.obj
 0001:00010b14       ??$?RV<lambda_2866be3712abc81a800a822484c830d8>@@AAV<lambda_39ca0ed439415581b5b15c265174cece>@@V<lambda_2b24c74d71094a6cd0cb82e44167d71b>@@@?$__crt_seh_guarded_call@X@@QAEX$$QAV<lambda_2866be3712abc81a800a822484c830d8>@@AAV<lambda_39ca0ed439415581b5b15c265174cece>@@$$QAV<lambda_2b24c74d71094a6cd0cb82e44167d71b>@@@Z 00411b14 f   libucrt:fflush.obj
 0001:00010ba0       ??$?RV<lambda_2cc53f568c5a2bb6f192f930a45d44ea>@@AAV<lambda_ab61a845afdef5b7c387490eaf3616ee>@@V<lambda_c2ffc0b7726aa6be21d5f0026187e748>@@@?$__crt_seh_guarded_call@X@@QAEX$$QAV<lambda_2cc53f568c5a2bb6f192f930a45d44ea>@@AAV<lambda_ab61a845afdef5b7c387490eaf3616ee>@@$$QAV<lambda_c2ffc0b7726aa6be21d5f0026187e748>@@@Z 00411ba0 f   libucrt:fflush.obj
 0001:00010c4c       ??$?RV<lambda_6d20deecaf4856105ebacbad442d1079>@@AAV<lambda_9a32fed5bf61b6b509b2d3f6003082a1>@@V<lambda_63ea2239ed67c638ddbae41947fdf875>@@@?$__crt_seh_guarded_call@H@@QAEH$$QAV<lambda_6d20deecaf4856105ebacbad442d1079>@@AAV<lambda_9a32fed5bf61b6b509b2d3f6003082a1>@@$$QAV<lambda_63ea2239ed67c638ddbae41947fdf875>@@@Z 00411c4c f   libucrt:fflush.obj
 0001:00010cac       ?common_flush_all@@YAH_N@Z 00411cac f   libucrt:fflush.obj
 0001:00010cf9       ?common_flush_all_should_try_to_flush_stream@@YA_NV__crt_stdio_stream@@QAH@Z 00411cf9 f   libucrt:fflush.obj
 0001:00010d2a       ?is_stream_flushable_or_commitable@@YA_NJ@Z 00411d2a f   libucrt:fflush.obj
 0001:00011032       ?_fputc_internal@@YAHHQAU_iobuf@@AAV__crt_cached_ptd_host@@@Z 00412032 f   libucrt:fputc.obj
 0001:0001145a       _memcpy_s                  0041245a f   libucrt:cfout.obj
 0001:0001145a       _memcpy_s                  0041245a f   libucrt:strtod.obj
 0001:0001145a       _memcpy_s                  0041245a f   libucrt:mbctype.obj
 0001:0001145a       _memcpy_s                  0041245a f   libucrt:fread.obj
 0001:00011590       ?common_fseek@@YAHV__crt_stdio_stream@@_JHAAV__crt_cached_ptd_host@@@Z 00412590 f   libucrt:fseek.obj
 0001:0001163a       ?common_fseek_binary_mode_read_only_fast_track_nolock@@YA_NV__crt_stdio_stream@@_JH@Z 0041263a f   libucrt:fseek.obj
 0001:00011713       ?common_fseek_nolock@@YAHV__crt_stdio_stream@@_JHAAV__crt_cached_ptd_host@@@Z 00412713 f   libucrt:fseek.obj
 0001:00011839       ??$?RV<lambda_76055cf4b68c1f980da8b7496a3ae623>@@AAV<lambda_26974eb511f701c600fccfa2a97a8e1b>@@V<lambda_0062726809bb3c529c0733aa37379daf>@@@?$__crt_seh_guarded_call@I@@QAEI$$QAV<lambda_76055cf4b68c1f980da8b7496a3ae623>@@AAV<lambda_26974eb511f701c600fccfa2a97a8e1b>@@$$QAV<lambda_0062726809bb3c529c0733aa37379daf>@@@Z 00412839 f   libucrt:fwrite.obj
 0001:00011894       ??R<lambda_26974eb511f701c600fccfa2a97a8e1b>@@QBEIXZ 00412894 f   libucrt:fwrite.obj
 0001:00011b38       ??$?RV<lambda_c390c0748f48a7db46f6ce5cc3c796da>@@AAV<lambda_703a5c3f7c88128b7f5f7a8861b0a6e0>@@V<lambda_c16a91f8771b304e2b1164fb4c043437>@@@?$__crt_seh_guarded_call@H@@QAEH$$QAV<lambda_c390c0748f48a7db46f6ce5cc3c796da>@@AAV<lambda_703a5c3f7c88128b7f5f7a8861b0a6e0>@@$$QAV<lambda_c16a91f8771b304e2b1164fb4c043437>@@@Z 00412b38 f   libucrt:setvbuf.obj
 0001:00011b93       ??R<lambda_703a5c3f7c88128b7f5f7a8861b0a6e0>@@QBE@XZ 00412b93 f   libucrt:setvbuf.obj
 0001:00011c33       ?_setvbuf_internal@@YAHQAU_iobuf@@QADHIAAV__crt_cached_ptd_host@@@Z 00412c33 f   libucrt:setvbuf.obj
 0001:00011cc9       ?set_buffer@@YAHV__crt_stdio_stream@@QADIH@Z 00412cc9 f   libucrt:setvbuf.obj
 0001:00011f5f       ??$?RV<lambda_f5952838e36297a1e2e9d6c748429792>@@AAV<lambda_2116bde18c9e5f34230805ea4a4660ed>@@V<lambda_3c7107de1cc98bf330a3031f42c322a3>@@@?$__crt_seh_guarded_call@PAD@@QAEPAD$$QAV<lambda_f5952838e36297a1e2e9d6c748429792>@@AAV<lambda_2116bde18c9e5f34230805ea4a4660ed>@@$$QAV<lambda_3c7107de1cc98bf330a3031f42c322a3>@@@Z 00412f5f f   libucrt:setlocale.obj
 0001:00011fba       ??R<lambda_2116bde18c9e5f34230805ea4a4660ed>@@QBEPADXZ 00412fba f   libucrt:setlocale.obj
 0001:00012119       _call_wsetlocale           00413119 f   libucrt:setlocale.obj
 0001:00012e60       $$000000                   00413e60     libucrt:strcspn.obj
 0001:000135ef       ??$?RV<lambda_03b1d95aef87969028cfba75ccab2455>@@AAV<lambda_6e4b09c48022b2350581041d5f6b0c4c>@@V<lambda_22bdf7517842c4b3e53723af5aa32b9e>@@@?$__crt_seh_guarded_call@X@@QAEX$$QAV<lambda_03b1d95aef87969028cfba75ccab2455>@@AAV<lambda_6e4b09c48022b2350581041d5f6b0c4c>@@$$QAV<lambda_22bdf7517842c4b3e53723af5aa32b9e>@@@Z 004145ef f   libucrt:exit.obj
 0001:0001365b       ??R<lambda_6e4b09c48022b2350581041d5f6b0c4c>@@QBE@XZ 0041465b f   libucrt:exit.obj
 0001:00013743       ?common_exit@@YAXHW4_crt_exit_cleanup_mode@@W4_crt_exit_return_mode@@@Z 00414743 f   libucrt:exit.obj
 0001:000137da       ?exit_or_terminate_process@@YAXI@Z 004147da f   libucrt:exit.obj
 0001:0001380b       ?should_call_terminate_process@@YA_NXZ 0041480b f   libucrt:exit.obj
 0001:00013824       ?try_cor_exit_process@@YAXI@Z 00414824 f   libucrt:exit.obj
 0001:00013925       ??$common_configure_argv@D@@YAHW4_crt_argv_mode@@@Z 00414925 f   libucrt:argv_parsing.obj
 0001:00013a62       ??$parse_command_line@D@@YAXPADPAPAD0PAI2@Z 00414a62 f   libucrt:argv_parsing.obj
 0001:00013c30       ??$common_get_or_create_environment_nolock@D@@YAPAPADXZ 00414c30 f   libucrt:environment_initialization.obj
 0001:00013c5c       ??$common_initialize_environment_nolock@D@@YAHXZ 00414c5c f   libucrt:environment_initialization.obj
 0001:00013cb6       ??$create_environment@D@@YAQAPADQAD@Z 00414cb6 f   libucrt:environment_initialization.obj
 0001:00013d98       ??$free_environment@D@@YAXQAPAD@Z 00414d98 f   libucrt:environment_initialization.obj
 0001:00013d98       ??$free_environment@_W@@YAXQAPA_W@Z 00414d98 f   libucrt:environment_initialization.obj
 0001:00013dc7       ??$initialize_environment_by_cloning_nolock@D@@YAHXZ 00414dc7 f   libucrt:environment_initialization.obj
 0001:00013e4a       ??$uninitialize_environment_internal@D@@YAXAAPAPAD@Z 00414e4a f   libucrt:environment_initialization.obj
 0001:00013e65       ??$uninitialize_environment_internal@_W@@YAXAAPAPA_W@Z 00414e65 f   libucrt:environment_initialization.obj
 0001:00013eef       ??$?RV<lambda_69a2805e680e0e292e8ba93315fe43a8>@@AAV<lambda_f03950bc5685219e0bcd2087efbe011e>@@V<lambda_03fcd07e894ec930e3f35da366ca99d6>@@@?$__crt_seh_guarded_call@H@@QAEH$$QAV<lambda_69a2805e680e0e292e8ba93315fe43a8>@@AAV<lambda_f03950bc5685219e0bcd2087efbe011e>@@$$QAV<lambda_03fcd07e894ec930e3f35da366ca99d6>@@@Z 00414eef f   libucrt:onexit.obj
 0001:00013f4a       ??$?RV<lambda_8e746cf0007f6ed984d6f78af1fec997>@@AAV<lambda_22ebabd17bc4fa466a2aca6d8deb888d>@@V<lambda_18ed0c0b38a6dc0daf1e7ac6d6adf05e>@@@?$__crt_seh_guarded_call@H@@QAEH$$QAV<lambda_8e746cf0007f6ed984d6f78af1fec997>@@AAV<lambda_22ebabd17bc4fa466a2aca6d8deb888d>@@$$QAV<lambda_18ed0c0b38a6dc0daf1e7ac6d6adf05e>@@@Z 00414f4a f   libucrt:onexit.obj
 0001:00013fa5       ??R<lambda_22ebabd17bc4fa466a2aca6d8deb888d>@@QBE@XZ 00414fa5 f   libucrt:onexit.obj
 0001:000140a7       ??R<lambda_f03950bc5685219e0bcd2087efbe011e>@@QBE@XZ 004150a7 f   libucrt:onexit.obj
 0001:00014231       _initialize_global_variables 00415231 f   libucrt:initialization.obj
 0001:0001423e       _initialize_c              0041523e f   libucrt:initialization.obj
 0001:00014258       _uninitialize_environment  00415258 f   libucrt:initialization.obj
 0001:00014260       _initialize_pointers       00415260 f   libucrt:initialization.obj
 0001:0001428e       _uninitialize_vcruntime    0041528e f   libucrt:initialization.obj
 0001:00014297       _uninitialize_allocated_memory 00415297 f   libucrt:initialization.obj
 0001:000142ae       _uninitialize_allocated_io_buffers 004152ae f   libucrt:initialization.obj
 0001:000142fe       ??R<lambda_af42a3ee9806e9a7305d451646e05244>@@QBE@AAPAU__crt_multibyte_data@@@Z 004152fe f   libucrt:initialization.obj
 0001:000145b1       ??$?RV<lambda_4fdada1b837b2abbf20876fac97688ad>@@AAV<lambda_b57350f2640456a0859d250846f69caf>@@V<lambda_eed5e4f92b5b7d55fa22c48c484aaa54>@@@?$__crt_seh_guarded_call@X@@QAEX$$QAV<lambda_4fdada1b837b2abbf20876fac97688ad>@@AAV<lambda_b57350f2640456a0859d250846f69caf>@@$$QAV<lambda_eed5e4f92b5b7d55fa22c48c484aaa54>@@@Z 004155b1 f   libucrt:wsetlocale.obj
 0001:000145fe       ??$?RV<lambda_ac03c5d59bd18b09cb88b28331f6bfed>@@AAV<lambda_2a444430fde8c29194d880d93eed5e8f>@@AAV<lambda_02db5278e8aef8b5e4976579d73f5304>@@@?$__crt_seh_guarded_call@X@@QAEX$$QAV<lambda_ac03c5d59bd18b09cb88b28331f6bfed>@@AAV<lambda_2a444430fde8c29194d880d93eed5e8f>@@AAV<lambda_02db5278e8aef8b5e4976579d73f5304>@@@Z 004155fe f   libucrt:wsetlocale.obj
 0001:00014643       ??$?RV<lambda_e5124f882df8998aaf41531e079ba474>@@AAV<lambda_3e16ef9562a7dcce91392c22ab16ea36>@@V<lambda_e25ca0880e6ef98be67edffd8c599615>@@@?$__crt_seh_guarded_call@X@@QAEX$$QAV<lambda_e5124f882df8998aaf41531e079ba474>@@AAV<lambda_3e16ef9562a7dcce91392c22ab16ea36>@@$$QAV<lambda_e25ca0880e6ef98be67edffd8c599615>@@@Z 00415643 f   libucrt:wsetlocale.obj
 0001:0001472b       ??R<lambda_2a444430fde8c29194d880d93eed5e8f>@@QBE@XZ 0041572b f   libucrt:wsetlocale.obj
 0001:00014795       ??R<lambda_b57350f2640456a0859d250846f69caf>@@QBE@XZ 00415795 f   libucrt:wsetlocale.obj
 0001:00014bad       __copytlocinfo_nolock      00415bad f   libucrt:wsetlocale.obj
 0001:00014bdc       __expandlocale             00415bdc f   libucrt:wsetlocale.obj
 0001:00015066       __wsetlocale_get_all       00416066 f   libucrt:wsetlocale.obj
 0001:00015201       __wsetlocale_nolock        00416201 f   libucrt:wsetlocale.obj
 0001:000154f1       __wsetlocale_set_cat       004164f1 f   libucrt:wsetlocale.obj
 0001:000158b1       _get_default_code_page     004168b1 f   libucrt:wsetlocale.obj
 0001:000158e0       _parse_bcp47               004168e0 f   libucrt:wsetlocale.obj
 0001:00015aba       _parse_bcp47_code_page     00416aba f   libucrt:wsetlocale.obj
 0001:00015af9       _parse_bcp47_language      00416af9 f   libucrt:wsetlocale.obj
 0001:00015b6b       _parse_bcp47_region        00416b6b f   libucrt:wsetlocale.obj
 0001:00015c29       _parse_bcp47_script        00416c29 f   libucrt:wsetlocale.obj
 0001:00015c99       _string_is_alpha           00416c99 f   libucrt:wsetlocale.obj
 0001:00015f20       $$000000                   00416f20     libucrt:strncmp.obj
 0001:00015fd2       ??$?RV<lambda_15ade71b0218206bbe3333a0c9b79046>@@AAV<lambda_da44e0f8b0f19ba52fefafb335991732>@@V<lambda_207f2d024fc103971653565357d6cd41>@@@?$__crt_seh_guarded_call@X@@QAEX$$QAV<lambda_15ade71b0218206bbe3333a0c9b79046>@@AAV<lambda_da44e0f8b0f19ba52fefafb335991732>@@$$QAV<lambda_207f2d024fc103971653565357d6cd41>@@@Z 00416fd2 f   libucrt:per_thread_data.obj
 0001:00016024       ??$?RV<lambda_38edbb1296d33220d7e4dd0ed76b244a>@@AAV<lambda_5ce1d447e08cb34b2473517608e21441>@@V<lambda_fb385d3da700c9147fc39e65dd577a8c>@@@?$__crt_seh_guarded_call@X@@QAEX$$QAV<lambda_38edbb1296d33220d7e4dd0ed76b244a>@@AAV<lambda_5ce1d447e08cb34b2473517608e21441>@@$$QAV<lambda_fb385d3da700c9147fc39e65dd577a8c>@@@Z 00417024 f   libucrt:per_thread_data.obj
 0001:0001608f       ??$?RV<lambda_6affb1475c98b40b75cdec977db92e3c>@@AAV<lambda_b8d4b9c228a6ecc3f80208dbb4b4a104>@@V<lambda_608742c3c92a14382c1684fc64f96c88>@@@?$__crt_seh_guarded_call@X@@QAEX$$QAV<lambda_6affb1475c98b40b75cdec977db92e3c>@@AAV<lambda_b8d4b9c228a6ecc3f80208dbb4b4a104>@@$$QAV<lambda_608742c3c92a14382c1684fc64f96c88>@@@Z 0041708f f   libucrt:per_thread_data.obj
 0001:000160e4       ??$?RV<lambda_a7e850c220f1c8d1e6efeecdedd162c6>@@AAV<lambda_46720907175c18b6c9d2717bc0d2d362>@@V<lambda_9048902d66e8d99359bc9897bbb930a8>@@@?$__crt_seh_guarded_call@X@@QAEX$$QAV<lambda_a7e850c220f1c8d1e6efeecdedd162c6>@@AAV<lambda_46720907175c18b6c9d2717bc0d2d362>@@$$QAV<lambda_9048902d66e8d99359bc9897bbb930a8>@@@Z 004170e4 f   libucrt:per_thread_data.obj
 0001:0001613e       ?construct_ptd@@YAXQAU__acrt_ptd@@QAPAU__crt_locale_data@@@Z 0041713e f   libucrt:per_thread_data.obj
 0001:000161d7       ?destroy_fls@@YGXPAX@Z     004171d7 f   libucrt:per_thread_data.obj
 0001:000161f8       ?destroy_ptd@@YAXQAU__acrt_ptd@@@Z 004171f8 f   libucrt:per_thread_data.obj
 0001:000162c5       ?replace_current_thread_locale_nolock@@YAXQAU__acrt_ptd@@QAU__crt_locale_data@@@Z 004172c5 f   libucrt:per_thread_data.obj
 0001:000167a1       ?fe_to_nearest@@YA_NQBN_KF@Z 004177a1 f   libucrt:cvt.obj
 0001:00016844       ?fp_format_a@@YAHQBNPADIQADIH_NIW4__acrt_rounding_mode@@AAV__crt_cached_ptd_host@@@Z 00417844 f   libucrt:cvt.obj
 0001:00016b71       ?fp_format_e@@YAHQBNQADI1IH_NIW4__acrt_rounding_mode@@AAV__crt_cached_ptd_host@@@Z 00417b71 f   libucrt:cvt.obj
 0001:00016c15       ?fp_format_e_internal@@YAHQADIH_NIQAU_strflt@@1AAV__crt_cached_ptd_host@@@Z 00417c15 f   libucrt:cvt.obj
 0001:00016d68       ?fp_format_f@@YAHQBNQADI1IHW4__acrt_rounding_mode@@AAV__crt_cached_ptd_host@@@Z 00417d68 f   libucrt:cvt.obj
 0001:00016dfe       ?fp_format_f_internal@@YAHQADIHQAU_strflt@@_NAAV__crt_cached_ptd_host@@@Z 00417dfe f   libucrt:cvt.obj
 0001:00016eec       ?fp_format_g@@YAHQBNQADI1IH_NIW4__acrt_rounding_mode@@AAV__crt_cached_ptd_host@@@Z 00417eec f   libucrt:cvt.obj
 0001:00016fbb       ?fp_format_nan_or_infinity@@YAHW4__acrt_fp_class@@_NPADI1@Z 00417fbb f   libucrt:cvt.obj
 0001:00017050       ?shift_bytes@@YAXQADI0H@Z  00418050 f   libucrt:cvt.obj
 0001:00017084       ?should_round_up@@YA_NQBN_KFW4__acrt_rounding_mode@@@Z 00418084 f   libucrt:cvt.obj
 0001:00017698       ?initialize_inherited_file_handles_nolock@@YAXXZ 00418698 f   libucrt:ioinit.obj
 0001:0001774e       ?initialize_stdio_handles_nolock@@YAXXZ 0041874e f   libucrt:ioinit.obj
 0001:000178fe       ?<lambda_invoker_stdcall>@<lambda_29d3c280b90b41c2ae070ffca879996a>@@CG@PA_W@Z 004188fe f   libucrt:winapi_thunks.obj
 0001:0001790b       ??$?RV<lambda_6b4b7855443974f2b4b77000ea21c99c>@@AAV<lambda_8f7d3b162ab39427f4fa9995c67a7986>@@V<lambda_cc9a5ba8a5d8428b9634eab82665e5dc>@@@?$__crt_seh_guarded_call@H@@QAEH$$QAV<lambda_6b4b7855443974f2b4b77000ea21c99c>@@AAV<lambda_8f7d3b162ab39427f4fa9995c67a7986>@@$$QAV<lambda_cc9a5ba8a5d8428b9634eab82665e5dc>@@@Z 0041890b f   libucrt:winapi_thunks.obj
 0001:00017987       ??R<lambda_29d3c280b90b41c2ae070ffca879996a>@@QBE@PA_W@Z 00418987 f   libucrt:winapi_thunks.obj
 0001:000179ba       ?try_get_AreFileApisANSI@@YAP6GHXZXZ 004189ba f   libucrt:winapi_thunks.obj
 0001:000179d4       ?try_get_CompareStringEx@@YAP6GHPB_WK0H0HPAU_nlsversioninfo@@PAXJ@ZXZ 004189d4 f   libucrt:winapi_thunks.obj
 0001:000179ee       ?try_get_EnumSystemLocalesEx@@YAP6GHP6GHPA_WKJ@ZKJPAX@ZXZ 004189ee f   libucrt:winapi_thunks.obj
 0001:00017a08       ?try_get_GetDateFormatEx@@YAP6GHPB_WKPBU_SYSTEMTIME@@0PA_WH0@ZXZ 00418a08 f   libucrt:winapi_thunks.obj
 0001:00017a22       ?try_get_GetLocaleInfoEx@@YAP6GHPB_WKPA_WH@ZXZ 00418a22 f   libucrt:winapi_thunks.obj
 0001:00017a3c       ?try_get_GetTimeFormatEx@@YAP6GHPB_WKPBU_SYSTEMTIME@@0PA_WH@ZXZ 00418a3c f   libucrt:winapi_thunks.obj
 0001:00017a56       ?try_get_GetUserDefaultLocaleName@@YAP6GHPA_WH@ZXZ 00418a56 f   libucrt:winapi_thunks.obj
 0001:00017a70       ?try_get_IsValidLocaleName@@YAP6GHPB_W@ZXZ 00418a70 f   libucrt:winapi_thunks.obj
 0001:00017a8a       ?try_get_LCIDToLocaleName@@YAP6GHKPA_WHK@ZXZ 00418a8a f   libucrt:winapi_thunks.obj
 0001:00017aa4       ?try_get_LCMapStringEx@@YAP6GHPB_WK0HPA_WHPAU_nlsversioninfo@@PAXJ@ZXZ 00418aa4 f   libucrt:winapi_thunks.obj
 0001:00017abe       ?try_get_LocaleNameToLCID@@YAP6GKPB_WK@ZXZ 00418abe f   libucrt:winapi_thunks.obj
 0001:00017ad8       ?try_get_first_available_module@@YAPAUHINSTANCE__@@QBW4module_id@?A0x391cf84c@@0@Z 00418ad8 f   libucrt:winapi_thunks.obj
 0001:00017ba3       ?try_get_function@@YAPAXW4function_id@?A0x391cf84c@@QBDQBW4module_id@2@2@Z 00418ba3 f   libucrt:winapi_thunks.obj
 0001:0001830a       ??$?RV<lambda_d422a76eb4c3bf3ad751449ab71a6ea4>@@AAV<lambda_c9ba49e555ba839a7b07aa3fbecb7617>@@V<lambda_9476263c8ee91a25d21c55370bdb50de>@@@?$__crt_seh_guarded_call@H@@QAEH$$QAV<lambda_d422a76eb4c3bf3ad751449ab71a6ea4>@@AAV<lambda_c9ba49e555ba839a7b07aa3fbecb7617>@@$$QAV<lambda_9476263c8ee91a25d21c55370bdb50de>@@@Z 0041930a f   libucrt:close.obj
 0001:000185b2       ?find_or_allocate_unused_stream_nolock@@YA?AV__crt_stdio_stream@@XZ 004195b2 f   libucrt:stream.obj
 0001:0001889e       ??$common_openfile@D@@YAPAU_iobuf@@QBD0HV__crt_stdio_stream@@@Z 0041989e f   libucrt:openfile.obj
 0001:00018a40       ??$?RV<lambda_9e9de3de5fa147e2223d7db92bc10aa6>@@AAV<lambda_38ce7e780aa69e748d6df282ebc68efe>@@V<lambda_8ca6da459f0f6780f1cff60fdc3d00e5>@@@?$__crt_seh_guarded_call@H@@QAEH$$QAV<lambda_9e9de3de5fa147e2223d7db92bc10aa6>@@AAV<lambda_38ce7e780aa69e748d6df282ebc68efe>@@$$QAV<lambda_8ca6da459f0f6780f1cff60fdc3d00e5>@@@Z 00419a40 f   libucrt:commit.obj
 0001:00018b5f       ?write_double_translated_ansi_nolock@@YA?AUwrite_result@?A0x17268360@@HQBDIAAV__crt_cached_ptd_host@@@Z 00419b5f f   libucrt:write.obj
 0001:00018f26       ?write_double_translated_unicode_nolock@@YA?AUwrite_result@?A0x17268360@@QBDI@Z 00419f26 f   libucrt:write.obj
 0001:00018f8e       ?write_requires_double_translation_nolock@@YA_NHAAV__crt_cached_ptd_host@@@Z 00419f8e f   libucrt:write.obj
 0001:0001900b       ?write_text_ansi_nolock@@YA?AUwrite_result@?A0x17268360@@HQBDI@Z 0041a00b f   libucrt:write.obj
 0001:000190e6       ?write_text_utf16le_nolock@@YA?AUwrite_result@?A0x17268360@@HQBDI@Z 0041a0e6 f   libucrt:write.obj
 0001:000191cf       ?write_text_utf8_nolock@@YA?AUwrite_result@?A0x17268360@@HQBDI@Z 0041a1cf f   libucrt:write.obj
 0001:00019665       ??$common_refill_and_read_nolock@D@@YAHV__crt_stdio_stream@@@Z 0041a665 f   libucrt:_filbuf.obj
 0001:000197ff       ??$common_ftell@_J@@YA_JV__crt_stdio_stream@@AAV__crt_cached_ptd_host@@@Z 0041a7ff f   libucrt:ftell.obj
 0001:0001988e       ??$common_ftell_nolock@_J@@YA_JV__crt_stdio_stream@@AAV__crt_cached_ptd_host@@@Z 0041a88e f   libucrt:ftell.obj
 0001:00019a2f       ?common_ftell_read_mode_nolock@@YA_JV__crt_stdio_stream@@_J1AAV__crt_cached_ptd_host@@@Z 0041aa2f f   libucrt:ftell.obj
 0001:00019bfa       ?common_ftell_translated_utf8_nolock@@YA_JV__crt_stdio_stream@@_JAAV__crt_cached_ptd_host@@@Z 0041abfa f   libucrt:ftell.obj
 0001:00019da5       ?count_newline_bytes@@YA_JQBD0W4__crt_lowio_text_mode@@@Z 0041ada5 f   libucrt:ftell.obj
 0001:00019e37       ??$common_flush_and_write_nolock@D@@YAHHV__crt_stdio_stream@@AAV__crt_cached_ptd_host@@@Z 0041ae37 f   libucrt:_flsbuf.obj
 0001:00019f2d       ??$write_buffer_nolock@D@@YA_NDV__crt_stdio_stream@@AAV__crt_cached_ptd_host@@@Z 0041af2d f   libucrt:_flsbuf.obj
 0001:00019fff       ?stream_is_at_end_of_file_nolock@@YA_NV__crt_stdio_stream@@@Z 0041afff f   libucrt:_flsbuf.obj
 0001:0001a08f       ??$translate_text_mode_nolock@D@@YAHHQADI@Z 0041b08f f   libucrt:read.obj
 0001:0001a1dc       ??$translate_text_mode_nolock@_W@@YAHHQA_WI@Z 0041b1dc f   libucrt:read.obj
 0001:0001a396       ?translate_ansi_or_utf8_nolock@@YAHHQADIQA_WI@Z 0041b396 f   libucrt:read.obj
 0001:0001a4ed       ?translate_utf16_from_console_nolock@@YAHHQA_WI@Z 0041b4ed f   libucrt:read.obj
 0001:0001aa0f       ??$common_lseek@_J@@YA_JH_JHAAV__crt_cached_ptd_host@@@Z 0041ba0f f   libucrt:lseek.obj
 0001:0001ab34       ??$common_lseek_nolock@_J@@YA_JH_JHAAV__crt_cached_ptd_host@@@Z 0041bb34 f   libucrt:lseek.obj
 0001:0001accf       ?_mbstowcs_internal@@YAHPAIPA_WIPBDIAAV__crt_cached_ptd_host@@@Z 0041bccf f   libucrt:mbstowcs.obj
 0001:0001adab       ?_mbstowcs_l_helper@@YAIPA_WPBDIAAV__crt_cached_ptd_host@@@Z 0041bdab f   libucrt:mbstowcs.obj
 0001:0001afaf       ?_wcstombs_internal@@YAHPAIPADIPB_WIAAV__crt_cached_ptd_host@@@Z 0041bfaf f   libucrt:wcstombs.obj
 0001:0001b084       ?_wcstombs_l_helper@@YAIPADPB_WIAAV__crt_cached_ptd_host@@@Z 0041c084 f   libucrt:wcstombs.obj
 0001:0001b369       ?InternalGetLocaleInfoA@@YAHQAU__crt_locale_pointers@@QB_WKQADH@Z 0041c369 f   libucrt:getlocaleinfoa.obj
 0001:0001b6f9       ?__acrt_LCMapStringA_stat@@YAHPAU__crt_locale_pointers@@PB_WKPBDHPADHHH@Z 0041c6f9 f   libucrt:lcmapstringa.obj
 0001:0001b995       ??$?RV<lambda_cbab9ec6f41b0180b23cc171c22676b0>@@AAV<lambda_44731a7d0e6d81c3e6aa82d741081786>@@V<lambda_4b292cb8dd18144e164572427af410ab>@@@?$__crt_seh_guarded_call@P6AXH@Z@@QAEP6AXH@Z$$QAV<lambda_cbab9ec6f41b0180b23cc171c22676b0>@@AAV<lambda_44731a7d0e6d81c3e6aa82d741081786>@@$$QAV<lambda_4b292cb8dd18144e164572427af410ab>@@@Z 0041c995 f   libucrt:signal.obj
 0001:0001b9fd       ?get_global_action_nolock@@YAPAP6AXH@ZH@Z 0041c9fd f   libucrt:signal.obj
 0001:0001ba3f       ?siglookup@@YAPAU__crt_signal_action_t@@HQAU1@@Z 0041ca3f f   libucrt:signal.obj
 0001:0001c701       ?filter_mbtowcs_flags@@YAKIK@Z 0041d701 f   libucrt:multibytetowidechar.obj
 0001:0001c7c3       ?filter_wcstomb_flags@@YAKIK@Z 0041d7c3 f   libucrt:widechartomultibyte.obj
 0001:0001ca88       ?<lambda_invoker_cdecl>@<lambda_838c7f62c73c983481e27c09e84b0b5d>@@CAHPBX0@Z 0041da88 f   libucrt:argv_wildcards.obj
 0001:0001cb66       ??$common_expand_argv_wildcards@D@@YAHQAPADQAPAPAD@Z 0041db66 f   libucrt:argv_wildcards.obj
 0001:0001cce3       ??$copy_and_add_argument_to_buffer@D@@YAHQBD0IAAV?$argument_list@D@?A0x5f5c8891@@@Z 0041dce3 f   libucrt:argv_wildcards.obj
 0001:0001cd94       ??$expand_argument_wildcards@D@@YAHQAD0AAV?$argument_list@D@?A0x5f5c8891@@@Z 0041dd94 f   libucrt:argv_wildcards.obj
 0001:0001d019       ??1?$argument_list@D@?A0x5f5c8891@@QAE@XZ 0041e019 f   libucrt:argv_wildcards.obj
 0001:0001d07a       ?expand_if_necessary@?$argument_list@D@?A0x5f5c8891@@AAEHXZ 0041e07a f   libucrt:argv_wildcards.obj
 0001:0001d1ad       ??$?RV<lambda_ceb1ee4838e85a9d631eb091e2fbe199>@@AAV<lambda_ae742caa10f662c28703da3d2ea5e57e>@@V<lambda_cd08b5d6af4937fe54fc07d0c9bf6b37>@@@?$__crt_seh_guarded_call@X@@QAEX$$QAV<lambda_ceb1ee4838e85a9d631eb091e2fbe199>@@AAV<lambda_ae742caa10f662c28703da3d2ea5e57e>@@$$QAV<lambda_cd08b5d6af4937fe54fc07d0c9bf6b37>@@@Z 0041e1ad f   libucrt:mbctype.obj
 0001:0001d1fa       ??R<lambda_ae742caa10f662c28703da3d2ea5e57e>@@QBE@XZ 0041e1fa f   libucrt:mbctype.obj
 0001:0001d27d       ?CPtoLocaleName@@YAPB_WH@Z 0041e27d f   libucrt:mbctype.obj
 0001:0001d2bb       ?getSystemCP@@YAHH@Z       0041e2bb f   libucrt:mbctype.obj
 0001:0001d32c       ?setSBCS@@YAXPAU__crt_multibyte_data@@@Z 0041e32c f   libucrt:mbctype.obj
 0001:0001d38f       ?setSBUpLow@@YAXPAU__crt_multibyte_data@@@Z 0041e38f f   libucrt:mbctype.obj
 0001:0001d534       ?setmbcp_internal@@YAHH_NQAU__acrt_ptd@@QAPAU__crt_multibyte_data@@@Z 0041e534 f   libucrt:mbctype.obj
 0001:0001d689       ?update_thread_multibyte_data_internal@@YAPAU__crt_multibyte_data@@QAU__acrt_ptd@@QAPAU1@@Z 0041e689 f   libucrt:mbctype.obj
 0001:0001d989       ?x_ismbbtype_l@@YAHPAU__crt_locale_pointers@@IHH@Z 0041e989 f   libucrt:ismbbyte.obj
 0001:0001d9f1       ?find_end_of_double_null_terminated_sequence@@YAPB_WQB_W@Z 0041e9f1 f   libucrt:get_environment_from_os.obj
 0001:0001dac8       ??$common_set_variable_in_environment_nolock@D@@YAHQADH@Z 0041eac8 f   libucrt:setenv.obj
 0001:0001dd28       ??$copy_environment@D@@YAPAPADQAPAD@Z 0041ed28 f   libucrt:setenv.obj
 0001:0001ddd8       ??$ensure_current_environment_is_not_initial_environment_nolock@D@@YAXXZ 0041edd8 f   libucrt:setenv.obj
 0001:0001ddf2       ??$find_in_environment_nolock@D@@YAHQBDI@Z 0041edf2 f   libucrt:setenv.obj
 0001:0001dfe2       ??$common_tcsncpy_s@_W@@YAHQA_WIQB_WI@Z 0041efe2 f   libucrt:wcsncpy_s.obj
 0001:0001ebea       ?free_crt_array_internal@@YAXQAPBXI@Z 0041fbea f   libucrt:inittime.obj
 0001:0001ec0f       ?initialize_lc_time@@YA_NQAU__crt_lc_time_data@@QAU__crt_locale_data@@@Z 0041fc0f f   libucrt:inittime.obj
 0001:0001efea       ??$common_tcsncat_s@_W@@YAHQA_WIQB_WI@Z 0041ffea f   libucrt:wcsncat_s.obj
 0001:0001f51e       _GetLocaleNameFromDefault  0042051e f   libucrt:get_qualified_locale.obj
 0001:0001f5a5       _GetLocaleNameFromLangCountry 004205a5 f   libucrt:get_qualified_locale.obj
 0001:0001f63e       _GetLocaleNameFromLanguage 0042063e f   libucrt:get_qualified_locale.obj
 0001:0001f697       _GetPrimaryLen             00420697 f   libucrt:get_qualified_locale.obj
 0001:0001f6cb       _LangCountryEnumProcEx@12  004206cb f   libucrt:get_qualified_locale.obj
 0001:0001f9ac       _LanguageEnumProcEx@12     004209ac f   libucrt:get_qualified_locale.obj
 0001:0001fa6b       _ProcessCodePage           00420a6b f   libucrt:get_qualified_locale.obj
 0001:0001fb5b       _TestDefaultCountry        00420b5b f   libucrt:get_qualified_locale.obj
 0001:0001fba8       _TranslateName             00420ba8 f   libucrt:get_qualified_locale.obj
 0001:0001fe1a       _CountryEnumProc@4         00420e1a f   libucrt:getqloc_downlevel.obj
 0001:0001fec1       _GetLcidFromCountry        00420ec1 f   libucrt:getqloc_downlevel.obj
 0001:0001ff0c       _GetLcidFromLangCountry    00420f0c f   libucrt:getqloc_downlevel.obj
 0001:0001ffa7       _GetLcidFromLanguage       00420fa7 f   libucrt:getqloc_downlevel.obj
 0001:00020006       _GetPrimaryLen             00421006 f   libucrt:getqloc_downlevel.obj
 0001:00020032       _LangCountryEnumProc@4     00421032 f   libucrt:getqloc_downlevel.obj
 0001:00020285       _LanguageEnumProc@4        00421285 f   libucrt:getqloc_downlevel.obj
 0001:0002035a       _LcidFromHexString         0042135a f   libucrt:getqloc_downlevel.obj
 0001:000203ae       _ProcessCodePage           004213ae f   libucrt:getqloc_downlevel.obj
 0001:0002048f       _TestDefaultCountry        0042148f f   libucrt:getqloc_downlevel.obj
 0001:000204b4       _TestDefaultLanguage       004214b4 f   libucrt:getqloc_downlevel.obj
 0001:00020529       _TranslateName             00421529 f   libucrt:getqloc_downlevel.obj
 0001:0002077a       ___hw_cw_sse2              0042177a f   libucrt:ieee87.obj
 0001:00020c00       __hw_cw                    00421c00 f   libucrt:ieee87.obj
 0001:00020c9e       ?check_trailing@@YA_NPBDW4__acrt_has_trailing_digits@@@Z 00421c9e f   libucrt:_fptostr.obj
 0001:00020cc1       ?should_round_up@@YA_NQBD0HW4__acrt_has_trailing_digits@@W4__acrt_rounding_mode@@@Z 00421cc1 f   libucrt:_fptostr.obj
 0001:000224e1       ??R<lambda_e96123212306c92459f955e8e4eac55d>@@QBEIPBD@Z 004234e1 f   libucrt:mbrtowc.obj
 0001:000226ae       ?GetTableIndexFromLocaleName@@YAHPB_W@Z 004236ae f   libucrt:lcidtoname_downlevel.obj
 0001:00022a8c       ??$common_sopen_dispatch@D@@YAHQBDHHHQAHH@Z 00423a8c f   libucrt:open.obj
 0001:00022b67       ?configure_text_mode@@YAHHUfile_options@?A0xa9d50aae@@HAAW4__crt_lowio_text_mode@@@Z 00423b67 f   libucrt:open.obj
 0001:00022dbd       ?create_file@@YAPAXQB_WQAU_SECURITY_ATTRIBUTES@@Ufile_options@?A0xa9d50aae@@@Z 00423dbd f   libucrt:open.obj
 0001:00022de2       ?decode_open_create_flags@@YAKH@Z 00423de2 f   libucrt:open.obj
 0001:00022e52       ?decode_options@@YA?AUfile_options@?A0xa9d50aae@@HHH@Z 00423e52 f   libucrt:open.obj
 0001:00022fcc       ?truncate_ctrl_z_if_present@@YAHH@Z 00423fcc f   libucrt:open.obj
 0001:0002356f       ??$common_tcsncpy_s@D@@YAHQADIQBDI@Z 0042456f f   libucrt:strncpy_s.obj
 0001:00023631       ?to_abstract_control@@YA?AW4__acrt_fenv_abstract_control@@W4__acrt_fenv_machine_sse_control@@@Z 00424631 f   libucrt:_fenvutils.obj
 0001:000236e1       ?to_abstract_control@@YA?AW4__acrt_fenv_abstract_control@@W4__acrt_fenv_machine_x87_control@@@Z 004246e1 f   libucrt:_fenvutils.obj
 0001:0002378e       ?to_machine_sse_control@@YA?AW4__acrt_fenv_machine_sse_control@@W4__acrt_fenv_abstract_control@@@Z 0042478e f   libucrt:_fenvutils.obj
 0001:00023844       ?to_machine_x87_control@@YA?AW4__acrt_fenv_machine_x87_control@@W4__acrt_fenv_abstract_control@@@Z 00424844 f   libucrt:_fenvutils.obj
 0001:00024190       $$000000                   00425190     libucrt:strpbrk.obj
 0001:00024274       ?initialize_multibyte@@YAHXZ 00425274 f   libucrt:multibyte_initializer.obj
 0001:00024500       $$000000                   00425500     libucrt:log10_impl.obj
 0001:00024610       $$000000                   00425610     libucrt:ceil_pentium4.obj
 0001:00024920       $$000000                   00425920     libucrt:_strnicm.obj
 0001:00024b9c       ?__dcrt_lowio_initialize_console_output@@YAXXZ 00425b9c f   libucrt:initcon.obj
 0001:00024d2e       ?InternalCompareStringA@@YAHPAU__crt_locale_pointers@@PB_WKPBDH2HH@Z 00425d2e f   libucrt:comparestringa.obj
 0001:00025030       $$000000                   00426030     libucrt:log10_pentium4.obj
 0001:000252c0       $$000000                   004262c0     libucrt:87tran.obj
 0001:000254d0       $$000000                   004264d0     libucrt:87disp.obj
 0001:00025730       $$000000                   00426730     libucrt:common.obj
 0001:000258c0       $$000000                   004268c0     libucrt:genexcep.obj
 0001:00026080       $$000000                   00427080     LIBCMT:ullrem.obj
 0001:000260a1       L1                         004270a1     LIBCMT:ullrem.obj
 0001:000260af       L3                         004270af     LIBCMT:ullrem.obj
 0001:000260da       L4                         004270da     LIBCMT:ullrem.obj
 0001:000260e2       L5                         004270e2     LIBCMT:ullrem.obj
 0001:000260f1       L2                         004270f1     LIBCMT:ullrem.obj
 0001:00026100       $$000000                   00427100     LIBCMT:lldiv.obj
 0001:00026121       L1                         00427121     LIBCMT:lldiv.obj
 0001:0002613d       L2                         0042713d     LIBCMT:lldiv.obj
 0001:00026159       L3                         00427159     LIBCMT:lldiv.obj
 0001:00026167       L5                         00427167     LIBCMT:lldiv.obj
 0001:00026195       L6                         00427195     LIBCMT:lldiv.obj
 0001:00026196       L7                         00427196     LIBCMT:lldiv.obj
 0001:0002619a       L4                         0042719a     LIBCMT:lldiv.obj
 0001:000261a4       L8                         004271a4     LIBCMT:lldiv.obj
 0001:000261b0       $$000000                   004271b0     LIBCMT:llrem.obj
 0001:000261d0       L1                         004271d0     LIBCMT:llrem.obj
 0001:000261eb       L2                         004271eb     LIBCMT:llrem.obj
 0001:0002620a       L3                         0042720a     LIBCMT:llrem.obj
 0001:00026218       L5                         00427218     LIBCMT:llrem.obj
 0001:00026243       L6                         00427243     LIBCMT:llrem.obj
 0001:0002624b       L7                         0042724b     LIBCMT:llrem.obj
 0001:00026256       L4                         00427256     LIBCMT:llrem.obj
 0001:0002625d       L8                         0042725d     LIBCMT:llrem.obj
 0001:00026270       $$000000                   00427270     LIBCMT:llshl.obj
 0001:00026280       MORE32                     00427280     LIBCMT:llshl.obj
 0001:0002628a       RETZERO                    0042728a     LIBCMT:llshl.obj
 0001:00026290       $$000000                   00427290     LIBCMT:ullshr.obj
 0001:000262a0       MORE32                     004272a0     LIBCMT:ullshr.obj
 0001:000262aa       RETZERO                    004272aa     LIBCMT:ullshr.obj
 0001:000262b0       $$000000                   004272b0     LIBCMT:ftol2.obj
 0001:000262c0       $$000000                   004272c0     LIBCMT:ftol2.obj
 0001:000262d1       L3B                        004272d1     LIBCMT:ftol2.obj
 0001:00026314       L3F                        00427314     LIBCMT:ftol2.obj
 0001:0002631c       L40                        0042731c     LIBCMT:ftol2.obj
 0001:0002632f       L41                        0042732f     LIBCMT:ftol2.obj
 0001:00026340       $$000000                   00427340     libvcruntime:strrchr.obj
 0001:0002637d       strrchr_sse_loop           0042737d     libvcruntime:strrchr.obj
 0001:000263ad       strrchr_sse_break          004273ad     libvcruntime:strrchr.obj
 0001:000263cd       strrchr_sttni              004273cd     libvcruntime:strrchr.obj
 0001:000263df       strrchr_sttni_chars        004273df     libvcruntime:strrchr.obj
 0001:000263f4       strrchr_sttni_aligned      004273f4     libvcruntime:strrchr.obj
 0001:000263f8       strrchr_sttni_xmm          004273f8     libvcruntime:strrchr.obj
 0001:0002640b       exit                       0042740b     libvcruntime:strrchr.obj
 0001:0002640e       strrchr_zero               0042740e     libvcruntime:strrchr.obj
 0001:00026433       strchr_zero_loop           00427433     libvcruntime:strrchr.obj
 0001:00026447       strchr_zero_result         00427447     libvcruntime:strrchr.obj
 0001:0002644e       strrchr_no_sse             0042744e     libvcruntime:strrchr.obj
 0001:00026471       returndi                   00427471     libvcruntime:strrchr.obj
 0001:00026473       toend                      00427473     libvcruntime:strrchr.obj
 0001:00026480       $$000000                   00427480     libvcruntime:strchr.obj
 0001:000264b3       strchr_sse_loop            004274b3     libvcruntime:strchr.obj
 0001:000264d7       strchr_sse_break           004274d7     libvcruntime:strchr.obj
 0001:000264e8       strchr_no_sse2             004274e8     libvcruntime:strchr.obj
 0001:00026500       str_misaligned             00427500     libvcruntime:strchr.obj
 0001:00026515       main_loop_start            00427515     libvcruntime:strchr.obj
 0001:00026520       main_loop                  00427520     libvcruntime:strchr.obj
 0001:0002655c       retnull                    0042755c     libvcruntime:strchr.obj
 0001:0002655e       retnull_bx                 0042755e     libvcruntime:strchr.obj
 0001:00026562       found_bx                   00427562     libvcruntime:strchr.obj
 0001:00026567       chr_is_found               00427567     libvcruntime:strchr.obj
 0001:0002658f       byte_3                     0042758f     libvcruntime:strchr.obj
 0001:00026596       byte_2                     00427596     libvcruntime:strchr.obj
 0001:0002659d       byte_1                     0042759d     libvcruntime:strchr.obj
 0001:000265a4       byte_0                     004275a4     libvcruntime:strchr.obj
 0001:000266e0       __unwindfunclet$??$?6U?$char_traits@D@std@@@std@@YAAAV?$basic_ostream@DU?$char_traits@D@std@@@0@AAV10@PBD@Z$2 004276e0 f   TimeLog.obj
 0001:000266ed       __ehhandler$??$?6U?$char_traits@D@std@@@std@@YAAAV?$basic_ostream@DU?$char_traits@D@std@@@0@AAV10@PBD@Z 004276ed f   TimeLog.obj
 0001:00026710       __unwindfunclet$??0_System_error@std@@IAE@Verror_code@1@ABV?$basic_string@DU?$char_traits@D@std@@V?$allocator@D@2@@1@@Z$5 00427710 f   TimeLog.obj
 0001:00026718       __unwindfunclet$??0_System_error@std@@IAE@Verror_code@1@ABV?$basic_string@DU?$char_traits@D@std@@V?$allocator@D@2@@1@@Z$6 00427718 f   TimeLog.obj
 0001:00026725       __ehhandler$??0_System_error@std@@IAE@Verror_code@1@ABV?$basic_string@DU?$char_traits@D@std@@V?$allocator@D@2@@1@@Z 00427725 f   TimeLog.obj
 0001:00026750       __unwindfunclet$??0failure@ios_base@std@@QAE@PBDABVerror_code@2@@Z$1 00427750 f   TimeLog.obj
 0001:0002675d       __ehhandler$??0failure@ios_base@std@@QAE@PBDABVerror_code@2@@Z 0042775d f   TimeLog.obj
 0001:00026790       __unwindfunclet$??0sentry@?$basic_ostream@DU?$char_traits@D@std@@@std@@QAE@AAV12@@Z$0 00427790 f   TimeLog.obj
 0001:0002679d       __ehhandler$??0sentry@?$basic_ostream@DU?$char_traits@D@std@@@std@@QAE@AAV12@@Z 0042779d f   TimeLog.obj
 0001:000267c0       __ehhandler$??1_Sentry_base@?$basic_ostream@DU?$char_traits@D@std@@@std@@QAE@XZ 004277c0 f   TimeLog.obj
 0001:000267e0       __ehhandler$??1sentry@?$basic_ostream@DU?$char_traits@D@std@@@std@@QAE@XZ 004277e0 f   TimeLog.obj
 0001:000267e0       __ehhandler$??_G?$basic_ios@DU?$char_traits@D@std@@@std@@UAEPAXI@Z 004277e0 f   libcpmt:cout.obj
 0001:000267e0       __ehhandler$??_Gios_base@std@@UAEPAXI@Z 004277e0 f   libcpmt:cout.obj
 0001:00026800       __ehhandler$?_Osfx@?$basic_ostream@DU?$char_traits@D@std@@@std@@QAEXXZ 00427800 f   TimeLog.obj
 0001:00026820       __unwindfunclet$?flush@?$basic_ostream@DU?$char_traits@D@std@@@std@@QAEAAV12@XZ$2 00427820 f   TimeLog.obj
 0001:0002682d       __ehhandler$?flush@?$basic_ostream@DU?$char_traits@D@std@@@std@@QAEAAV12@XZ 0042782d f   TimeLog.obj
 0001:00026850       __unwindfunclet$??__EmDB@@YAXXZ$0 00427850 f   S08_MyDB.obj
 0001:0002685f       __ehhandler$??__EmDB@@YAXXZ 0042785f f   S08_MyDB.obj
 0001:0002687c       __unwindfunclet$??$use_facet@V?$codecvt@DDU_Mbstatet@@@std@@@std@@YAABV?$codecvt@DDU_Mbstatet@@@0@ABVlocale@0@@Z$0 0042787c f   libcpmt:cout.obj
 0001:0002687c       __unwindfunclet$??$use_facet@V?$ctype@D@std@@@std@@YAABV?$ctype@D@0@ABVlocale@0@@Z$0 0042787c f   libcpmt:cout.obj
 0001:00026884       __unwindfunclet$??$use_facet@V?$codecvt@DDU_Mbstatet@@@std@@@std@@YAABV?$codecvt@DDU_Mbstatet@@@0@ABVlocale@0@@Z$1 00427884 f   libcpmt:cout.obj
 0001:00026884       __unwindfunclet$??$use_facet@V?$ctype@D@std@@@std@@YAABV?$ctype@D@0@ABVlocale@0@@Z$1 00427884 f   libcpmt:cout.obj
 0001:00026891       __ehhandler$??$use_facet@V?$codecvt@DDU_Mbstatet@@@std@@@std@@YAABV?$codecvt@DDU_Mbstatet@@@0@ABVlocale@0@@Z 00427891 f   libcpmt:cout.obj
 0001:00026891       __ehhandler$??$use_facet@V?$ctype@D@std@@@std@@YAABV?$ctype@D@0@ABVlocale@0@@Z 00427891 f   libcpmt:cout.obj
 0001:000268ae       __unwindfunclet$??0?$basic_ostream@DU?$char_traits@D@std@@@std@@QAE@PAV?$basic_streambuf@DU?$char_traits@D@std@@@1@_N@Z$0 004278ae f   libcpmt:cout.obj
 0001:000268cf       __ehhandler$??0?$basic_ostream@DU?$char_traits@D@std@@@std@@QAE@PAV?$basic_streambuf@DU?$char_traits@D@std@@@1@_N@Z 004278cf f   libcpmt:cout.obj
 0001:000268ec       __ehhandler$??0?$basic_streambuf@DU?$char_traits@D@std@@@std@@IAE@XZ 004278ec f   libcpmt:cout.obj
 0001:000268ec       __ehhandler$?_Init@ios_base@std@@IAEXXZ 004278ec f   libcpmt:cout.obj
 0001:00026909       __unwindfunclet$??0_Locinfo@std@@QAE@PBD@Z$0 00427909 f   libcpmt:cout.obj
 0001:00026911       __unwindfunclet$??0_Locinfo@std@@QAE@PBD@Z$1 00427911 f   libcpmt:cout.obj
 0001:0002691c       __unwindfunclet$??0_Locinfo@std@@QAE@PBD@Z$2 0042791c f   libcpmt:cout.obj
 0001:00026927       __unwindfunclet$??0_Locinfo@std@@QAE@PBD@Z$3 00427927 f   libcpmt:cout.obj
 0001:00026932       __unwindfunclet$??0_Locinfo@std@@QAE@PBD@Z$4 00427932 f   libcpmt:cout.obj
 0001:0002693d       __unwindfunclet$??0_Locinfo@std@@QAE@PBD@Z$5 0042793d f   libcpmt:cout.obj
 0001:00026948       __unwindfunclet$??0_Locinfo@std@@QAE@PBD@Z$6 00427948 f   libcpmt:cout.obj
 0001:00026958       __ehhandler$??0_Locinfo@std@@QAE@PBD@Z 00427958 f   libcpmt:cout.obj
 0001:00026975       __ehhandler$??1?$basic_filebuf@DU?$char_traits@D@std@@@std@@UAE@XZ 00427975 f   libcpmt:cout.obj
 0001:00026975       __ehhandler$??1_Init_atexit@@QAE@XZ 00427975 f   libcpmt:iosptrs.obj
 0001:00026992       __ehhandler$??1?$basic_ios@DU?$char_traits@D@std@@@std@@UAE@XZ 00427992 f   libcpmt:cout.obj
 0001:00026992       __ehhandler$??_D?$basic_ostream@DU?$char_traits@D@std@@@std@@QAEXXZ 00427992 f   libcpmt:cout.obj
 0001:000269af       __ehhandler$?try_cor_exit_process@@YAXI@Z 004279af f   libucrt:exit.obj
 0001:000269af       __ehhandler$??1_Locinfo@std@@QAE@XZ 004279af f   libcpmt:cout.obj
 0001:000269af       __ehhandler$?_Tidy@ios_base@std@@AAEXXZ 004279af f   libcpmt:ios.obj
 0001:000269cc       __unwindfunclet$?_Getcat@?$codecvt@DDU_Mbstatet@@@std@@SAIPAPBVfacet@locale@2@PBV42@@Z$0 004279cc f   libcpmt:cout.obj
 0001:000269de       __ehhandler$?_Getcat@?$codecvt@DDU_Mbstatet@@@std@@SAIPAPBVfacet@locale@2@PBV42@@Z 004279de f   libcpmt:cout.obj
 0001:000269fb       __unwindfunclet$?_Getcat@?$ctype@D@std@@SAIPAPBVfacet@locale@2@PBV42@@Z$0 004279fb f   libcpmt:cout.obj
 0001:00026a0d       __ehhandler$?_Getcat@?$ctype@D@std@@SAIPAPBVfacet@locale@2@PBV42@@Z 00427a0d f   libcpmt:cout.obj
 0001:00026a2a       __unwindfunclet$?uflow@?$basic_filebuf@DU?$char_traits@D@std@@@std@@MAEHXZ$0 00427a2a f   libcpmt:cout.obj
 0001:00026a37       __ehhandler$?uflow@?$basic_filebuf@DU?$char_traits@D@std@@@std@@MAEHXZ 00427a37 f   libcpmt:cout.obj
 0001:00026a5e       __unwindfunclet$?widen@?$basic_ios@DU?$char_traits@D@std@@@std@@QBEDD@Z$0 00427a5e f   libcpmt:cout.obj
 0001:00026a6b       __ehhandler$?widen@?$basic_ios@DU?$char_traits@D@std@@@std@@QBEDD@Z 00427a6b f   libcpmt:cout.obj
 0001:00026a88       __unwindfunclet$?_Init@locale@std@@CAPAV_Locimp@12@_N@Z$0 00427a88 f   libcpmt:locale0.obj
 0001:00026a95       __ehhandler$?_Init@locale@std@@CAPAV_Locimp@12@_N@Z 00427a95 f   libcpmt:locale0.obj
 0001:00026ab2       __ehhandler$?CallUnexpected@@YAXPBU_s_ESTypeList@@@Z 00427ab2 f   libvcruntime:frame.obj
 0001:00026acf       __ehhandler$?common_exit@@YAXHW4_crt_exit_cleanup_mode@@W4_crt_exit_return_mode@@@Z 00427acf f   libucrt:exit.obj
 0001:00026aec       __ehhandler$___dcrt_uninitialize_environments_nolock 00427aec f   libucrt:environment_initialization.obj
 0001:00026b09       __ehhandler$__execute_onexit_table 00427b09 f   libucrt:onexit.obj
 0001:00026b26       __ehhandler$?write_double_translated_ansi_nolock@@YA?AUwrite_result@?A0x17268360@@HQBDIAAV__crt_cached_ptd_host@@@Z 00427b26 f   libucrt:write.obj
 0001:00026b50       __ehhandler$?_mbstowcs_l_helper@@YAIPA_WPBDIAAV__crt_cached_ptd_host@@@Z 00427b50 f   libucrt:mbstowcs.obj
 0001:00026b70       ??__Fs_kProgramLog@?1??__LogMgr@@YAPAVR_ProLog@@XZ@YAXXZ 00427b70 f   TimeLog.obj
 0001:00026b80       ??__FmDB@@YAXXZ            00427b80 f   S08_MyDB.obj
 0001:00026ba0       ??__Fg_env@@YAXXZ          00427ba0 f   Server_EXTRA.obj
 0001:00026bf6       ??__Fcout@std@@YAXXZ       00427bf6 f   libcpmt:cout.obj
 0001:00026c00       ??__Ffout@std@@YAXXZ       00427c00 f   libcpmt:cout.obj
 0001:00026c0a       ??__Finitlocks@@YAXXZ      00427c0a f   libcpmt:cout.obj
 0001:00026c14       ??__Finitlocks@std@@YAXXZ  00427c14 f   libcpmt:xlock.obj
 0001:00026c1e       ??__F_Fac_tidy_reg@std@@YAXXZ 00427c1e f   libcpmt:locale0.obj
 0001:00026c28       ??__Fclassic_locale@std@@YAXXZ 00427c28 f   libcpmt:locale0.obj
 0001:00026c32       ??__Finit_atexit@@YAXXZ    00427c32 f   libcpmt:iosptrs.obj
 0001:00026c3c       ??__Finitlocks@std@@YAXXZ  00427c3c f   libcpmt:iosptrs.obj
 0002:00000224       ?pre_cpp_initializer@@3P6AXXZA 00428224     LIBCMT:exe_main.obj
 0002:00000228       ?initlocks$initializer$@@3P6AXXZA 00428228     libcpmt:cout.obj
 0002:0000022c       ?fout$initializer$@std@@3P6AXXZA 0042822c     libcpmt:cout.obj
 0002:00000230       ?cout$initializer$@std@@3P6AXXZA 00428230     libcpmt:cout.obj
 0002:00000234       ?init_cout$initializer$@std@@3P6AXXZA 00428234     libcpmt:cout.obj
 0002:00000238       ?initlocks$initializer$@std@@3P6AXXZA 00428238     libcpmt:xlock.obj
 0002:0000023c       ?initlocks$initializer$@std@@3P6AXXZA 0042823c     libcpmt:iosptrs.obj
 0002:00000240       ?init_atexit$initializer$@@3P6AXXZA 00428240     libcpmt:iosptrs.obj
 0002:00000244       ?_Fac_tidy_reg$initializer$@std@@3P6AXXZA 00428244     libcpmt:locale0.obj
 0002:00000248       ?classic_locale$initializer$@std@@3P6AXXZA 00428248     libcpmt:locale0.obj
 0002:0000024c       ?mDB$initializer$@@3P6AXXZA 0042824c     S08_MyDB.obj
 0002:00000250       ?g_env$initializer$@@3P6AXXZA 00428250     Server_EXTRA.obj
 0002:0000025c       ?pre_c_initializer@@3P6AHXZA 0042825c     LIBCMT:exe_main.obj
 0002:00000260       ?post_pgo_initializer@@3P6AHXZA 00428260     LIBCMT:exe_main.obj
 0002:000002a0       ?_Fake_alloc@std@@3U_Fake_allocator@1@B 004282a0     cts_mysql.obj
 0002:00000387       ?_Fake_alloc@std@@3U_Fake_allocator@1@B 00428387     TimeLog.obj
 0002:00000446       ?_Fake_alloc@std@@3U_Fake_allocator@1@B 00428446     S02_MyServer.obj
 0002:000004f3       ?_Fake_alloc@std@@3U_Fake_allocator@1@B 004284f3     S03_MyUser.obj
 0002:0000059f       ?_Fake_alloc@std@@3U_Fake_allocator@1@B 0042859f     S04_MyWork01.obj
 0002:000005a0       ?_Fake_alloc@std@@3U_Fake_allocator@1@B 004285a0     S04_MyWork02.obj
 0002:000007a4       ?_Fake_alloc@std@@3U_Fake_allocator@1@B 004287a4     S05_MyTransfer.obj
 0002:000007a5       ?_Fake_alloc@std@@3U_Fake_allocator@1@B 004287a5     S07_MyGame01.obj
 0002:00000ae8       ?_Fake_alloc@std@@3U_Fake_allocator@1@B 00428ae8     S08_MyDB.obj
 0002:00000fe4       ?_Fake_alloc@std@@3U_Fake_allocator@1@B 00428fe4     Server_EXTRA.obj
 0002:000010d8       ?_Win_errtab@?A0xdad2e229@@3QBU_Win_errtab_t@1@B 004290d8     libcpmt:syserror.obj
 0002:00001378       ?_Sys_errtab@?A0xdad2e229@@3QBU_Sys_errtab_t@1@B 00429378     libcpmt:syserror.obj
 0002:00001d60       ?_Whitespace_bitmap@?A0xfa98056f@@3U_Whitespace_bitmap_t@1@B 00429d60     libcpmt:syserror_import_lib.obj
 0002:00001e88       _digits                    00429e88     libcpmt:xstoul.obj
 0002:00001eb0       _ndigs                     00429eb0     libcpmt:xstoul.obj
 0002:00001ed8       _digits                    00429ed8     libcpmt:xstoull.obj
 0002:00001f00       _ndigs                     00429f00     libcpmt:xstoull.obj
 0002:00001f30       _GS_ExceptionPointers      00429f30     LIBCMT:gs_report.obj
 0002:00001f58       ?tokenTable@@3QBUStringLiteral@@B 00429f58     libvcruntime:undname.obj
 0002:00001fe0       ?nameTable@@3QBUStringLiteral@@B 00429fe0     libvcruntime:undname.obj
 0002:00002278       ?rttiTable@@3QBUStringLiteral@@B 0042a278     libvcruntime:undname.obj
 0002:000022a0       ?IndirectionName@@3QBUStringLiteral@@B 0042a2a0     libvcruntime:undname.obj
 0002:000022d0       ?PrefixName@@3QBUStringLiteral@@B 0042a2d0     libvcruntime:undname.obj
 0002:00002904       ?module_names@?A0x14174aea@@3QBQB_WB 0042a904     libvcruntime:winapi_downlevel.obj
 0002:000029ac       ?candidate_modules@?1??try_get_FlsAlloc@@YAP6GKP6GXPAX@Z@ZXZ@4QBW4module_id@?A0x14174aea@@B 0042a9ac     libvcruntime:winapi_downlevel.obj
 0002:000029c0       ?candidate_modules@?1??try_get_FlsFree@@YAP6GHK@ZXZ@4QBW4module_id@?A0x14174aea@@B 0042a9c0     libvcruntime:winapi_downlevel.obj
 0002:000029d0       ?candidate_modules@?1??try_get_FlsGetValue@@YAP6GPAXK@ZXZ@4QBW4module_id@?A0x14174aea@@B 0042a9d0     libvcruntime:winapi_downlevel.obj
 0002:000029e4       ?candidate_modules@?1??try_get_FlsSetValue@@YAP6GHKPAX@ZXZ@4QBW4module_id@?A0x14174aea@@B 0042a9e4     libvcruntime:winapi_downlevel.obj
 0002:000029f8       ?candidate_modules@?1??try_get_InitializeCriticalSectionEx@@YAP6GHPAU_RTL_CRITICAL_SECTION@@KK@ZXZ@4QBW4module_id@?A0x14174aea@@B 0042a9f8     libvcruntime:winapi_downlevel.obj
 0002:00003348       ?errtable@@3QBUerrentry@?A0x31fdb9ec@@B 0042b348     libucrt:errno.obj
 0002:00003f40       ___acrt_initializers       0042bf40     libucrt:initialization.obj
 0002:00003fc0       __first_127char            0042bfc0     libucrt:wsetlocale.obj
 0002:000045f0       ?strings@?1??fp_format_nan_or_infinity@@YAHW4__acrt_fp_class@@_NPADI1@Z@4QAY03QBDA 0042c5f0     libucrt:cvt.obj
 0002:00004678       ?module_names@?A0x391cf84c@@3QBQB_WB 0042c678     libucrt:winapi_thunks.obj
 0002:00004b84       ?candidate_modules@?1??try_get_AreFileApisANSI@@YAP6GHXZXZ@4QBW4module_id@?A0x391cf84c@@B 0042cb84     libucrt:winapi_thunks.obj
 0002:00004b98       ?candidate_modules@?1??try_get_CompareStringEx@@YAP6GHPB_WK0H0HPAU_nlsversioninfo@@PAXJ@ZXZ@4QBW4module_id@?A0x391cf84c@@B 0042cb98     libucrt:winapi_thunks.obj
 0002:00004bb0       ?candidate_modules@?1??try_get_EnumSystemLocalesEx@@YAP6GHP6GHPA_WKJ@ZKJPAX@ZXZ@4QBW4module_id@?A0x391cf84c@@B 0042cbb0     libucrt:winapi_thunks.obj
 0002:00004bcc       ?candidate_modules@?1??try_get_GetDateFormatEx@@YAP6GHPB_WKPBU_SYSTEMTIME@@0PA_WH0@ZXZ@4QBW4module_id@?A0x391cf84c@@B 0042cbcc     libucrt:winapi_thunks.obj
 0002:00004be4       ?candidate_modules@?1??try_get_GetLocaleInfoEx@@YAP6GHPB_WKPA_WH@ZXZ@4QBW4module_id@?A0x391cf84c@@B 0042cbe4     libucrt:winapi_thunks.obj
 0002:00004bfc       ?candidate_modules@?1??try_get_GetTimeFormatEx@@YAP6GHPB_WKPBU_SYSTEMTIME@@0PA_WH@ZXZ@4QBW4module_id@?A0x391cf84c@@B 0042cbfc     libucrt:winapi_thunks.obj
 0002:00004c14       ?candidate_modules@?1??try_get_GetUserDefaultLocaleName@@YAP6GHPA_WH@ZXZ@4QBW4module_id@?A0x391cf84c@@B 0042cc14     libucrt:winapi_thunks.obj
 0002:00004c38       ?candidate_modules@?1??try_get_InitializeCriticalSectionEx@@YAP6GHPAU_RTL_CRITICAL_SECTION@@KK@ZXZ@4QBW4module_id@?A0x391cf84c@@B 0042cc38     libucrt:winapi_thunks.obj
 0002:00004c40       ?candidate_modules@?1??try_get_IsValidLocaleName@@YAP6GHPB_W@ZXZ@4QBW4module_id@?A0x391cf84c@@B 0042cc40     libucrt:winapi_thunks.obj
 0002:00004c5c       ?candidate_modules@?1??try_get_LCMapStringEx@@YAP6GHPB_WK0HPA_WHPAU_nlsversioninfo@@PAXJ@ZXZ@4QBW4module_id@?A0x391cf84c@@B 0042cc5c     libucrt:winapi_thunks.obj
 0002:00004c74       ?candidate_modules@?1??try_get_LCIDToLocaleName@@YAP6GHKPA_WHK@ZXZ@4QBW4module_id@?A0x391cf84c@@B 0042cc74     libucrt:winapi_thunks.obj
 0002:00004c90       ?candidate_modules@?1??try_get_LocaleNameToLCID@@YAP6GKPB_WK@ZXZ@4QBW4module_id@?A0x391cf84c@@B 0042cc90     libucrt:winapi_thunks.obj
 0002:00004cac       ?candidate_modules@?1??try_get_AppPolicyGetProcessTerminationMethod@@YAP6GJPAXPAW4AppPolicyProcessTerminationMethod@@@ZXZ@4QBW4module_id@?A0x391cf84c@@B 0042ccac     libucrt:winapi_thunks.obj
 0002:00004cd8       ?candidate_modules@?1??try_get_FlsAlloc@@YAP6GKP6GXPAX@Z@ZXZ@4QBW4module_id@?A0x391cf84c@@B 0042ccd8     libucrt:winapi_thunks.obj
 0002:00004ce0       ?candidate_modules@?1??try_get_FlsFree@@YAP6GHK@ZXZ@4QBW4module_id@?A0x391cf84c@@B 0042cce0     libucrt:winapi_thunks.obj
 0002:00004ce8       ?candidate_modules@?1??try_get_FlsGetValue@@YAP6GPAXK@ZXZ@4QBW4module_id@?A0x391cf84c@@B 0042cce8     libucrt:winapi_thunks.obj
 0002:00004cf0       ?candidate_modules@?1??try_get_FlsSetValue@@YAP6GHKPAX@ZXZ@4QBW4module_id@?A0x391cf84c@@B 0042ccf0     libucrt:winapi_thunks.obj
 0002:00004d18       ?_names@?1??_get_fname@@9@4QBU<unnamed-type-_names>@?1??1@YAPADI@Z@B 0042cd18     libucrt:fpexcept.obj
 0002:00004ee0       _over                      0042cee0     libucrt:fpctrl.obj
 0002:00004eec       _under                     0042ceec     libucrt:fpctrl.obj
 0002:00004ef8       ?_mb_locale_names@@3QBQB_WB 0042cef8     libucrt:mbctype.obj
 0002:00005d30       ?LcidToLocaleNameTable@?A0x881e4c05@@3QBULcidToLocaleName@1@B 0042dd30     libucrt:lcidtoname_downlevel.obj
 0002:00006e50       ?LocaleNameToIndexTable@?A0x881e4c05@@3QBULocaleNameIndex@1@B 0042ee50     libucrt:lcidtoname_downlevel.obj
 0002:00007da0       LOG_name                   0042fda0     libucrt:log10_impl.obj
 0002:00007db0       _One                       0042fdb0     libucrt:ceil_pentium4.obj
 0002:00007dc0       _Bns                       0042fdc0     libucrt:ceil_pentium4.obj
 0002:00007dd0       _Zero                      0042fdd0     libucrt:ceil_pentium4.obj
 0002:00007de0       _S                         0042fde0     libucrt:ceil_pentium4.obj
 0002:00007df0       _NegZero                   0042fdf0     libucrt:ceil_pentium4.obj
 0002:00007e10       emask                      0042fe10     libucrt:log10_pentium4.obj
 0002:00007e20       CC                         0042fe20     libucrt:log10_pentium4.obj
 0002:00007e30       Magic                      0042fe30     libucrt:log10_pentium4.obj
 0002:00007e40       hi_mask                    0042fe40     libucrt:log10_pentium4.obj
 0002:00007e50       LOG10_2                    0042fe50     libucrt:log10_pentium4.obj
 0002:00007e60       place_L                    0042fe60     libucrt:log10_pentium4.obj
 0002:00007e80       One                        0042fe80     libucrt:log10_pentium4.obj
 0002:00007e90       Zero                       0042fe90     libucrt:log10_pentium4.obj
 0002:00007ea0       Two52                      0042fea0     libucrt:log10_pentium4.obj
 0002:00007eb0       Infs                       0042feb0     libucrt:log10_pentium4.obj
 0002:00007ec0       NaN                        0042fec0     libucrt:log10_pentium4.obj
 0002:00007ed0       coeff                      0042fed0     libucrt:log10_pentium4.obj
 0002:00007f2e       _log2max                   0042ff2e     libucrt:87tran.obj
 0002:00007f38       _smallarg                  0042ff38     libucrt:87tran.obj
 0002:00007f42       _half                      0042ff42     libucrt:87tran.obj
 0002:00007f8e       One                        0042ff8e     libucrt:87disp.obj
 0002:00007f96       Three                      0042ff96     libucrt:87disp.obj
 0002:00007f9e       XAMtoTagTab                0042ff9e     libucrt:87disp.obj
 0002:00007fb0       One                        0042ffb0     libucrt:common.obj
 0002:00007fc4       DblMax                     0042ffc4     libucrt:common.obj
 0002:00007fcc       DblMin                     0042ffcc     libucrt:common.obj
 0002:00007fd4       IeeeAdjO                   0042ffd4     libucrt:common.obj
 0002:00007fdc       IeeeAdjU                   0042ffdc     libucrt:common.obj
 0002:00007fe4       _infinity                  0042ffe4     libucrt:common.obj
 0002:00007fec       _zero                      0042ffec     libucrt:common.obj
 0002:00008830       two32                      00430830     LIBCMT:ftol2.obj
 0002:00008834       two63                      00430834     LIBCMT:ftol2.obj
 0002:00008838       _NaN                       00430838     LIBCMT:ftol2.obj
 0002:00009ac4       __unwindtable$??0_System_error@std@@IAE@Verror_code@1@ABV?$basic_string@DU?$char_traits@D@std@@V?$allocator@D@2@@1@@Z 00431ac4     TimeLog.obj
 0002:00009ad4       __ehfuncinfo$??0_System_error@std@@IAE@Verror_code@1@ABV?$basic_string@DU?$char_traits@D@std@@V?$allocator@D@2@@1@@Z 00431ad4     TimeLog.obj
 0002:00009af8       __unwindtable$??0failure@ios_base@std@@QAE@PBDABVerror_code@2@@Z 00431af8     TimeLog.obj
 0002:00009b00       __ehfuncinfo$??0failure@ios_base@std@@QAE@PBDABVerror_code@2@@Z 00431b00     TimeLog.obj
 0002:00009b24       __catchsym$?_Osfx@?$basic_ostream@DU?$char_traits@D@std@@@std@@QAEXXZ$2 00431b24     TimeLog.obj
 0002:00009b34       __unwindtable$?_Osfx@?$basic_ostream@DU?$char_traits@D@std@@@std@@QAEXXZ 00431b34     TimeLog.obj
 0002:00009b44       __tryblocktable$?_Osfx@?$basic_ostream@DU?$char_traits@D@std@@@std@@QAEXXZ 00431b44     TimeLog.obj
 0002:00009b58       __ehfuncinfo$?_Osfx@?$basic_ostream@DU?$char_traits@D@std@@@std@@QAEXXZ 00431b58     TimeLog.obj
 0002:00009b7c       __catchsym$?flush@?$basic_ostream@DU?$char_traits@D@std@@@std@@QAEAAV12@XZ$11 00431b7c     TimeLog.obj
 0002:00009b8c       __tryblocktable$?flush@?$basic_ostream@DU?$char_traits@D@std@@@std@@QAEAAV12@XZ 00431b8c     TimeLog.obj
 0002:00009ba0       __unwindtable$?flush@?$basic_ostream@DU?$char_traits@D@std@@@std@@QAEAAV12@XZ 00431ba0     TimeLog.obj
 0002:00009bc0       __ehfuncinfo$?flush@?$basic_ostream@DU?$char_traits@D@std@@@std@@QAEAAV12@XZ 00431bc0     TimeLog.obj
 0002:00009be4       __catchsym$??$?6U?$char_traits@D@std@@@std@@YAAAV?$basic_ostream@DU?$char_traits@D@std@@@0@AAV10@PBD@Z$5 00431be4     TimeLog.obj
 0002:00009bf4       __tryblocktable$??$?6U?$char_traits@D@std@@@std@@YAAAV?$basic_ostream@DU?$char_traits@D@std@@@0@AAV10@PBD@Z 00431bf4     TimeLog.obj
 0002:00009c08       __unwindtable$??$?6U?$char_traits@D@std@@@std@@YAAAV?$basic_ostream@DU?$char_traits@D@std@@@0@AAV10@PBD@Z 00431c08     TimeLog.obj
 0002:00009c28       __ehfuncinfo$??$?6U?$char_traits@D@std@@@std@@YAAAV?$basic_ostream@DU?$char_traits@D@std@@@0@AAV10@PBD@Z 00431c28     TimeLog.obj
 0002:00009c4c       __ehfuncinfo$??1_Sentry_base@?$basic_ostream@DU?$char_traits@D@std@@@std@@QAE@XZ 00431c4c     TimeLog.obj
 0002:00009c4c       __ehfuncinfo$?_mbstowcs_l_helper@@YAIPA_WPBDIAAV__crt_cached_ptd_host@@@Z 00431c4c     libucrt:mbstowcs.obj
 0002:00009c4c       __ehfuncinfo$?write_double_translated_ansi_nolock@@YA?AUwrite_result@?A0x17268360@@HQBDIAAV__crt_cached_ptd_host@@@Z 00431c4c     libucrt:write.obj
 0002:00009c4c       __ehfuncinfo$?try_cor_exit_process@@YAXI@Z 00431c4c     libucrt:exit.obj
 0002:00009c4c       __ehfuncinfo$??1?$basic_filebuf@DU?$char_traits@D@std@@@std@@UAE@XZ 00431c4c     libcpmt:cout.obj
 0002:00009c4c       __ehfuncinfo$??1_Locinfo@std@@QAE@XZ 00431c4c     libcpmt:cout.obj
 0002:00009c4c       __ehfuncinfo$?_Tidy@ios_base@std@@AAEXXZ 00431c4c     libcpmt:ios.obj
 0002:00009c4c       __ehfuncinfo$??1_Init_atexit@@QAE@XZ 00431c4c     libcpmt:iosptrs.obj
 0002:00009c70       __unwindtable$??0sentry@?$basic_ostream@DU?$char_traits@D@std@@@std@@QAE@AAV12@@Z 00431c70     TimeLog.obj
 0002:00009c78       __ehfuncinfo$??0sentry@?$basic_ostream@DU?$char_traits@D@std@@@std@@QAE@AAV12@@Z 00431c78     TimeLog.obj
 0002:00009c9c       __unwindtable$??1sentry@?$basic_ostream@DU?$char_traits@D@std@@@std@@QAE@XZ 00431c9c     TimeLog.obj
 0002:00009c9c       __unwindtable$?common_exit@@YAXHW4_crt_exit_cleanup_mode@@W4_crt_exit_return_mode@@@Z 00431c9c     libucrt:exit.obj
 0002:00009c9c       __unwindtable$??1?$basic_ios@DU?$char_traits@D@std@@@std@@UAE@XZ 00431c9c     libcpmt:cout.obj
 0002:00009c9c       __unwindtable$??_D?$basic_ostream@DU?$char_traits@D@std@@@std@@QAEXXZ 00431c9c     libcpmt:cout.obj
 0002:00009c9c       __unwindtable$??_G?$basic_ios@DU?$char_traits@D@std@@@std@@UAEPAXI@Z 00431c9c     libcpmt:cout.obj
 0002:00009c9c       __unwindtable$??_Gios_base@std@@UAEPAXI@Z 00431c9c     libcpmt:cout.obj
 0002:00009ca4       __ehfuncinfo$??1sentry@?$basic_ostream@DU?$char_traits@D@std@@@std@@QAE@XZ 00431ca4     TimeLog.obj
 0002:00009ca4       __ehfuncinfo$?common_exit@@YAXHW4_crt_exit_cleanup_mode@@W4_crt_exit_return_mode@@@Z 00431ca4     libucrt:exit.obj
 0002:00009ca4       __ehfuncinfo$??1?$basic_ios@DU?$char_traits@D@std@@@std@@UAE@XZ 00431ca4     libcpmt:cout.obj
 0002:00009ca4       __ehfuncinfo$??_D?$basic_ostream@DU?$char_traits@D@std@@@std@@QAEXXZ 00431ca4     libcpmt:cout.obj
 0002:00009ca4       __ehfuncinfo$??_G?$basic_ios@DU?$char_traits@D@std@@@std@@UAEPAXI@Z 00431ca4     libcpmt:cout.obj
 0002:00009ca4       __ehfuncinfo$??_Gios_base@std@@UAEPAXI@Z 00431ca4     libcpmt:cout.obj
 0002:00009d60       __unwindtable$??__EmDB@@YAXXZ 00431d60     S08_MyDB.obj
 0002:00009d68       __ehfuncinfo$??__EmDB@@YAXXZ 00431d68     S08_MyDB.obj
 0002:00009e1c       __ehfuncinfo$??0_Locinfo@std@@QAE@PBD@Z 00431e1c     libcpmt:cout.obj
 0002:00009e40       __unwindtable$??0_Locinfo@std@@QAE@PBD@Z 00431e40     libcpmt:cout.obj
 0002:00009e78       __unwindtable$?_Getcat@?$ctype@D@std@@SAIPAPBVfacet@locale@2@PBV42@@Z 00431e78     libcpmt:cout.obj
 0002:00009e80       __ehfuncinfo$?_Getcat@?$ctype@D@std@@SAIPAPBVfacet@locale@2@PBV42@@Z 00431e80     libcpmt:cout.obj
 0002:00009ea4       __unwindtable$??$use_facet@V?$codecvt@DDU_Mbstatet@@@std@@@std@@YAABV?$codecvt@DDU_Mbstatet@@@0@ABVlocale@0@@Z 00431ea4     libcpmt:cout.obj
 0002:00009ea4       __unwindtable$??$use_facet@V?$ctype@D@std@@@std@@YAABV?$ctype@D@0@ABVlocale@0@@Z 00431ea4     libcpmt:cout.obj
 0002:00009eb4       __ehfuncinfo$??$use_facet@V?$codecvt@DDU_Mbstatet@@@std@@@std@@YAABV?$codecvt@DDU_Mbstatet@@@0@ABVlocale@0@@Z 00431eb4     libcpmt:cout.obj
 0002:00009eb4       __ehfuncinfo$??$use_facet@V?$ctype@D@std@@@std@@YAABV?$ctype@D@0@ABVlocale@0@@Z 00431eb4     libcpmt:cout.obj
 0002:00009ed8       __unwindtable$__execute_onexit_table 00431ed8     libucrt:onexit.obj
 0002:00009ed8       __unwindtable$??0?$basic_streambuf@DU?$char_traits@D@std@@@std@@IAE@XZ 00431ed8     libcpmt:cout.obj
 0002:00009ed8       __unwindtable$?_Init@ios_base@std@@IAEXXZ 00431ed8     libcpmt:cout.obj
 0002:00009ee0       __ehfuncinfo$__execute_onexit_table 00431ee0     libucrt:onexit.obj
 0002:00009ee0       __ehfuncinfo$??0?$basic_streambuf@DU?$char_traits@D@std@@@std@@IAE@XZ 00431ee0     libcpmt:cout.obj
 0002:00009ee0       __ehfuncinfo$?_Init@ios_base@std@@IAEXXZ 00431ee0     libcpmt:cout.obj
 0002:00009f04       __unwindtable$?widen@?$basic_ios@DU?$char_traits@D@std@@@std@@QBEDD@Z 00431f04     libcpmt:cout.obj
 0002:00009f0c       __ehfuncinfo$?widen@?$basic_ios@DU?$char_traits@D@std@@@std@@QBEDD@Z 00431f0c     libcpmt:cout.obj
 0002:00009f30       __unwindtable$??0?$basic_ostream@DU?$char_traits@D@std@@@std@@QAE@PAV?$basic_streambuf@DU?$char_traits@D@std@@@1@_N@Z 00431f30     libcpmt:cout.obj
 0002:00009f38       __ehfuncinfo$??0?$basic_ostream@DU?$char_traits@D@std@@@std@@QAE@PAV?$basic_streambuf@DU?$char_traits@D@std@@@1@_N@Z 00431f38     libcpmt:cout.obj
 0002:00009f5c       __unwindtable$?uflow@?$basic_filebuf@DU?$char_traits@D@std@@@std@@MAEHXZ 00431f5c     libcpmt:cout.obj
 0002:00009f64       __ehfuncinfo$?uflow@?$basic_filebuf@DU?$char_traits@D@std@@@std@@MAEHXZ 00431f64     libcpmt:cout.obj
 0002:00009f88       __unwindtable$?_Getcat@?$codecvt@DDU_Mbstatet@@@std@@SAIPAPBVfacet@locale@2@PBV42@@Z 00431f88     libcpmt:cout.obj
 0002:00009f90       __ehfuncinfo$?_Getcat@?$codecvt@DDU_Mbstatet@@@std@@SAIPAPBVfacet@locale@2@PBV42@@Z 00431f90     libcpmt:cout.obj
 0002:00009fec       __unwindtable$?_Init@locale@std@@CAPAV_Locimp@12@_N@Z 00431fec     libcpmt:locale0.obj
 0002:00009ff4       __ehfuncinfo$?_Init@locale@std@@CAPAV_Locimp@12@_N@Z 00431ff4     libcpmt:locale0.obj
 0002:0000a018       __sehtable$___scrt_is_nonwritable_in_current_image 00432018     LIBCMT:utility.obj
 0002:0000a038       __sehtable$?__scrt_common_main_seh@@YAHXZ 00432038     LIBCMT:exe_main.obj
 0002:0000a058       __sehtable$___DestructExceptionObject 00432058     libvcruntime:ehhelpers.obj
 0002:0000a078       __sehtable$?FrameUnwindToState@__FrameHandler3@@SAXPAUEHRegistrationNode@@PAXPBU_s_FuncInfo@@H@Z 00432078     libvcruntime:frame.obj
 0002:0000a0a0       __sehtable$?CallCatchBlock@@YAPAXPAUEHExceptionRecord@@PAUEHRegistrationNode@@PAU_CONTEXT@@PBU_s_FuncInfo@@PAXHK@Z 004320a0     libvcruntime:frame.obj
 0002:0000a0c8       __catchsym$?CallUnexpected@@YAXPBU_s_ESTypeList@@@Z$2 004320c8     libvcruntime:frame.obj
 0002:0000a0d8       __unwindtable$?CallUnexpected@@YAXPBU_s_ESTypeList@@@Z 004320d8     libvcruntime:frame.obj
 0002:0000a0e8       __tryblocktable$?CallUnexpected@@YAXPBU_s_ESTypeList@@@Z 004320e8     libvcruntime:frame.obj
 0002:0000a0fc       __ehfuncinfo$?CallUnexpected@@YAXPBU_s_ESTypeList@@@Z 004320fc     libvcruntime:frame.obj
 0002:0000a120       __sehtable$??$BuildCatchObjectHelperInternal@V__FrameHandler3@@@@YAHPAUEHExceptionRecord@@PAXPBU_s_HandlerType@@PBU_s_CatchableType@@@Z 00432120     libvcruntime:frame.obj
 0002:0000a140       __sehtable$??$BuildCatchObjectInternal@V__FrameHandler3@@@@YAXPAUEHExceptionRecord@@PAXPBU_s_HandlerType@@PBU_s_CatchableType@@@Z 00432140     libvcruntime:frame.obj
 0002:0000a198       __sehtable$??$?RV<lambda_62491a2101a2aba6cc4a769149c84f1f>@@AAV<lambda_826c27fce7726908515bbc79a5266961>@@V<lambda_4e64bbd54b50a7b070e3ea8d795375b6>@@@?$__crt_seh_guarded_call@H@@QAEH$$QAV<lambda_62491a2101a2aba6cc4a769149c84f1f>@@AAV<lambda_826c27fce7726908515bbc79a5266961>@@$$QAV<lambda_4e64bbd54b50a7b070e3ea8d795375b6>@@@Z 00432198     libucrt:output.obj
 0002:0000a1b8       __sehtable$?_fclose_internal@@YAHQAU_iobuf@@AAV__crt_cached_ptd_host@@@Z 004321b8     libucrt:fclose.obj
 0002:0000a1d8       __sehtable$??$common_fgets@D@@YAPADQADHV__crt_stdio_stream@@@Z 004321d8     libucrt:fgets.obj
 0002:0000a1f8       __sehtable$??$common_fsopen@D@@YAPAU_iobuf@@QBD0H@Z 004321f8     libucrt:fopen.obj
 0002:0000a218       __sehtable$??$?RV<lambda_2866be3712abc81a800a822484c830d8>@@AAV<lambda_39ca0ed439415581b5b15c265174cece>@@V<lambda_2b24c74d71094a6cd0cb82e44167d71b>@@@?$__crt_seh_guarded_call@X@@QAEX$$QAV<lambda_2866be3712abc81a800a822484c830d8>@@AAV<lambda_39ca0ed439415581b5b15c265174cece>@@$$QAV<lambda_2b24c74d71094a6cd0cb82e44167d71b>@@@Z 00432218     libucrt:fflush.obj
 0002:0000a238       __sehtable$??$?RV<lambda_2cc53f568c5a2bb6f192f930a45d44ea>@@AAV<lambda_ab61a845afdef5b7c387490eaf3616ee>@@V<lambda_c2ffc0b7726aa6be21d5f0026187e748>@@@?$__crt_seh_guarded_call@X@@QAEX$$QAV<lambda_2cc53f568c5a2bb6f192f930a45d44ea>@@AAV<lambda_ab61a845afdef5b7c387490eaf3616ee>@@$$QAV<lambda_c2ffc0b7726aa6be21d5f0026187e748>@@@Z 00432238     libucrt:fflush.obj
 0002:0000a258       __sehtable$??$?RV<lambda_6d20deecaf4856105ebacbad442d1079>@@AAV<lambda_9a32fed5bf61b6b509b2d3f6003082a1>@@V<lambda_63ea2239ed67c638ddbae41947fdf875>@@@?$__crt_seh_guarded_call@H@@QAEH$$QAV<lambda_6d20deecaf4856105ebacbad442d1079>@@AAV<lambda_9a32fed5bf61b6b509b2d3f6003082a1>@@$$QAV<lambda_63ea2239ed67c638ddbae41947fdf875>@@@Z 00432258     libucrt:fflush.obj
 0002:0000a278       __sehtable$_fgetc          00432278     libucrt:fgetc.obj
 0002:0000a298       __sehtable$?_fputc_internal@@YAHHQAU_iobuf@@AAV__crt_cached_ptd_host@@@Z 00432298     libucrt:fputc.obj
 0002:0000a2b8       __sehtable$_fread_s        004322b8     libucrt:fread.obj
 0002:0000a2d8       __sehtable$?common_fseek@@YAHV__crt_stdio_stream@@_JHAAV__crt_cached_ptd_host@@@Z 004322d8     libucrt:fseek.obj
 0002:0000a2f8       __sehtable$??$?RV<lambda_76055cf4b68c1f980da8b7496a3ae623>@@AAV<lambda_26974eb511f701c600fccfa2a97a8e1b>@@V<lambda_0062726809bb3c529c0733aa37379daf>@@@?$__crt_seh_guarded_call@I@@QAEI$$QAV<lambda_76055cf4b68c1f980da8b7496a3ae623>@@AAV<lambda_26974eb511f701c600fccfa2a97a8e1b>@@$$QAV<lambda_0062726809bb3c529c0733aa37379daf>@@@Z 004322f8     libucrt:fwrite.obj
 0002:0000a318       __sehtable$??$?RV<lambda_c390c0748f48a7db46f6ce5cc3c796da>@@AAV<lambda_703a5c3f7c88128b7f5f7a8861b0a6e0>@@V<lambda_c16a91f8771b304e2b1164fb4c043437>@@@?$__crt_seh_guarded_call@H@@QAEH$$QAV<lambda_c390c0748f48a7db46f6ce5cc3c796da>@@AAV<lambda_703a5c3f7c88128b7f5f7a8861b0a6e0>@@$$QAV<lambda_c16a91f8771b304e2b1164fb4c043437>@@@Z 00432318     libucrt:setvbuf.obj
 0002:0000a338       __sehtable$_ungetc         00432338     libucrt:ungetc.obj
 0002:0000a358       __sehtable$??$?RV<lambda_f5952838e36297a1e2e9d6c748429792>@@AAV<lambda_2116bde18c9e5f34230805ea4a4660ed>@@V<lambda_3c7107de1cc98bf330a3031f42c322a3>@@@?$__crt_seh_guarded_call@PAD@@QAEPAD$$QAV<lambda_f5952838e36297a1e2e9d6c748429792>@@AAV<lambda_2116bde18c9e5f34230805ea4a4660ed>@@$$QAV<lambda_3c7107de1cc98bf330a3031f42c322a3>@@@Z 00432358     libucrt:setlocale.obj
 0002:0000a378       __sehtable$__query_new_handler 00432378     libucrt:new_handler.obj
 0002:0000a398       __sehtable$??R<lambda_6e4b09c48022b2350581041d5f6b0c4c>@@QBE@XZ 00432398     libucrt:exit.obj
 0002:0000a3b8       __sehtable$??$?RV<lambda_03b1d95aef87969028cfba75ccab2455>@@AAV<lambda_6e4b09c48022b2350581041d5f6b0c4c>@@V<lambda_22bdf7517842c4b3e53723af5aa32b9e>@@@?$__crt_seh_guarded_call@X@@QAEX$$QAV<lambda_03b1d95aef87969028cfba75ccab2455>@@AAV<lambda_6e4b09c48022b2350581041d5f6b0c4c>@@$$QAV<lambda_22bdf7517842c4b3e53723af5aa32b9e>@@@Z 004323b8     libucrt:exit.obj
 0002:0000a3d4       __unwindtable$___dcrt_uninitialize_environments_nolock 004323d4     libucrt:environment_initialization.obj
 0002:0000a3e4       __ehfuncinfo$___dcrt_uninitialize_environments_nolock 004323e4     libucrt:environment_initialization.obj
 0002:0000a408       __sehtable$??$?RV<lambda_8e746cf0007f6ed984d6f78af1fec997>@@AAV<lambda_22ebabd17bc4fa466a2aca6d8deb888d>@@V<lambda_18ed0c0b38a6dc0daf1e7ac6d6adf05e>@@@?$__crt_seh_guarded_call@H@@QAEH$$QAV<lambda_8e746cf0007f6ed984d6f78af1fec997>@@AAV<lambda_22ebabd17bc4fa466a2aca6d8deb888d>@@$$QAV<lambda_18ed0c0b38a6dc0daf1e7ac6d6adf05e>@@@Z 00432408     libucrt:onexit.obj
 0002:0000a428       __sehtable$??$?RV<lambda_69a2805e680e0e292e8ba93315fe43a8>@@AAV<lambda_f03950bc5685219e0bcd2087efbe011e>@@V<lambda_03fcd07e894ec930e3f35da366ca99d6>@@@?$__crt_seh_guarded_call@H@@QAEH$$QAV<lambda_69a2805e680e0e292e8ba93315fe43a8>@@AAV<lambda_f03950bc5685219e0bcd2087efbe011e>@@$$QAV<lambda_03fcd07e894ec930e3f35da366ca99d6>@@@Z 00432428     libucrt:onexit.obj
 0002:0000a448       __sehtable$??$?RV<lambda_e5124f882df8998aaf41531e079ba474>@@AAV<lambda_3e16ef9562a7dcce91392c22ab16ea36>@@V<lambda_e25ca0880e6ef98be67edffd8c599615>@@@?$__crt_seh_guarded_call@X@@QAEX$$QAV<lambda_e5124f882df8998aaf41531e079ba474>@@AAV<lambda_3e16ef9562a7dcce91392c22ab16ea36>@@$$QAV<lambda_e25ca0880e6ef98be67edffd8c599615>@@@Z 00432448     libucrt:wsetlocale.obj
 0002:0000a468       __sehtable$??$?RV<lambda_4fdada1b837b2abbf20876fac97688ad>@@AAV<lambda_b57350f2640456a0859d250846f69caf>@@V<lambda_eed5e4f92b5b7d55fa22c48c484aaa54>@@@?$__crt_seh_guarded_call@X@@QAEX$$QAV<lambda_4fdada1b837b2abbf20876fac97688ad>@@AAV<lambda_b57350f2640456a0859d250846f69caf>@@$$QAV<lambda_eed5e4f92b5b7d55fa22c48c484aaa54>@@@Z 00432468     libucrt:wsetlocale.obj
 0002:0000a488       __sehtable$??$?RV<lambda_ac03c5d59bd18b09cb88b28331f6bfed>@@AAV<lambda_2a444430fde8c29194d880d93eed5e8f>@@AAV<lambda_02db5278e8aef8b5e4976579d73f5304>@@@?$__crt_seh_guarded_call@X@@QAEX$$QAV<lambda_ac03c5d59bd18b09cb88b28331f6bfed>@@AAV<lambda_2a444430fde8c29194d880d93eed5e8f>@@AAV<lambda_02db5278e8aef8b5e4976579d73f5304>@@@Z 00432488     libucrt:wsetlocale.obj
 0002:0000a4a8       __sehtable$_terminate      004324a8     libucrt:terminate.obj
 0002:0000a4c8       __sehtable$??$?RV<lambda_15ade71b0218206bbe3333a0c9b79046>@@AAV<lambda_da44e0f8b0f19ba52fefafb335991732>@@V<lambda_207f2d024fc103971653565357d6cd41>@@@?$__crt_seh_guarded_call@X@@QAEX$$QAV<lambda_15ade71b0218206bbe3333a0c9b79046>@@AAV<lambda_da44e0f8b0f19ba52fefafb335991732>@@$$QAV<lambda_207f2d024fc103971653565357d6cd41>@@@Z 004324c8     libucrt:per_thread_data.obj
 0002:0000a4e8       __sehtable$??$?RV<lambda_a7e850c220f1c8d1e6efeecdedd162c6>@@AAV<lambda_46720907175c18b6c9d2717bc0d2d362>@@V<lambda_9048902d66e8d99359bc9897bbb930a8>@@@?$__crt_seh_guarded_call@X@@QAEX$$QAV<lambda_a7e850c220f1c8d1e6efeecdedd162c6>@@AAV<lambda_46720907175c18b6c9d2717bc0d2d362>@@$$QAV<lambda_9048902d66e8d99359bc9897bbb930a8>@@@Z 004324e8     libucrt:per_thread_data.obj
 0002:0000a508       __sehtable$??$?RV<lambda_38edbb1296d33220d7e4dd0ed76b244a>@@AAV<lambda_5ce1d447e08cb34b2473517608e21441>@@V<lambda_fb385d3da700c9147fc39e65dd577a8c>@@@?$__crt_seh_guarded_call@X@@QAEX$$QAV<lambda_38edbb1296d33220d7e4dd0ed76b244a>@@AAV<lambda_5ce1d447e08cb34b2473517608e21441>@@$$QAV<lambda_fb385d3da700c9147fc39e65dd577a8c>@@@Z 00432508     libucrt:per_thread_data.obj
 0002:0000a528       __sehtable$??$?RV<lambda_6affb1475c98b40b75cdec977db92e3c>@@AAV<lambda_b8d4b9c228a6ecc3f80208dbb4b4a104>@@V<lambda_608742c3c92a14382c1684fc64f96c88>@@@?$__crt_seh_guarded_call@X@@QAEX$$QAV<lambda_6affb1475c98b40b75cdec977db92e3c>@@AAV<lambda_b8d4b9c228a6ecc3f80208dbb4b4a104>@@$$QAV<lambda_608742c3c92a14382c1684fc64f96c88>@@@Z 00432528     libucrt:per_thread_data.obj
 0002:0000a548       __sehtable$___acrt_initialize_lowio 00432548     libucrt:ioinit.obj
 0002:0000a568       __sehtable$??$?RV<lambda_6b4b7855443974f2b4b77000ea21c99c>@@AAV<lambda_8f7d3b162ab39427f4fa9995c67a7986>@@V<lambda_cc9a5ba8a5d8428b9634eab82665e5dc>@@@?$__crt_seh_guarded_call@H@@QAEH$$QAV<lambda_6b4b7855443974f2b4b77000ea21c99c>@@AAV<lambda_8f7d3b162ab39427f4fa9995c67a7986>@@$$QAV<lambda_cc9a5ba8a5d8428b9634eab82665e5dc>@@@Z 00432568     libucrt:winapi_thunks.obj
 0002:0000a588       __sehtable$__fcloseall     00432588     libucrt:closeall.obj
 0002:0000a5a8       __sehtable$??$?RV<lambda_d422a76eb4c3bf3ad751449ab71a6ea4>@@AAV<lambda_c9ba49e555ba839a7b07aa3fbecb7617>@@V<lambda_9476263c8ee91a25d21c55370bdb50de>@@@?$__crt_seh_guarded_call@H@@QAEH$$QAV<lambda_d422a76eb4c3bf3ad751449ab71a6ea4>@@AAV<lambda_c9ba49e555ba839a7b07aa3fbecb7617>@@$$QAV<lambda_9476263c8ee91a25d21c55370bdb50de>@@@Z 004325a8     libucrt:close.obj
 0002:0000a5c8       __sehtable$?__acrt_stdio_allocate_stream@@YA?AV__crt_stdio_stream@@XZ 004325c8     libucrt:stream.obj
 0002:0000a5e8       __sehtable$??$?RV<lambda_9e9de3de5fa147e2223d7db92bc10aa6>@@AAV<lambda_38ce7e780aa69e748d6df282ebc68efe>@@V<lambda_8ca6da459f0f6780f1cff60fdc3d00e5>@@@?$__crt_seh_guarded_call@H@@QAEH$$QAV<lambda_9e9de3de5fa147e2223d7db92bc10aa6>@@AAV<lambda_38ce7e780aa69e748d6df282ebc68efe>@@$$QAV<lambda_8ca6da459f0f6780f1cff60fdc3d00e5>@@@Z 004325e8     libucrt:commit.obj
 0002:0000a608       __sehtable$__write_internal 00432608     libucrt:write.obj
 0002:0000a628       __sehtable$??$common_ftell@_J@@YA_JV__crt_stdio_stream@@AAV__crt_cached_ptd_host@@@Z 00432628     libucrt:ftell.obj
 0002:0000a648       __sehtable$__read          00432648     libucrt:read.obj
 0002:0000a668       __sehtable$??$common_lseek@_J@@YA_JH_JHAAV__crt_cached_ptd_host@@@Z 00432668     libucrt:lseek.obj
 0002:0000a688       __sehtable$_raise          00432688     libucrt:signal.obj
 0002:0000a6a8       __sehtable$??$?RV<lambda_cbab9ec6f41b0180b23cc171c22676b0>@@AAV<lambda_44731a7d0e6d81c3e6aa82d741081786>@@V<lambda_4b292cb8dd18144e164572427af410ab>@@@?$__crt_seh_guarded_call@P6AXH@Z@@QAEP6AXH@Z$$QAV<lambda_cbab9ec6f41b0180b23cc171c22676b0>@@AAV<lambda_44731a7d0e6d81c3e6aa82d741081786>@@$$QAV<lambda_4b292cb8dd18144e164572427af410ab>@@@Z 004326a8     libucrt:signal.obj
 0002:0000a6c8       __sehtable$___set_fpsr_sse2 004326c8     libucrt:fpctrl.obj
 0002:0000a6e8       __sehtable$?update_thread_multibyte_data_internal@@YAPAU__crt_multibyte_data@@QAU__acrt_ptd@@QAPAU1@@Z 004326e8     libucrt:mbctype.obj
 0002:0000a708       __sehtable$??$?RV<lambda_ceb1ee4838e85a9d631eb091e2fbe199>@@AAV<lambda_ae742caa10f662c28703da3d2ea5e57e>@@V<lambda_cd08b5d6af4937fe54fc07d0c9bf6b37>@@@?$__crt_seh_guarded_call@X@@QAEX$$QAV<lambda_ceb1ee4838e85a9d631eb091e2fbe199>@@AAV<lambda_ae742caa10f662c28703da3d2ea5e57e>@@$$QAV<lambda_cd08b5d6af4937fe54fc07d0c9bf6b37>@@@Z 00432708     libucrt:mbctype.obj
 0002:0000a728       __sehtable$__alloc_osfhnd  00432728     libucrt:osfinfo.obj
 0002:0000a748       __sehtable$___acrt_lowio_ensure_fh_exists 00432748     libucrt:osfinfo.obj
 0002:0000a768       __sehtable$___acrt_update_thread_locale_data 00432768     libucrt:locale_refcounting.obj
 0002:0000a788       __sehtable$??$common_sopen_dispatch@D@@YAHQBDHHHQAHH@Z 00432788     libucrt:open.obj
 0002:0000a7a8       __sehtable$__IsNonwritableInCurrentImage 004327a8     LIBCMT:pesect.obj
 0002:0000ab20       .idata$6                   00432b20     libmysql:libmysql.dll
 0002:0000abfe       .idata$6                   00432bfe     kernel32:KERNEL32.dll
 0002:0000acac       .idata$6                   00432cac     user32:USER32.dll
 0002:0000acca       .idata$6                   00432cca     gdi32:GDI32.dll
 0002:0000ad20       .idata$6                   00432d20     BugTrap:BugTrap.dll
 0002:0000ad2c       .idata$6                   00432d2c     WS2_32:WS2_32.dll
 0003:00000024       ?init@std@@3JA             00434024     libcpmt:xlock.obj
 0003:0000002c       ?atcount_cdecl@@3IA        0043402c     libcpmt:iosptrs.obj
 0003:000000b0       ?__vcrt_flsindex@@3KA      004340b0     libvcruntime:per_thread_data.obj
 0003:0000018c       ?errno_no_memory@@3HA      0043418c     libucrt:errno.obj
 0003:00000190       ?doserrno_no_memory@@3KA   00434190     libucrt:errno.obj
 0003:000001fc       __ctype_loc_style          004341fc     libucrt:wsetlocale.obj
 0003:00000200       ?__acrt_flsindex@@3KA      00434200     libucrt:per_thread_data.obj
 0003:00000308       ?tzstd_program@@3PADA      00434308     libucrt:timeset.obj
 0003:00000348       ?tzdst_program@@3PADA      00434348     libucrt:timeset.obj
 0003:00000388       ?w_tzstd_program@@3PA_WA   00434388     libucrt:timeset.obj
 0003:00000408       ?w_tzdst_program@@3PA_WA   00434408     libucrt:timeset.obj
 0003:00000488       ?tzname_states@@3PAY01PADA 00434488     libucrt:timeset.obj
 0003:00000490       ?w_tzname_states@@3PAY01PA_WA 00434490     libucrt:timeset.obj
 0003:0000059c       ?__DAZ_ENABLED@?1??__set_fpsr_sse2@@9@9 0043459c     libucrt:fpctrl.obj
 0003:000007c0       __mbctypes                 004347c0     libucrt:mbctype.obj
 0003:000008c8       __mbcasemaps               004348c8     libucrt:mbctype.obj
 0003:000009c8       ?__rgctypeflag@@3PADA      004349c8     libucrt:mbctype.obj
 0003:000009d0       ?__rgcode_page_info@@3PAUcode_page_info@@A 004349d0     libucrt:mbctype.obj
 0003:00000ac0       ?__dcrt_lowio_console_output_handle@@3PAXA 00434ac0     libucrt:initcon.obj
 0003:00000ed8       ?s_kProgramLog@?1??__LogMgr@@YAPAVR_ProLog@@XZ@4V2@A 00434ed8     TimeLog.obj
 0003:000026f8       ?$TSS0@?1??__LogMgr@@YAPAVR_ProLog@@XZ@4HA 004366f8     TimeLog.obj
 0003:00020178       ?initlocks@@3V_Init_locks@std@@A 00454178     libcpmt:cout.obj
 0003:00020179       ?init_cout@std@@3U_Init_cout@1@A 00454179     libcpmt:cout.obj
 0003:000201d0       ?fout@std@@3V?$basic_filebuf@DU?$char_traits@D@std@@@1@A 004541d0     libcpmt:cout.obj
 0003:00020240       ?initlocks@std@@3V_Init_locks@1@A 00454240     libcpmt:xlock.obj
 0003:00020248       ?mtx@std@@3PAU_RTL_CRITICAL_SECTION@@A 00454248     libcpmt:xlock.obj
 0003:00020324       ?classic_locale@std@@3Vlocale@1@A 00454324     libcpmt:locale0.obj
 0003:0002032c       ?_Fac_head@std@@3PAU_Fac_node@1@A 0045432c     libcpmt:locale0.obj
 0003:00020330       ?_Fac_tidy_reg@std@@3U_Fac_tidy_reg_t@1@B 00454330     libcpmt:locale0.obj
 0003:00020334       _global_locale             00454334     libcpmt:locale0.obj
 0003:00020338       ?registered@?1??_Setgloballocale@locale@std@@CAXPAX@Z@4_NA 00454338     libcpmt:locale0.obj
 0003:00020340       ?stdstr@std@@3PAPAVios_base@1@A 00454340     libcpmt:ios.obj
 0003:00020368       ?stdopens@std@@3PADA       00454368     libcpmt:ios.obj
 0003:00020394       ?initlocks@std@@3V_Init_locks@1@A 00454394     libcpmt:iosptrs.obj
 0003:00020395       ?init_atexit@@3U_Init_atexit@@A 00454395     libcpmt:iosptrs.obj
 0003:00020398       ?atfuns_cdecl@@3PAP6AXXZA  00454398     libcpmt:iosptrs.obj
 0003:0002044c       ?is_initialized_as_dll@@3_NA 0045444c     LIBCMT:utility.obj
 0003:0002044d       ?module_local_atexit_table_initialized@@3_NA 0045444d     LIBCMT:utility.obj
 0003:00020450       ?module_local_atexit_table@@3U_onexit_table_t@@A 00454450     LIBCMT:utility.obj
 0003:0002045c       ?module_local_at_quick_exit_table@@3U_onexit_table_t@@A 0045445c     LIBCMT:utility.obj
 0003:00020468       _GS_ExceptionRecord        00454468     LIBCMT:gs_report.obj
 0003:000204b8       _GS_ContextRecord          004544b8     LIBCMT:gs_report.obj
 0003:00020784       ?g_tss_cv@@3U_RTL_CONDITION_VARIABLE@@A 00454784     LIBCMT:thread_safe_statics.obj
 0003:00020788       ?g_tss_srw@@3U_RTL_SRWLOCK@@A 00454788     LIBCMT:thread_safe_statics.obj
 0003:000207b4       ?__vcrt_startup_thread_ptd@@3U__vcrt_ptd@@A 004547b4     libvcruntime:per_thread_data.obj
 0003:000207e0       ___vcrt_lock_table         004547e0     libvcruntime:locks.obj
 0003:000207f8       ___vcrt_locks_initialized  004547f8     libvcruntime:locks.obj
 0003:00020824       ?heap@@3V_HeapManager@@A   00454824     libvcruntime:undname.obj
 0003:00020838       ?module_handles@@3PAPAUHINSTANCE__@@A 00454838     libvcruntime:winapi_downlevel.obj
 0003:00020844       ?function_pointers@@3PAPAXA 00454844     libvcruntime:winapi_downlevel.obj
 0003:00020858       ?__acrt_invalid_parameter_handler@@3V?$dual_state_global@P6AXPB_W00II@Z@__crt_state_management@@A 00454858     libucrt:invalid_parameter.obj
 0003:00020868       ?__acrt_lock_table@@3PAU_RTL_CRITICAL_SECTION@@A 00454868     libucrt:locks.obj
 0003:000209b8       ?__acrt_locks_initialized@@3IA 004549b8     libucrt:locks.obj
 0003:000209c4       ?__acrt_new_handler@@3V?$dual_state_global@P6AHI@Z@__crt_state_management@@A 004549c4     libucrt:new_handler.obj
 0003:000209c8       ?c_termination_complete@@3JA 004549c8     libucrt:exit.obj
 0003:000209cc       ?thread_local_exit_callback_func@@3P6GXPAXK0@ZA 004549cc     libucrt:exit.obj
 0003:000209d0       ?c_exit_complete@?1???R<lambda_6e4b09c48022b2350581041d5f6b0c4c>@@QBE@XZ@4_NA 004549d0     libucrt:exit.obj
 0003:000209d8       ?program_name@?1???$common_configure_argv@D@@YAHW4_crt_argv_mode@@@Z@4PADA 004549d8     libucrt:argv_parsing.obj
 0003:00020b08       ?__acrt_app_type@@3W4_crt_app_type@@A 00454b08     libucrt:report_runtime_error.obj
 0003:00020b0c       ?user_matherr@@3V?$dual_state_global@P6AHPAU_exception@@@Z@__crt_state_management@@A 00454b0c     libucrt:matherr.obj
 0003:00020b2c       ?__acrt_global_new_mode@@3V?$dual_state_global@J@__crt_state_management@@A 00454b2c     libucrt:new_mode.obj
 0003:00020b38       ?internal_state@?1??_mbtowc_internal@@9@4U_Mbstatet@@A 00454b38     libucrt:mbtowc.obj
 0003:00020b40       ?enable_percent_n@@3IA     00454b40     libucrt:printf_count_output.obj
 0003:00020d60       ?_tzname@@3V?$dual_state_global@PAPAD@__crt_state_management@@A 00454d60     libucrt:timeset.obj
 0003:00020d64       ?w_tzname@@3V?$dual_state_global@PAPA_W@__crt_state_management@@A 00454d64     libucrt:timeset.obj
 0003:00020d68       ?tz_api_used@@3HA          00454d68     libucrt:tzset.obj
 0003:00020d6c       ?tzset_init_state@@3V?$dual_state_global@J@__crt_state_management@@A 00454d6c     libucrt:tzset.obj
 0003:00020d70       ?tz_info@@3U_TIME_ZONE_INFORMATION@@A 00454d70     libucrt:tzset.obj
 0003:00020e20       ?module_handles@@3PAPAUHINSTANCE__@@A 00454e20     libucrt:winapi_thunks.obj
 0003:00020e78       ?encoded_function_pointers@@3PAPAXA 00454e78     libucrt:winapi_thunks.obj
 0003:00020f04       ?static_enum_proc@?1??enum_system_locales_ex_nolock@@YAHQ6GHPA_WKJ@Z@Z@4P6GH0KJ@ZA 00454f04     libucrt:winapi_thunks.obj
 0003:00020f08       ?ctrlc_action@@3V?$dual_state_global@P6AXH@Z@__crt_state_management@@A 00454f08     libucrt:signal.obj
 0003:00020f0c       ?ctrlbreak_action@@3V?$dual_state_global@P6AXH@Z@__crt_state_management@@A 00454f0c     libucrt:signal.obj
 0003:00020f10       ?abort_action@@3V?$dual_state_global@P6AXH@Z@__crt_state_management@@A 00454f10     libucrt:signal.obj
 0003:00020f14       ?term_action@@3V?$dual_state_global@P6AXH@Z@__crt_state_management@@A 00454f14     libucrt:signal.obj
 0003:00020f24       ?fSystemSet@@3HA           00454f24     libucrt:mbctype.obj
 0003:00020f28       ?initialized@?1??__acrt_initialize_multibyte@@9@4_NA 00454f28     libucrt:mbctype.obj
 0003:00020f34       ?internal_pst@?1??__mbrtoc32_utf8@__crt_mbstring@@YAIPA_UPBDIPAU_Mbstatet@@AAV__crt_cached_ptd_host@@@Z@4U3@A 00454f34     libucrt:mbrtoc32.obj
 0003:00020f40       ?internal_pst@?1??__c16rtomb_utf8@__crt_mbstring@@YAIPAD_SPAU_Mbstatet@@AAV__crt_cached_ptd_host@@@Z@4U3@A 00454f40     libucrt:c16rtomb.obj
 0003:00020f4c       __pmatherr_set             00454f4c     libucrt:libm_error.obj
 0004:00000060       $R000000                   00455060     * linker generated manifest res *

 Exports

  ordinal    name

