 TS2PLAYUSER

 Timestamp is 65b1ed47 (Thu Jan 25 08:10:31 2024)

 Preferred load address is 00400000

 Start         Length     Name                   Class
 0001:00000000 00000140H .text$di                CODE
 0001:00000140 00035dd0H .text$mn                CODE
 0001:00035f10 000004f0H .text$x                 CODE
 0001:00036400 00000088H .text$yd                CODE
 0002:00000000 0000022cH .idata$5                DATA
 0002:0000022c 00000008H .00cfg                  DATA
 0002:00000234 00000004H .CRT$XCA                DATA
 0002:00000238 00000004H .CRT$XCAA               DATA
 0002:0000023c 0000001cH .CRT$XCC                DATA
 0002:00000258 00000008H .CRT$XCL                DATA
 0002:00000260 00000004H .CRT$XCU                DATA
 0002:00000264 00000004H .CRT$XCZ                DATA
 0002:00000268 00000004H .CRT$XIA                DATA
 0002:0000026c 00000004H .CRT$XIAA               DATA
 0002:00000270 00000004H .CRT$XIAC               DATA
 0002:00000274 00000014H .CRT$XIC                DATA
 0002:00000288 00000004H .CRT$XIZ                DATA
 0002:0000028c 00000004H .CRT$XLA                DATA
 0002:00000290 00000004H .CRT$XLZ                DATA
 0002:00000294 00000004H .CRT$XPA                DATA
 0002:00000298 00000008H .CRT$XPX                DATA
 0002:000002a0 00000004H .CRT$XPXA               DATA
 0002:000002a4 00000004H .CRT$XPZ                DATA
 0002:000002a8 00000004H .CRT$XTA                DATA
 0002:000002ac 00000014H .CRT$XTZ                DATA
 0002:000002b0 00000000H .gfids$y                DATA
 0002:000002c0 0000a0c0H .rdata                  DATA
 0002:0000a380 00000000H .rdata$CastGuardVftablesA DATA
 0002:0000a380 00000000H .rdata$CastGuardVftablesC DATA
 0002:0000a380 00000018H .rdata$T                DATA
 0002:0000a398 000008a8H .rdata$r                DATA
 0002:0000ac40 00000080H .rdata$sxdata           DATA
 0002:0000acc0 00000310H .rdata$voltmd           DATA
 0002:0000afd0 00000458H .rdata$zzzdbg           DATA
 0002:0000b428 00000004H .rtc$IAA                DATA
 0002:0000b42c 00000004H .rtc$IZZ                DATA
 0002:0000b430 00000004H .rtc$TAA                DATA
 0002:0000b434 00000004H .rtc$TZZ                DATA
 0002:0000b438 00000004H .tls                    DATA
 0002:0000b43c 00000004H .tls$                   DATA
 0002:0000b440 00000008H .tls$ZZZ                DATA
 0002:0000b448 00000d5cH .xdata$x                DATA
 0002:0000c1a4 00000000H .edata                  DATA
 0002:0000c1a4 00000078H .idata$2                DATA
 0002:0000c21c 00000014H .idata$3                DATA
 0002:0000c230 0000022cH .idata$4                DATA
 0002:0000c45c 000008ccH .idata$6                DATA
 0003:00000000 00000ac0H .data                   DATA
 0003:00000ac0 00000160H .data$r                 DATA
 0003:00000c20 000002a0H .data$rs                DATA
 0003:00000ec0 057f3d68H .bss                    DATA
 0004:00000000 00000060H .rsrc$01                DATA
 0004:00000060 00000180H .rsrc$02                DATA

  Address         Publics by Value              Rva+Base       Lib:Object

 0000:00000000       ___AbsoluteZero            00000000     <absolute>
 0000:00000000       ___arm64x_extra_rfe_table  00000000     <absolute>
 0000:00000000       ___arm64x_extra_rfe_table_size 00000000     <absolute>
 0000:00000000       ___arm64x_native_entrypoint 00000000     <absolute>
 0000:00000000       ___arm64x_redirection_metadata 00000000     <absolute>
 0000:00000000       ___arm64x_redirection_metadata_count 00000000     <absolute>
 0000:00000000       ___dynamic_value_reloc_table 00000000     <absolute>
 0000:00000000       ___enclave_config          00000000     <absolute>
 0000:00000000       ___guard_check_icall_a64n_fptr 00000000     <absolute>
 0000:00000000       ___guard_eh_cont_count     00000000     <absolute>
 0000:00000000       ___guard_eh_cont_table     00000000     <absolute>
 0000:00000000       ___guard_fids_count        00000000     <absolute>
 0000:00000000       ___guard_fids_table        00000000     <absolute>
 0000:00000000       ___guard_iat_count         00000000     <absolute>
 0000:00000000       ___guard_iat_table         00000000     <absolute>
 0000:00000000       ___guard_longjmp_count     00000000     <absolute>
 0000:00000000       ___guard_longjmp_table     00000000     <absolute>
 0000:00000000       ___hybrid_auxiliary_delayload_iat 00000000     <absolute>
 0000:00000000       ___hybrid_auxiliary_delayload_iat_copy 00000000     <absolute>
 0000:00000000       ___hybrid_auxiliary_iat    00000000     <absolute>
 0000:00000000       ___hybrid_auxiliary_iat_copy 00000000     <absolute>
 0000:00000000       ___hybrid_code_map         00000000     <absolute>
 0000:00000000       ___hybrid_code_map_count   00000000     <absolute>
 0000:00000000       ___hybrid_image_info_bitfield 00000000     <absolute>
 0000:00000000       ___x64_code_ranges_to_entry_points 00000000     <absolute>
 0000:00000000       ___x64_code_ranges_to_entry_points_count 00000000     <absolute>
 0000:00000000       __except_list              00000000     <absolute>
 0000:00000020       ___safe_se_handler_count   00000020     <absolute>
 0000:0000002c       __tls_array                0000002c     <absolute>
 0000:00000100       ___guard_flags             00000100     <absolute>
 0000:00000000       ___ImageBase               00400000     <linker-defined>
 0001:00000140       ??$_Allocate_for_capacity@$0A@@?$basic_string@DU?$char_traits@D@std@@V?$allocator@D@2@@std@@CAPADAAV?$allocator@D@1@AAI@Z 00401140 f i cts_mysql.obj
 0001:000001a0       ??$_Allocate_manually_vector_aligned@U_Default_allocate_traits@std@@@std@@YAPAXI@Z 004011a0 f i cts_mysql.obj
 0001:000001d0       ??0CMySQL@@QAE@XZ          004011d0 f   cts_mysql.obj
 0001:00000250       ??0bad_alloc@std@@QAE@ABV01@@Z 00401250 f i cts_mysql.obj
 0001:00000290       ??0bad_array_new_length@std@@QAE@ABV01@@Z 00401290 f i cts_mysql.obj
 0001:000002d0       ??0bad_array_new_length@std@@QAE@XZ 004012d0 f i cts_mysql.obj
 0001:000002f0       ??0exception@std@@QAE@ABV01@@Z 004012f0 f i cts_mysql.obj
 0001:00000320       ??1CMySQL@@QAE@XZ          00401320 f   cts_mysql.obj
 0001:000003f0       ??1bad_alloc@std@@UAE@XZ   004013f0 f i libcpmt:xthrow.obj
 0001:000003f0       ??1bad_array_new_length@std@@UAE@XZ 004013f0 f i cts_mysql.obj
 0001:000003f0       ??1bad_cast@std@@UAE@XZ    004013f0 f i libcpmt:cout.obj
 0001:000003f0       ??1bad_exception@std@@UAE@XZ 004013f0 f i libvcruntime:frame.obj
 0001:000003f0       ??1failure@ios_base@std@@UAE@XZ 004013f0 f i TimeLog.obj
 0001:000003f0       ??1length_error@std@@UAE@XZ 004013f0 f i libcpmt:xthrow.obj
 0001:000003f0       ??1runtime_error@std@@UAE@XZ 004013f0 f i libcpmt:xthrow.obj
 0001:00000410       ??4?$basic_string@DU?$char_traits@D@std@@V?$allocator@D@2@@std@@QAEAAV01@QBD@Z 00401410 f i cts_mysql.obj
 0001:00000520       ??_Ebad_alloc@std@@UAEPAXI@Z 00401520 f i cts_mysql.obj
 0001:00000520       ??_Ebad_array_new_length@std@@UAEPAXI@Z 00401520 f i cts_mysql.obj
 0001:00000520       ??_Eexception@std@@UAEPAXI@Z 00401520 f i cts_mysql.obj
 0001:00000520       ??_Eruntime_error@std@@UAEPAXI@Z 00401520 f i TimeLog.obj
 0001:00000520       ??_Gbad_alloc@std@@UAEPAXI@Z 00401520 f i cts_mysql.obj
 0001:00000520       ??_Gbad_array_new_length@std@@UAEPAXI@Z 00401520 f i cts_mysql.obj
 0001:00000520       ??_Gexception@std@@UAEPAXI@Z 00401520 f i cts_mysql.obj
 0001:00000520       ??_Gruntime_error@std@@UAEPAXI@Z 00401520 f i TimeLog.obj
 0001:00000550       ?IsConnected@CMySQL@@QAEHXZ 00401550 f   cts_mysql.obj
 0001:00000570       ?Reconnect@CMySQL@@QAEHXZ  00401570 f   cts_mysql.obj
 0001:00000670       ?_Throw_bad_array_new_length@std@@YAXXZ 00401670 f i cts_mysql.obj
 0001:00000670       ?__scrt_throw_std_bad_array_new_length@@YAXXZ 00401670 f i LIBCMT:throw_bad_alloc.obj
 0001:00000690       ?_Xlen_string@std@@YAXXZ   00401690 f i cts_mysql.obj
 0001:000006a0       ?clear_res@CMySQL@@QAEXXZ  004016a0 f   cts_mysql.obj
 0001:000006b0       ?connect@CMySQL@@QAEPAUst_mysql@@XZ 004016b0 f   cts_mysql.obj
 0001:00000740       ?exec_query@CMySQL@@QAEHPAD@Z 00401740 f   cts_mysql.obj
 0001:000007b0       ?exec_query@CMySQL@@QAEHPADW4CFLAG@1@@Z 004017b0 f   cts_mysql.obj
 0001:00000830       ?get_error_msg@CMySQL@@QAEAAV?$basic_string@DU?$char_traits@D@std@@V?$allocator@D@2@@std@@XZ 00401830 f   cts_mysql.obj
 0001:00000840       ?get_res@CMySQL@@QAEPAUst_mysql_res@@XZ 00401840 f   cts_mysql.obj
 0001:00000850       ?set_db_conn_info@CMySQL@@QAEHPBD0H000@Z 00401850 f   cts_mysql.obj
 0001:000008f0       ?unset_db_conn_info@CMySQL@@QAEXXZ 004018f0 f i cts_mysql.obj
 0001:00000950       ?what@exception@std@@UBEPBDXZ 00401950 f i cts_mysql.obj
 0001:00000960       ??$?6U?$char_traits@D@std@@@std@@YAAAV?$basic_ostream@DU?$char_traits@D@std@@@0@AAV10@PBD@Z 00401960 f i TimeLog.obj
 0001:00000c00       ??$_Construct@$00PBD@?$basic_string@DU?$char_traits@D@std@@V?$allocator@D@2@@std@@AAEXQBDI@Z 00401c00 f i TimeLog.obj
 0001:00000c90       ??0_System_error@std@@IAE@Verror_code@1@ABV?$basic_string@DU?$char_traits@D@std@@V?$allocator@D@2@@1@@Z 00401c90 f i TimeLog.obj
 0001:00000ea0       ??0_System_error@std@@QAE@ABV01@@Z 00401ea0 f i TimeLog.obj
 0001:00000ef0       ??0failure@ios_base@std@@QAE@ABV012@@Z 00401ef0 f i TimeLog.obj
 0001:00000f40       ??0failure@ios_base@std@@QAE@PBDABVerror_code@2@@Z 00401f40 f i TimeLog.obj
 0001:00001030       ??0runtime_error@std@@QAE@ABV01@@Z 00402030 f i TimeLog.obj
 0001:00001070       ??0sentry@?$basic_ostream@DU?$char_traits@D@std@@@std@@QAE@AAV12@@Z 00402070 f i TimeLog.obj
 0001:00001110       ??0system_error@std@@QAE@ABV01@@Z 00402110 f i TimeLog.obj
 0001:00001160       ??1?$basic_string@DU?$char_traits@D@std@@V?$allocator@D@2@@std@@QAE@XZ 00402160 f i TimeLog.obj
 0001:000011b0       ??1_Sentry_base@?$basic_ostream@DU?$char_traits@D@std@@@std@@QAE@XZ 004021b0 f i TimeLog.obj
 0001:00001200       ??1sentry@?$basic_ostream@DU?$char_traits@D@std@@@std@@QAE@XZ 00402200 f i TimeLog.obj
 0001:00001270       ??_E_Iostream_error_category2@std@@UAEPAXI@Z 00402270 f i TimeLog.obj
 0001:00001270       ??_G_Iostream_error_category2@std@@UAEPAXI@Z 00402270 f i TimeLog.obj
 0001:00001290       ??_E_System_error@std@@UAEPAXI@Z 00402290 f i TimeLog.obj
 0001:00001290       ??_Efailure@ios_base@std@@UAEPAXI@Z 00402290 f i TimeLog.obj
 0001:00001290       ??_Esystem_error@std@@UAEPAXI@Z 00402290 f i TimeLog.obj
 0001:00001290       ??_G_System_error@std@@UAEPAXI@Z 00402290 f i TimeLog.obj
 0001:00001290       ??_Gfailure@ios_base@std@@UAEPAXI@Z 00402290 f i TimeLog.obj
 0001:00001290       ??_Gsystem_error@std@@UAEPAXI@Z 00402290 f i TimeLog.obj
 0001:000012c0       ?Log@R_ProLog@@QAAXPBDZZ   004022c0 f   TimeLog.obj
 0001:00001360       ?_Osfx@?$basic_ostream@DU?$char_traits@D@std@@@std@@QAEXXZ 00402360 f i TimeLog.obj
 0001:00001440       ?__LogMgr@@YAPAVR_ProLog@@XZ 00402440 f   TimeLog.obj
 0001:000014b0       ?append@?$basic_string@DU?$char_traits@D@std@@V?$allocator@D@2@@std@@QAEAAV12@QBDI@Z 004024b0 f i TimeLog.obj
 0001:00001610       ?clear@ios_base@std@@QAEXH_N@Z 00402610 f i TimeLog.obj
 0001:00001690       ?default_error_condition@error_category@std@@UBE?AVerror_condition@2@H@Z 00402690 f i TimeLog.obj
 0001:000016b0       ?equivalent@error_category@std@@UBE_NABVerror_code@2@H@Z 004026b0 f i TimeLog.obj
 0001:000016e0       ?equivalent@error_category@std@@UBE_NHABVerror_condition@2@@Z 004026e0 f i TimeLog.obj
 0001:00001720       ?flush@?$basic_ostream@DU?$char_traits@D@std@@@std@@QAEAAV12@XZ 00402720 f i TimeLog.obj
 0001:00001870       ?make_error_code@std@@YA?AVerror_code@1@W4io_errc@1@@Z 00402870 f i TimeLog.obj
 0001:00001890       ?message@_Iostream_error_category2@std@@UBE?AV?$basic_string@DU?$char_traits@D@std@@V?$allocator@D@2@@2@H@Z 00402890 f i TimeLog.obj
 0001:00001950       ?name@_Iostream_error_category2@std@@UBEPBDXZ 00402950 f i TimeLog.obj
 0001:00001960       ?setstate@?$basic_ios@DU?$char_traits@D@std@@@std@@QAEXH_N@Z 00402960 f i TimeLog.obj
 0001:00001990       ___local_stdio_printf_options 00402990 f i TimeLog.obj
 0001:000019a0       _sprintf                   004029a0 f i TimeLog.obj
 0001:000019e0       ?Init@MyServer@@QAEHPAH@Z  004029e0 f   S02_MyServer.obj
 0001:00001c30       ?PROCESS_FOR_NETWORK@MyServer@@QAEHPAUHWND__@@IJ@Z 00402c30 f   S02_MyServer.obj
 0001:000020e0       ?PROCESS_FOR_TIMER@MyServer@@QAEXXZ 004030e0 f   S02_MyServer.obj
 0001:000021c0       _snprintf                  004031c0 f i S02_MyServer.obj
 0001:00002200       ?Init@MyUser@@QAEHHH@Z     00403200 f   S03_MyUser.obj
 0001:00002250       ?Quit@MyUser@@QAEXH@Z      00403250 f   S03_MyUser.obj
 0001:00002300       ?Send@MyUser@@QAEXHPADH@Z  00403300 f   S03_MyUser.obj
 0001:00002500       ?Init@MyWork@@QAEHXZ       00403500 f   S04_MyWork01.obj
 0001:000028a0       ?W_ADD_AUTO_USER_LIST_SEND@@YAXH@Z 004038a0 f   S04_MyWork02.obj
 0001:00002990       ?W_BLOCK_USER_FOR_LOGIN_1_SEND@@YAXH@Z 00403990 f   S04_MyWork02.obj
 0001:00002a60       ?W_BLOCK_USER_FOR_LOGIN_2_SEND@@YAXH@Z 00403a60 f   S04_MyWork02.obj
 0001:00002b30       ?W_BLOCK_USER_FOR_TOOL_1_SEND@@YAXH@Z 00403b30 f   S04_MyWork02.obj
 0001:00002c00       ?W_BLOCK_USER_FOR_TOOL_2_SEND@@YAXH@Z 00403c00 f   S04_MyWork02.obj
 0001:00002cd0       ?W_BLOCK_USER_FOR_ZONE_1_SEND@@YAXH@Z 00403cd0 f   S04_MyWork02.obj
 0001:00002da0       ?W_BLOCK_USER_FOR_ZONE_2_SEND@@YAXH@Z 00403da0 f   S04_MyWork02.obj
 0001:00002e70       ?W_CHANGE_AVATAR_NAME_FOR_ZONE_SEND@@YAXH@Z 00403e70 f   S04_MyWork02.obj
 0001:00002f30       ?W_CHANGE_LOGIN_USER_NUM_SEND@@YAXH@Z 00403f30 f   S04_MyWork02.obj
 0001:00002fc0       ?W_CHECK_AUTH_KEY@@YAXH@Z  00403fc0 f   S04_MyWork02.obj
 0001:00003090       ?W_CHECK_KILL_OTHER_TRIBE_SEND@@YAXH@Z 00404090 f   S04_MyWork02.obj
 0001:00003160       ?W_CHECK_PLAYER_ONLINE@@YAXH@Z 00404160 f   S04_MyWork02.obj
 0001:00003220       ?W_CHECK_ZONE_FOR_TOOL_SEND@@YAXH@Z 00404220 f   S04_MyWork02.obj
 0001:00003320       ?W_DUPEFIX1@@YAXH@Z        00404320 f   S04_MyWork02.obj
 0001:00003450       ?W_DUPEFIX@@YAXH@Z         00404450 f   S04_MyWork02.obj
 0001:00003540       ?W_EVENT_FOR_ZONE_SEND@@YAXH@Z 00404540 f   S04_MyWork02.obj
 0001:000035c0       ?W_EVENT_INFO_SEND@@YAXH@Z 004045c0 f   S04_MyWork02.obj
 0001:00003680       ?W_FIND_AVATAR_FOR_TOOL_SEND@@YAXH@Z 00404680 f   S04_MyWork02.obj
 0001:00003740       ?W_FIND_AVATAR_FOR_ZONE_SEND@@YAXH@Z 00404740 f   S04_MyWork02.obj
 0001:00003800       ?W_FIND_USER_FOR_TOOL_SEND@@YAXH@Z 00404800 f   S04_MyWork02.obj
 0001:000038c0       ?W_GET_PRESENT_USER_NUM_2_FOR_TOOL_SEND@@YAXH@Z 004048c0 f   S04_MyWork02.obj
 0001:000039a0       ?W_GET_PRESENT_USER_NUM_FOR_LOGIN_SEND@@YAXH@Z 004049a0 f   S04_MyWork02.obj
 0001:00003a20       ?W_GET_PRESENT_USER_NUM_FOR_TOOL_SEND@@YAXH@Z 00404a20 f   S04_MyWork02.obj
 0001:00003aa0       ?W_HACK_NAME_SEND@@YAXH@Z  00404aa0 f   S04_MyWork02.obj
 0001:00003b90       ?W_LOGIN_FOR_PLAYUSER_SEND@@YAXH@Z 00404b90 f   S04_MyWork02.obj
 0001:00003c30       ?W_LOGIN_OK_FOR_PLAYUSER_SEND@@YAXH@Z 00404c30 f   S04_MyWork02.obj
 0001:00003c80       ?W_POLICE_FOR_PLAYUSER_SEND@@YAXH@Z 00404c80 f   S04_MyWork02.obj
 0001:00003d00       ?W_POLICE_OK_FOR_PLAYUSER_SEND@@YAXH@Z 00404d00 f   S04_MyWork02.obj
 0001:00003d50       ?W_REGISTER_USER_FOR_LOGIN_1_SEND@@YAXH@Z 00404d50 f   S04_MyWork02.obj
 0001:00003e80       ?W_REGISTER_USER_FOR_LOGIN_2_SEND@@YAXH@Z 00404e80 f   S04_MyWork02.obj
 0001:00003f50       ?W_REGISTER_USER_FOR_LOGIN_3_SEND@@YAXH@Z 00404f50 f   S04_MyWork02.obj
 0001:00004050       ?W_REGISTER_USER_FOR_ZONE_0_SEND@@YAXH@Z 00405050 f   S04_MyWork02.obj
 0001:00004120       ?W_REGISTER_USER_FOR_ZONE_1_SEND@@YAXH@Z 00405120 f   S04_MyWork02.obj
 0001:000042f0       ?W_REGISTER_USER_FOR_ZONE_2_SEND@@YAXH@Z 004052f0 f   S04_MyWork02.obj
 0001:00004460       ?W_REGISTER_USER_FOR_ZONE_3_SEND@@YAXH@Z 00405460 f   S04_MyWork02.obj
 0001:000045d0       ?W_SET_MOVE_ITEM_FOR_ZONE_SEND@@YAXH@Z 004055d0 f   S04_MyWork02.obj
 0001:00004640       ?W_TOOL_FOR_PLAYUSER_SEND@@YAXH@Z 00405640 f   S04_MyWork02.obj
 0001:000046c0       ?W_TOOL_OK_FOR_PLAYUSER_SEND@@YAXH@Z 004056c0 f   S04_MyWork02.obj
 0001:00004710       ?W_TRIBE_BANK_INFO_LOAD_SEND@@YAXH@Z 00405710 f   S04_MyWork02.obj
 0001:00004820       ?W_TRIBE_BANK_INFO_SAVE_SEND@@YAXH@Z 00405820 f   S04_MyWork02.obj
 0001:000049c0       ?W_TRIBE_BANK_INFO_VIEW_SEND@@YAXH@Z 004059c0 f   S04_MyWork02.obj
 0001:00004ac0       ?W_UNREGISTER_USER_FOR_LOGIN_SEND@@YAXH@Z 00405ac0 f   S04_MyWork02.obj
 0001:00004b80       ?W_UNREGISTER_USER_FOR_ZONE_SEND@@YAXH@Z 00405b80 f   S04_MyWork02.obj
 0001:00004cb0       ?W_UPDATE_AUTH_KEY@@YAXH@Z 00405cb0 f   S04_MyWork02.obj
 0001:00004d90       ?W_ZONE_FOR_PLAYUSER_SEND@@YAXH@Z 00405d90 f   S04_MyWork02.obj
 0001:00004e70       ?W_ZONE_OK_FOR_PLAYUSER_SEND@@YAXH@Z 00405e70 f   S04_MyWork02.obj
 0001:00004ec0       ?B_ADD_AUTO_USER_LIST_RECV@MyTransfer@@QAEXH@Z 00405ec0 f   S05_MyTransfer.obj
 0001:00004ee0       ?B_BLOCK_USER_FOR_LOGIN_RECV@MyTransfer@@QAEXH@Z 00405ee0 f   S05_MyTransfer.obj
 0001:00004ee0       ?B_FIND_AVATAR_FOR_TOOL_RECV@MyTransfer@@QAEXH@Z 00405ee0 f   S05_MyTransfer.obj
 0001:00004ee0       ?B_REGISTER_USER_FOR_ZONE_3_RECV@MyTransfer@@QAEXH@Z 00405ee0 f   S05_MyTransfer.obj
 0001:00004f00       ?B_BLOCK_USER_FOR_TOOL_RECV@MyTransfer@@QAEXH@Z 00405f00 f   S05_MyTransfer.obj
 0001:00004f20       ?B_BLOCK_USER_FOR_ZONE_RECV@MyTransfer@@QAEXH@Z 00405f20 f   S05_MyTransfer.obj
 0001:00004f40       ?B_CHANGE_AVATAR_NAME_FOR_ZONE_RECV@MyTransfer@@QAEXH@Z 00405f40 f   S05_MyTransfer.obj
 0001:00004f60       ?B_CHANGE_LOGIN_USER_NUM_RECV@MyTransfer@@QAEXH@Z 00405f60 f   S05_MyTransfer.obj
 0001:00004f80       ?B_CHECK_AUTH_KEY@MyTransfer@@QAEXE@Z 00405f80 f   S05_MyTransfer.obj
 0001:00004fb0       ?B_CHECK_KILL_OTHER_TRIBE_RECV@MyTransfer@@QAEXH@Z 00405fb0 f   S05_MyTransfer.obj
 0001:00004fd0       ?B_CHECK_ZONE_FOR_TOOL_RECV@MyTransfer@@QAEXH@Z 00405fd0 f   S05_MyTransfer.obj
 0001:00004ff0       ?B_CONNECT_OK@MyTransfer@@QAEXXZ 00405ff0 f   S05_MyTransfer.obj
 0001:00005000       ?B_DUPEFIX1@MyTransfer@@QAEXXZ 00406000 f   S05_MyTransfer.obj
 0001:00005010       ?B_EVENT_INFO_RECV@MyTransfer@@QAEXXZ 00406010 f   S05_MyTransfer.obj
 0001:00005020       ?B_FIND_AVATAR_FOR_ZONE_RECV@MyTransfer@@QAEXHH@Z 00406020 f   S05_MyTransfer.obj
 0001:00005040       ?B_FIND_USER_FOR_TOOL_RECV@MyTransfer@@QAEXH@Z 00406040 f   S05_MyTransfer.obj
 0001:00005060       ?B_GET_PRESENT_USER_NUM_2_FOR_TOOL_RECV@MyTransfer@@QAEXHPAD@Z 00406060 f   S05_MyTransfer.obj
 0001:00005090       ?B_GET_PRESENT_USER_NUM_FOR_LOGIN_RECV@MyTransfer@@QAEXH@Z 00406090 f   S05_MyTransfer.obj
 0001:00005090       ?B_GET_PRESENT_USER_NUM_FOR_TOOL_RECV@MyTransfer@@QAEXH@Z 00406090 f   S05_MyTransfer.obj
 0001:00005090       ?B_REGISTER_USER_FOR_ZONE_2_RECV@MyTransfer@@QAEXH@Z 00406090 f   S05_MyTransfer.obj
 0001:000050b0       ?B_HACK_NAME_RECV@MyTransfer@@QAEXH@Z 004060b0 f   S05_MyTransfer.obj
 0001:000050d0       ?B_LOGIN_FOR_PLAYUSER_RECV@MyTransfer@@QAEXXZ 004060d0 f   S05_MyTransfer.obj
 0001:000050d0       ?B_POLICE_FOR_PLAYUSER_RECV@MyTransfer@@QAEXXZ 004060d0 f   S05_MyTransfer.obj
 0001:000050d0       ?B_TOOL_FOR_PLAYUSER_RECV@MyTransfer@@QAEXXZ 004060d0 f   S05_MyTransfer.obj
 0001:000050d0       ?B_ZONE_FOR_PLAYUSER_RECV@MyTransfer@@QAEXXZ 004060d0 f   S05_MyTransfer.obj
 0001:000050e0       ?B_REGISTER_USER_FOR_LOGIN_RECV@MyTransfer@@QAEXHH@Z 004060e0 f   S05_MyTransfer.obj
 0001:000050e0       ?B_REGISTER_USER_FOR_ZONE_0_RECV@MyTransfer@@QAEXHH@Z 004060e0 f   S05_MyTransfer.obj
 0001:00005100       ?B_REGISTER_USER_FOR_ZONE_1_RECV@MyTransfer@@QAEXHHHHHHHDHPAUAVATAR_INFO@@QAY01HHPAUAUTH_INFO@@PAU_MOVE_ITEM_INFO@@H@Z 00406100 f   S05_MyTransfer.obj
 0001:000051c0       ?B_TRIBE_BANK_INFO_LOAD_RECV@MyTransfer@@QAEXHH@Z 004061c0 f   S05_MyTransfer.obj
 0001:000051e0       ?B_TRIBE_BANK_INFO_SAVE_RECV@MyTransfer@@QAEXXZ 004061e0 f   S05_MyTransfer.obj
 0001:000051f0       ?B_TRIBE_BANK_INFO_VIEW_RECV@MyTransfer@@QAEXHQAH@Z 004061f0 f   S05_MyTransfer.obj
 0001:00005220       ?B_UNREGISTER_USER_FOR_LOGIN_RECV@MyTransfer@@QAEXXZ 00406220 f   S05_MyTransfer.obj
 0001:00005230       ?B_UNREGISTER_USER_FOR_ZONE_RECV@MyTransfer@@QAEXXZ 00406230 f   S05_MyTransfer.obj
 0001:00005240       ?B_UPDATE_AUTH_KEY@MyTransfer@@QAEXE@Z 00406240 f   S05_MyTransfer.obj
 0001:00005270       ?B_USER_INFO_FOR_POLICE2@MyTransfer@@QAEXQAD0D@Z 00406270 f   S05_MyTransfer.obj
 0001:00005300       ?B_USER_INFO_FOR_POLICE@MyTransfer@@QAEXQAD0D@Z 00406300 f   S05_MyTransfer.obj
 0001:00005380       ?B_VALETSHOPUPDATE@MyTransfer@@QAEXH@Z 00406380 f   S05_MyTransfer.obj
 0001:000053a0       ?Init@MyTransfer@@QAEHXZ   004063a0 f   S05_MyTransfer.obj
 0001:000053b0       ??$_Erase_tree@V?$allocator@U?$_Tree_node@U?$pair@$$CBHH@std@@PAX@std@@@std@@@?$_Tree_val@U?$_Tree_simple_types@U?$pair@$$CBHH@std@@@std@@@std@@QAEXAAV?$allocator@U?$_Tree_node@U?$pair@$$CBHH@std@@PAX@std@@@1@PAU?$_Tree_node@U?$pair@$$CBHH@std@@PAX@1@@Z 004063b0 f i S07_MyGame01.obj
 0001:000053f0       ??$_Find_lower_bound@H@?$_Tree@V?$_Tmap_traits@HHU?$less@H@std@@V?$allocator@U?$pair@$$CBHH@std@@@2@$0A@@std@@@std@@IBE?AU?$_Tree_find_result@PAU?$_Tree_node@U?$pair@$$CBHH@std@@PAX@std@@@1@ABH@Z 004063f0 f i S07_MyGame01.obj
 0001:00005440       ??1?$_Alloc_construct_ptr@V?$allocator@U?$_Tree_node@U?$pair@$$CBHH@std@@PAX@std@@@std@@@std@@QAE@XZ 00406440 f i S07_MyGame01.obj
 0001:00005460       ??1?$_Tree@V?$_Tmap_traits@HHU?$less@H@std@@V?$allocator@U?$pair@$$CBHH@std@@@2@$0A@@std@@@std@@QAE@XZ 00406460 f i S07_MyGame01.obj
 0001:000054a0       ??1?$map@HHU?$less@H@std@@V?$allocator@U?$pair@$$CBHH@std@@@2@@std@@QAE@XZ 004064a0 f i S07_MyGame01.obj
 0001:000054b0       ?ChangeAvatarNameForZone@MyGame@@QAEHHPAD@Z 004064b0 f   S07_MyGame01.obj
 0001:000057b0       ?CheckNameString@MyGame@@QAEHPAD@Z 004067b0 f   S07_MyGame01.obj
 0001:00005980       ?CheckOverMaximum@MyGame@@QAEHHH@Z 00406980 f   S07_MyGame01.obj
 0001:000059c0       ?Init@MyGame@@QAEHXZ       004069c0 f   S07_MyGame01.obj
 0001:00005af0       ?ProccesForFindAvatar@MyGame@@QAEHHQAD@Z 00406af0 f   S07_MyGame01.obj
 0001:00005cf0       ?ProcessForPlayUser@MyGame@@QAEXXZ 00406cf0 f   S07_MyGame01.obj
 0001:00005eb0       ?ProcessForSave_1@MyGame@@QAEXHQADPAUAVATAR_INFO@@PAUAUTH_INFO@@H@Z 00406eb0 f   S07_MyGame01.obj
 0001:00005fa0       ?ProcessKillOtherTribe@MyGame@@QAEHQAD0@Z 00406fa0 f   S07_MyGame01.obj
 0001:00006160       ?RegisterUserForLogin_01@MyGame@@QAEHQAD0HHHHHHDHPAHPAUAUTH_INFO@@@Z 00407160 f   S07_MyGame01.obj
 0001:00006500       ?RegisterUserForLogin_02@MyGame@@QAEHHQAD@Z 00407500 f   S07_MyGame01.obj
 0001:000065b0       ?RegisterUserForLogin_03@MyGame@@QAEHHQADPAUAVATAR_INFO@@@Z 004075b0 f   S07_MyGame01.obj
 0001:000066b0       ?RegisterUserForZone_00@MyGame@@QAEHHQADPAH@Z 004076b0 f   S07_MyGame01.obj
 0001:000067b0       ?RegisterUserForZone_01@MyGame@@QAEHHHQAD0QAHPAH22222PAD2PAUAVATAR_INFO@@QAY01H2PAUAUTH_INFO@@2@Z 004077b0 f   S07_MyGame01.obj
 0001:00006a30       ?RegisterUserForZone_02@MyGame@@QAEHHHQADPAUAVATAR_INFO@@QAY01HPAUAUTH_INFO@@@Z 00407a30 f   S07_MyGame01.obj
 0001:00006be0       ?RegisterUserForZone_03@MyGame@@QAEHHHQADPAUAVATAR_INFO@@QAY01HPAUAUTH_INFO@@H@Z 00407be0 f   S07_MyGame01.obj
 0001:00006d90       ?ReturnExistZoneNumberForAvatarName@MyGame@@QAEHQADPAH@Z 00407d90 f   S07_MyGame01.obj
 0001:00006e40       ?ReturnExistZoneNumberForUserID@MyGame@@QAEHQAD@Z 00407e40 f   S07_MyGame01.obj
 0001:00007010       ?ReturnPresentUserNum@MyGame@@QAEHH@Z 00408010 f   S07_MyGame01.obj
 0001:00007050       ?ReturnPresentUserNum@MyGame@@QAEXPAD@Z 00408050 f   S07_MyGame01.obj
 0001:00007290       ?SafeAvatarInfoData@MyGame@@QAEXPAUAVATAR_INFO@@@Z 00408290 f   S07_MyGame01.obj
 0001:00007330       ?SaveForTribeBankInfo@MyGame@@QAEXXZ 00408330 f   S07_MyGame01.obj
 0001:00007380       ?THREAD_FOR_DB_WORKER@@YGKPAX@Z 00408380 f   S07_MyGame01.obj
 0001:000074c0       ?UnRegisterUserForLogin@MyGame@@QAEXHQAD@Z 004084c0 f   S07_MyGame01.obj
 0001:00007540       ?UnRegisterUserForZone@MyGame@@QAEXHHQADPAUAVATAR_INFO@@PAUAUTH_INFO@@@Z 00408540 f   S07_MyGame01.obj
 0001:000076f0       ?_Insert_node@?$_Tree_val@U?$_Tree_simple_types@U?$pair@$$CBHH@std@@@std@@@std@@QAEPAU?$_Tree_node@U?$pair@$$CBHH@std@@PAX@2@U?$_Tree_id@PAU?$_Tree_node@U?$pair@$$CBHH@std@@PAX@std@@@2@QAU32@@Z 004086f0 f i S07_MyGame01.obj
 0001:000078e0       ?_Throw_tree_length_error@std@@YAXXZ 004088e0 f i S07_MyGame01.obj
 0001:000078f0       __snprintf                 004088f0 f i S07_MyGame01.obj
 0001:00007930       ?DB_COMPARE_AUTH_KEY@MyDB@@QAE_NQAD0AAE@Z 00408930 f   S08_MyDB.obj
 0001:00007a30       ?DB_PROCESS_01@MyDB@@QAEHQADPAD@Z 00408a30 f   S08_MyDB.obj
 0001:00007a80       ?DB_PROCESS_02@MyDB@@QAEHQAD@Z 00408a80 f   S08_MyDB.obj
 0001:00007ae0       ?DB_PROCESS_03@MyDB@@QAEHHQADPAUAVATAR_INFO@@PAUAUTH_INFO@@H@Z 00408ae0 f   S08_MyDB.obj
 0001:00008200       ?DB_PROCESS_05@MyDB@@QAEHH@Z 00409200 f   S08_MyDB.obj
 0001:00008250       ?DB_PROCESS_06@MyDB@@QAEHQADH0@Z 00409250 f   S08_MyDB.obj
 0001:000082a0       ?DB_PROCESS_07@MyDB@@QAEHQADH0@Z 004092a0 f   S08_MyDB.obj
 0001:000083c0       ?DB_PROCESS_08@MyDB@@QAEHQAD0HH@Z 004093c0 f   S08_MyDB.obj
 0001:00008410       ?DB_PROCESS_09@MyDB@@QAEXQADH@Z 00409410 f   S08_MyDB.obj
 0001:00008490       ?DB_PROCESS_10@MyDB@@QAEHPAUTRIBE_INFO@@@Z 00409490 f   S08_MyDB.obj
 0001:00008d20       ?DB_PROCESS_11@MyDB@@QAEXQAD00PAH@Z 00409d20 f   S08_MyDB.obj
 0001:00009270       ?DB_PROCESS_15@MyDB@@QAEXPAD0HH@Z 0040a270 f   S08_MyDB.obj
 0001:00009390       ?DB_PROCESS_DUPE@MyDB@@QAEXQADPAUAVATAR_INFO@@PAUAUTH_INFO@@@Z 0040a390 f   S08_MyDB.obj
 0001:0000f5c0       ?DB_UPDATE_AUTH_KEY@MyDB@@QAE_NQADQAY04DAAE@Z 004105c0 f   S08_MyDB.obj
 0001:0000f700       ?Init@MyDB@@QAEHXZ         00410700 f   S08_MyDB.obj
 0001:0000f810       ?MakeQueryForSave@MyDB@@AAEXHQADPAUAVATAR_INFO@@H@Z 00410810 f   S08_MyDB.obj
 0001:00014fa0       ?RECONNECT_TO_DATABASE01@MyDB@@AAEHXZ 00415fa0 f   S08_MyDB.obj
 0001:00015000       ?RECONNECT_TO_DATABASE01_FOR_THREAD@MyDB@@AAEHXZ 00416000 f   S08_MyDB.obj
 0001:00015060       ?RECONNECT_TO_DATABASE02@MyDB@@AAEHXZ 00416060 f   S08_MyDB.obj
 0001:000150c0       ?RECONNECT_TO_DATABASE02_FOR_THREAD@MyDB@@AAEHXZ 004160c0 f   S08_MyDB.obj
 0001:00015120       ?WRITE_FOR_DB_LOG_FOR_QUERY_FOR_THREAD@MyDB@@QAEXXZ 00416120 f   S08_MyDB.obj
 0001:00015140       _printf                    00416140 f i S08_MyDB.obj
 0001:00015170       ?GetOneValueFromFile@@YAHPAXPADH@Z 00416170 f   Server_PLAYUSER.obj
 0001:00015200       ?ReadServerInfo@@YAHXZ     00416200 f   Server_PLAYUSER.obj
 0001:00015820       ?WindowProc@@YGJPAUHWND__@@IIJ@Z 00416820 f   Server_PLAYUSER.obj
 0001:00015880       _main                      00416880 f   Server_PLAYUSER.obj
 0001:00015a91       _mysql_errno@4             00416a91 f   libmysql:libmysql.dll
 0001:00015a97       _mysql_error@4             00416a97 f   libmysql:libmysql.dll
 0001:00015a9d       _mysql_init@4              00416a9d f   libmysql:libmysql.dll
 0001:00015aa3       _mysql_real_connect@32     00416aa3 f   libmysql:libmysql.dll
 0001:00015aa9       _mysql_query@8             00416aa9 f   libmysql:libmysql.dll
 0001:00015aaf       _mysql_use_result@4        00416aaf f   libmysql:libmysql.dll
 0001:00015ab5       _mysql_ping@4              00416ab5 f   libmysql:libmysql.dll
 0001:00015abb       _mysql_free_result@4       00416abb f   libmysql:libmysql.dll
 0001:00015ac1       _mysql_fetch_row@4         00416ac1 f   libmysql:libmysql.dll
 0001:00015ac7       _mysql_autocommit@8        00416ac7 f   libmysql:libmysql.dll
 0001:00015acd       _mysql_close@4             00416acd f   libmysql:libmysql.dll
 0001:00015ad3       ??0bad_alloc@std@@QAE@XZ   00416ad3 f i libcpmt:xthrow.obj
 0001:00015aeb       ??0exception@std@@QAE@QBD@Z 00416aeb f i libcpmt:xthrow.obj
 0001:00015b20       ??0length_error@std@@QAE@ABV01@@Z 00416b20 f i libcpmt:xthrow.obj
 0001:00015b3b       ??0length_error@std@@QAE@PBD@Z 00416b3b f i libcpmt:xthrow.obj
 0001:00015b5a       ??0logic_error@std@@QAE@ABV01@@Z 00416b5a f i libcpmt:xthrow.obj
 0001:00015b75       ??0runtime_error@std@@QAE@PBD@Z 00416b75 f i libcpmt:xthrow.obj
 0001:00015b94       ??_Ebad_cast@std@@UAEPAXI@Z 00416b94 f i libcpmt:cout.obj
 0001:00015b94       ??_Ebad_exception@std@@UAEPAXI@Z 00416b94 f i libvcruntime:frame.obj
 0001:00015b94       ??_Elength_error@std@@UAEPAXI@Z 00416b94 f i libcpmt:xthrow.obj
 0001:00015b94       ??_Elogic_error@std@@UAEPAXI@Z 00416b94 f i libcpmt:xthrow.obj
 0001:00015b94       ??_Gbad_cast@std@@UAEPAXI@Z 00416b94 f i libcpmt:cout.obj
 0001:00015b94       ??_Gbad_exception@std@@UAEPAXI@Z 00416b94 f i libvcruntime:frame.obj
 0001:00015b94       ??_Glength_error@std@@UAEPAXI@Z 00416b94 f i libcpmt:xthrow.obj
 0001:00015b94       ??_Glogic_error@std@@UAEPAXI@Z 00416b94 f i libcpmt:xthrow.obj
 0001:00015bc1       ?_Xlength_error@std@@YAXPBD@Z 00416bc1 f   libcpmt:xthrow.obj
 0001:00015be1       ?_Xruntime_error@std@@YAXPBD@Z 00416be1 f   libcpmt:xthrow.obj
 0001:00015c01       ?uncaught_exception@std@@YA_NXZ 00416c01 f   libcpmt:uncaught_exception.obj
 0001:00015c06       ?_Syserror_map@std@@YAPBDH@Z 00416c06 f   libcpmt:syserror.obj
 0001:00015c2b       ??$_Allocate@$07U_Default_allocate_traits@std@@$0A@@std@@YAPAXI@Z 00416c2b f i libcpmt:cout.obj
 0001:00015c51       ??$_Deallocate@$07$0A@@std@@YAXPAXI@Z 00416c51 f i libcpmt:cout.obj
 0001:00015c7d       ??$_Fgetc@D@std@@YA_NAADPAU_iobuf@@@Z 00416c7d f i libcpmt:cout.obj
 0001:00015c9d       ??$_Fputc@D@std@@YA_NDPAU_iobuf@@@Z 00416c9d f i libcpmt:cout.obj
 0001:00015cb7       ??$_Reallocate_grow_by@V<lambda_1>@?1??push_back@?$basic_string@DU?$char_traits@D@std@@V?$allocator@D@2@@std@@QAEXD@Z@D@?$basic_string@DU?$char_traits@D@std@@V?$allocator@D@2@@std@@AAEAAV01@IV<lambda_1>@?1??push_back@01@QAEXD@Z@D@Z 00416cb7 f i libcpmt:cout.obj
 0001:00015d71       ??$use_facet@V?$codecvt@DDU_Mbstatet@@@std@@@std@@YAABV?$codecvt@DDU_Mbstatet@@@0@ABVlocale@0@@Z 00416d71 f i libcpmt:cout.obj
 0001:00015e06       ??$use_facet@V?$ctype@D@std@@@std@@YAABV?$ctype@D@0@ABVlocale@0@@Z 00416e06 f i libcpmt:cout.obj
 0001:00015e9b       ??0?$basic_ios@DU?$char_traits@D@std@@@std@@IAE@XZ 00416e9b f i libcpmt:cout.obj
 0001:00015ec0       ??0?$basic_ostream@DU?$char_traits@D@std@@@std@@QAE@PAV?$basic_streambuf@DU?$char_traits@D@std@@@1@_N@Z 00416ec0 f i libcpmt:cout.obj
 0001:00015f28       ??0?$basic_streambuf@DU?$char_traits@D@std@@@std@@IAE@XZ 00416f28 f i libcpmt:cout.obj
 0001:00015f99       ??0?$ctype@D@std@@QAE@ABV_Locinfo@1@I@Z 00416f99 f i libcpmt:cout.obj
 0001:00015fcf       ??0_Init_cout@std@@QAE@XZ  00416fcf f i libcpmt:cout.obj
 0001:0001600f       ??0_Locinfo@std@@QAE@PBD@Z 0041700f f i libcpmt:cout.obj
 0001:0001607c       ??0bad_cast@std@@QAE@ABV01@@Z 0041707c f i libcpmt:cout.obj
 0001:00016097       ??0bad_cast@std@@QAE@XZ    00417097 f i libcpmt:cout.obj
 0001:000160af       ??0ios_base@std@@IAE@XZ    004170af f i libcpmt:cout.obj
 0001:000160db       ??0locale@std@@QAE@ABV01@@Z 004170db f i libcpmt:cout.obj
 0001:00016106       ??1?$_Yarn@D@std@@QAE@XZ   00417106 f i libcpmt:cout.obj
 0001:00016106       ??1?$_Yarn@_W@std@@QAE@XZ  00417106 f i libcpmt:cout.obj
 0001:0001611b       ??1?$basic_filebuf@DU?$char_traits@D@std@@@std@@UAE@XZ 0041711b f i libcpmt:cout.obj
 0001:00016178       ??1?$basic_ios@DU?$char_traits@D@std@@@std@@UAE@XZ 00417178 f i libcpmt:cout.obj
 0001:000161bd       ??1?$basic_streambuf@DU?$char_traits@D@std@@@std@@UAE@XZ 004171bd f i libcpmt:cout.obj
 0001:000161de       ??1?$unique_ptr@V_Facet_base@std@@U?$default_delete@V_Facet_base@std@@@2@@std@@QAE@XZ 004171de f i libcpmt:cout.obj
 0001:000161eb       ??1_Locinfo@std@@QAE@XZ    004171eb f i libcpmt:cout.obj
 0001:0001629c       ??1locale@std@@QAE@XZ      0041729c f i libcpmt:cout.obj
 0001:000162d1       ??Bid@locale@std@@QAEIXZ   004172d1 f i libcpmt:cout.obj
 0001:00016306       ??R?$default_delete@V_Facet_base@std@@@std@@QBEXPAV_Facet_base@1@@Z 00417306 f i libcpmt:cout.obj
 0001:0001632a       ??_D?$basic_ostream@DU?$char_traits@D@std@@@std@@QAEXXZ 0041732a f i libcpmt:cout.obj
 0001:0001638b       ??_E?$basic_ostream@DU?$char_traits@D@std@@@std@@$4PPPPPPPM@A@AEPAXI@Z 0041738b f i libcpmt:cout.obj
 0001:00016393       ??_E?$basic_filebuf@DU?$char_traits@D@std@@@std@@UAEPAXI@Z 00417393 f i libcpmt:cout.obj
 0001:00016393       ??_G?$basic_filebuf@DU?$char_traits@D@std@@@std@@UAEPAXI@Z 00417393 f i libcpmt:cout.obj
 0001:000163b5       ??_E?$basic_ios@DU?$char_traits@D@std@@@std@@UAEPAXI@Z 004173b5 f i libcpmt:cout.obj
 0001:000163b5       ??_G?$basic_ios@DU?$char_traits@D@std@@@std@@UAEPAXI@Z 004173b5 f i libcpmt:cout.obj
 0001:00016412       ??_E?$basic_ostream@DU?$char_traits@D@std@@@std@@UAEPAXI@Z 00417412 f i libcpmt:cout.obj
 0001:00016412       ??_G?$basic_ostream@DU?$char_traits@D@std@@@std@@UAEPAXI@Z 00417412 f i libcpmt:cout.obj
 0001:00016437       ??_E?$basic_streambuf@DU?$char_traits@D@std@@@std@@UAEPAXI@Z 00417437 f i libcpmt:cout.obj
 0001:00016437       ??_G?$basic_streambuf@DU?$char_traits@D@std@@@std@@UAEPAXI@Z 00417437 f i libcpmt:cout.obj
 0001:00016459       ??_E?$codecvt@DDU_Mbstatet@@@std@@MAEPAXI@Z 00417459 f i libcpmt:cout.obj
 0001:00016459       ??_G?$codecvt@DDU_Mbstatet@@@std@@MAEPAXI@Z 00417459 f i libcpmt:cout.obj
 0001:0001647c       ??_E?$ctype@D@std@@MAEPAXI@Z 0041747c f i libcpmt:cout.obj
 0001:0001647c       ??_G?$ctype@D@std@@MAEPAXI@Z 0041747c f i libcpmt:cout.obj
 0001:000164aa       ??_E_Facet_base@std@@UAEPAXI@Z 004174aa f i libcpmt:cout.obj
 0001:000164aa       ??_G_Facet_base@std@@UAEPAXI@Z 004174aa f i libcpmt:cout.obj
 0001:000164cd       ??_Eios_base@std@@UAEPAXI@Z 004174cd f i libcpmt:cout.obj
 0001:000164cd       ??_Gios_base@std@@UAEPAXI@Z 004174cd f i libcpmt:cout.obj
 0001:0001652a       ?_Adjust_manually_vector_aligned@std@@YAXAAPAXAAI@Z 0041752a f i libcpmt:cout.obj
 0001:0001654e       ?_Apply_annotation@?$basic_string@DU?$char_traits@D@std@@V?$allocator@D@2@@std@@CAXQBDIII@Z 0041754e f i libcpmt:cout.obj
 0001:0001659d       ?_C_str@locale@std@@QBEPBDXZ 0041759d f i libcpmt:cout.obj
 0001:000165b5       ?_Calculate_growth@?$basic_string@DU?$char_traits@D@std@@V?$allocator@D@2@@std@@CAIIII@Z 004175b5 f i libcpmt:cout.obj
 0001:000165e5       ?_Create_annotation@?$basic_string@DU?$char_traits@D@std@@V?$allocator@D@2@@std@@ABEXXZ 004175e5 f i libcpmt:cout.obj
 0001:000165ff       ?_Decref@facet@locale@std@@UAEPAV_Facet_base@3@XZ 004175ff f i libcpmt:cout.obj
 0001:00016611       ?_Endwrite@?$basic_filebuf@DU?$char_traits@D@std@@@std@@IAE_NXZ 00417611 f i libcpmt:cout.obj
 0001:000166c0       ?_Erase_noexcept@?$basic_string@DU?$char_traits@D@std@@V?$allocator@D@2@@std@@AAEAAV12@II@Z 004176c0 f i libcpmt:cout.obj
 0001:00016714       ?_Getcat@?$codecvt@DDU_Mbstatet@@@std@@SAIPAPBVfacet@locale@2@PBV42@@Z 00417714 f i libcpmt:cout.obj
 0001:0001677c       ?_Getcat@?$ctype@D@std@@SAIPAPBVfacet@locale@2@PBV42@@Z 0041777c f i libcpmt:cout.obj
 0001:000167e2       ?_Getfacet@locale@std@@QBEPBVfacet@12@I@Z 004177e2 f i libcpmt:cout.obj
 0001:00016823       ?_Incref@facet@locale@std@@UAEXXZ 00417823 f i libcpmt:cout.obj
 0001:00016828       ?_Init@?$basic_filebuf@DU?$char_traits@D@std@@@std@@IAEXPAU_iobuf@@W4_Initfl@12@@Z 00417828 f i libcpmt:cout.obj
 0001:000168a5       ?_Init@?$basic_streambuf@DU?$char_traits@D@std@@@std@@IAEXXZ 004178a5 f i libcpmt:cout.obj
 0001:000168e2       ?_Init@ios_base@std@@IAEXXZ 004178e2 f i libcpmt:cout.obj
 0001:0001694d       ?_Initcvt@?$basic_filebuf@DU?$char_traits@D@std@@@std@@IAEXABV?$codecvt@DDU_Mbstatet@@@2@@Z 0041794d f i libcpmt:cout.obj
 0001:00016978       ?_Lock@?$basic_filebuf@DU?$char_traits@D@std@@@std@@UAEXXZ 00417978 f i libcpmt:cout.obj
 0001:00016988       ?_Lock@?$basic_streambuf@DU?$char_traits@D@std@@@std@@UAEXXZ 00417988 f i libcpmt:cout.obj
 0001:00016988       ?_Unlock@?$basic_streambuf@DU?$char_traits@D@std@@@std@@UAEXXZ 00417988 f i libcpmt:cout.obj
 0001:00016988       @_guard_check_icall_nop@4  00417988 f i LIBCMT:guard_support.obj
 0001:00016988       ___sanitizer_annotate_contiguous_container 00417988 f i libcpmt:asan_noop.obj
 0001:00016988       ___sanitizer_annotate_contiguous_container_default 00417988 f i libcpmt:asan_noop.obj
 0001:00016988       __initialize_denormal_control 00417988 f i LIBCMT:denormal_control.obj
 0001:00016988       __initialize_invalid_parameter_handler 00417988 f i LIBCMT:invalid_parameter_handler.obj
 0001:0001698b       ?_Modify_annotation@?$basic_string@DU?$char_traits@D@std@@V?$allocator@D@2@@std@@ABEXII@Z 0041798b f i libcpmt:cout.obj
 0001:000169b2       ?_Remove_annotation@?$basic_string@DU?$char_traits@D@std@@V?$allocator@D@2@@std@@ABEXXZ 004179b2 f i libcpmt:cout.obj
 0001:000169cc       ?_Reset_back@?$basic_filebuf@DU?$char_traits@D@std@@@std@@AAEXXZ 004179cc f i libcpmt:cout.obj
 0001:000169ef       ?_Set_back@?$basic_filebuf@DU?$char_traits@D@std@@@std@@AAEXXZ 004179ef f i libcpmt:cout.obj
 0001:00016a2c       ?_Throw_bad_cast@std@@YAXXZ 00417a2c f i libcpmt:cout.obj
 0001:00016a49       ?_Tidy@?$ctype@D@std@@IAEXXZ 00417a49 f i libcpmt:cout.obj
 0001:00016a73       ?_Tidy_deallocate@?$basic_string@DU?$char_traits@D@std@@V?$allocator@D@2@@std@@AAEXXZ 00417a73 f i libcpmt:cout.obj
 0001:00016a9f       ?_Unlock@?$basic_filebuf@DU?$char_traits@D@std@@@std@@UAEXXZ 00417a9f f i libcpmt:cout.obj
 0001:00016aaf       ?always_noconv@codecvt_base@std@@QBE_NXZ 00417aaf f i libcpmt:cout.obj
 0001:00016ac7       ?close@?$basic_filebuf@DU?$char_traits@D@std@@@std@@QAEPAV12@XZ 00417ac7 f i libcpmt:cout.obj
 0001:00016b2b       ?do_always_noconv@?$codecvt@DDU_Mbstatet@@@std@@MBE_NXZ 00417b2b f i libcpmt:cout.obj
 0001:00016b2b       ___acrt_uninitialize_command_line 00417b2b f i libucrt:argv_data.obj
 0001:00016b2b       __should_initialize_environment 00417b2b f i LIBCMT:env_mode.obj
 0001:00016b2e       ?do_encoding@codecvt_base@std@@MBEHXZ 00417b2e f i libcpmt:cout.obj
 0001:00016b2e       ?do_max_length@codecvt_base@std@@MBEHXZ 00417b2e f i libcpmt:cout.obj
 0001:00016b2e       __get_startup_argv_mode    00417b2e f i LIBCMT:argv_mode.obj
 0001:00016b32       ?do_in@?$codecvt@DDU_Mbstatet@@@std@@MBEHAAU_Mbstatet@@PBD1AAPBDPAD3AAPAD@Z 00417b32 f i libcpmt:cout.obj
 0001:00016b32       ?do_out@?$codecvt@DDU_Mbstatet@@@std@@MBEHAAU_Mbstatet@@PBD1AAPBDPAD3AAPAD@Z 00417b32 f i libcpmt:cout.obj
 0001:00016b4c       ?do_length@?$codecvt@DDU_Mbstatet@@@std@@MBEHAAU_Mbstatet@@PBD1I@Z 00417b4c f i libcpmt:cout.obj
 0001:00016b61       ?do_narrow@?$ctype@D@std@@MBEDDD@Z 00417b61 f i libcpmt:cout.obj
 0001:00016b6b       ?do_narrow@?$ctype@D@std@@MBEPBDPBD0DPAD@Z 00417b6b f i libcpmt:cout.obj
 0001:00016b8a       ?do_tolower@?$ctype@D@std@@MBEDD@Z 00417b8a f i libcpmt:cout.obj
 0001:00016ba1       ?do_tolower@?$ctype@D@std@@MBEPBDPADPBD@Z 00417ba1 f i libcpmt:cout.obj
 0001:00016bcd       ?do_toupper@?$ctype@D@std@@MBEDD@Z 00417bcd f i libcpmt:cout.obj
 0001:00016be4       ?do_toupper@?$ctype@D@std@@MBEPBDPADPBD@Z 00417be4 f i libcpmt:cout.obj
 0001:00016c10       ?do_unshift@?$codecvt@DDU_Mbstatet@@@std@@MBEHAAU_Mbstatet@@PAD1AAPAD@Z 00417c10 f i libcpmt:cout.obj
 0001:00016c22       ?do_widen@?$ctype@D@std@@MBEDD@Z 00417c22 f i libcpmt:cout.obj
 0001:00016c2c       ?do_widen@?$ctype@D@std@@MBEPBDPBD0PAD@Z 00417c2c f i libcpmt:cout.obj
 0001:00016c4b       ?imbue@?$basic_filebuf@DU?$char_traits@D@std@@@std@@MAEXABVlocale@2@@Z 00417c4b f i libcpmt:cout.obj
 0001:00016c67       ?imbue@?$basic_streambuf@DU?$char_traits@D@std@@@std@@MAEXABVlocale@2@@Z 00417c67 f i libcpmt:cout.obj
 0001:00016c6a       ?init@?$basic_ios@DU?$char_traits@D@std@@@std@@IAEXPAV?$basic_streambuf@DU?$char_traits@D@std@@@2@_N@Z 00417c6a f i libcpmt:cout.obj
 0001:00016cb3       ?overflow@?$basic_filebuf@DU?$char_traits@D@std@@@std@@MAEHH@Z 00417cb3 f i libcpmt:cout.obj
 0001:00016dbd       ?overflow@?$basic_streambuf@DU?$char_traits@D@std@@@std@@MAEHH@Z 00417dbd f i libcpmt:cout.obj
 0001:00016dbd       ?pbackfail@?$basic_streambuf@DU?$char_traits@D@std@@@std@@MAEHH@Z 00417dbd f i libcpmt:cout.obj
 0001:00016dc3       ?pbackfail@?$basic_filebuf@DU?$char_traits@D@std@@@std@@MAEHH@Z 00417dc3 f i libcpmt:cout.obj
 0001:00016e45       ?push_back@?$basic_string@DU?$char_traits@D@std@@V?$allocator@D@2@@std@@QAEXD@Z 00417e45 f i libcpmt:cout.obj
 0001:00016e8c       ?seekoff@?$basic_filebuf@DU?$char_traits@D@std@@@std@@MAE?AV?$fpos@U_Mbstatet@@@2@_JHH@Z 00417e8c f i libcpmt:cout.obj
 0001:00016f4d       ?seekoff@?$basic_streambuf@DU?$char_traits@D@std@@@std@@MAE?AV?$fpos@U_Mbstatet@@@2@_JHH@Z 00417f4d f i libcpmt:cout.obj
 0001:00016f6c       ?seekpos@?$basic_filebuf@DU?$char_traits@D@std@@@std@@MAE?AV?$fpos@U_Mbstatet@@@2@V32@H@Z 00417f6c f i libcpmt:cout.obj
 0001:00016ffc       ?seekpos@?$basic_streambuf@DU?$char_traits@D@std@@@std@@MAE?AV?$fpos@U_Mbstatet@@@2@V32@H@Z 00417ffc f i libcpmt:cout.obj
 0001:0001701b       ?setbuf@?$basic_filebuf@DU?$char_traits@D@std@@@std@@MAEPAV?$basic_streambuf@DU?$char_traits@D@std@@@2@PAD_J@Z 0041801b f i libcpmt:cout.obj
 0001:00017069       ?setbuf@?$basic_streambuf@DU?$char_traits@D@std@@@std@@MAEPAV12@PAD_J@Z 00418069 f i libcpmt:cout.obj
 0001:0001706e       ?showmanyc@?$basic_streambuf@DU?$char_traits@D@std@@@std@@MAE_JXZ 0041806e f i libcpmt:cout.obj
 0001:00017073       ?sync@?$basic_filebuf@DU?$char_traits@D@std@@@std@@MAEHXZ 00418073 f i libcpmt:cout.obj
 0001:000170af       ?sync@?$basic_streambuf@DU?$char_traits@D@std@@@std@@MAEHXZ 004180af f i libcpmt:cout.obj
 0001:000170af       ___scrt_exe_initialize_mta 004180af f i LIBCMT:utility_desktop.obj
 0001:000170af       ___scrt_initialize_winrt   004180af f i LIBCMT:utility_desktop.obj
 0001:000170af       ___scrt_stub_for_initialize_mta 004180af f i LIBCMT:utility_desktop.obj
 0001:000170af       __get_startup_commit_mode  004180af f i LIBCMT:commit_mode.obj
 0001:000170af       __get_startup_new_mode     004180af f i LIBCMT:new_mode.obj
 0001:000170af       __get_startup_thread_locale_mode 004180af f i LIBCMT:thread_locale.obj
 0001:000170af       __matherr                  004180af f i LIBCMT:matherr.obj
 0001:000170b2       ?uflow@?$basic_filebuf@DU?$char_traits@D@std@@@std@@MAEHXZ 004180b2 f i libcpmt:cout.obj
 0001:00017240       ?uflow@?$basic_streambuf@DU?$char_traits@D@std@@@std@@MAEHXZ 00418240 f i libcpmt:cout.obj
 0001:00017273       ?underflow@?$basic_filebuf@DU?$char_traits@D@std@@@std@@MAEHXZ 00418273 f i libcpmt:cout.obj
 0001:000172c3       ?underflow@?$basic_streambuf@DU?$char_traits@D@std@@@std@@MAEHXZ 004182c3 f i libcpmt:cout.obj
 0001:000172c7       ?widen@?$basic_ios@DU?$char_traits@D@std@@@std@@QBEDD@Z 004182c7 f i libcpmt:cout.obj
 0001:00017316       ?xsgetn@?$basic_filebuf@DU?$char_traits@D@std@@@std@@MAE_JPAD_J@Z 00418316 f i libcpmt:cout.obj
 0001:000173fe       ?xsgetn@?$basic_streambuf@DU?$char_traits@D@std@@@std@@MAE_JPAD_J@Z 004183fe f i libcpmt:cout.obj
 0001:000174ed       ?xsputn@?$basic_filebuf@DU?$char_traits@D@std@@@std@@MAE_JPBD_J@Z 004184ed f i libcpmt:cout.obj
 0001:000175d2       ?xsputn@?$basic_streambuf@DU?$char_traits@D@std@@@std@@MAE_JPBD_J@Z 004185d2 f i libcpmt:cout.obj
 0001:000176bd       ??0_Init_locks@std@@QAE@XZ 004186bd f   libcpmt:xlock.obj
 0001:000176ea       ??0_Lockit@std@@QAE@H@Z    004186ea f   libcpmt:xlock.obj
 0001:0001771b       ??1_Init_locks@std@@QAE@XZ 0041871b f   libcpmt:xlock.obj
 0001:00017742       ??1_Lockit@std@@QAE@XZ     00418742 f   libcpmt:xlock.obj
 0001:00017761       ??0_Locimp@locale@std@@AAE@_N@Z 00418761 f i libcpmt:locale0.obj
 0001:000177a2       ??1_Fac_node@std@@QAE@XZ   004187a2 f i libcpmt:locale0.obj
 0001:000177d3       ??1_Fac_tidy_reg_t@std@@QAE@XZ 004187d3 f i libcpmt:locale0.obj
 0001:000177fa       ??1_Locimp@locale@std@@MAE@XZ 004187fa f i libcpmt:locale0.obj
 0001:00017825       ??4?$_Yarn@D@std@@QAEAAV01@PBD@Z 00418825 f i libcpmt:locale0.obj
 0001:00017879       ??_E_Locimp@locale@std@@MAEPAXI@Z 00418879 f i libcpmt:locale0.obj
 0001:00017879       ??_G_Locimp@locale@std@@MAEPAXI@Z 00418879 f i libcpmt:locale0.obj
 0001:0001789b       ?_Facet_Register@std@@YAXPAV_Facet_base@1@@Z 0041889b f   libcpmt:locale0.obj
 0001:000178c7       ?_Getgloballocale@locale@std@@CAPAV_Locimp@12@XZ 004188c7 f   libcpmt:locale0.obj
 0001:000178cd       ?_Init@locale@std@@CAPAV_Locimp@12@_N@Z 004188cd f   libcpmt:locale0.obj
 0001:0001795a       ?_Locimp_dtor@_Locimp@locale@std@@CAXPAV123@@Z 0041895a f   libcpmt:locale0.obj
 0001:000179cb       ?_Locinfo_ctor@_Locinfo@std@@SAXPAV12@PBD@Z 004189cb f   libcpmt:locale0.obj
 0001:00017a16       ?_Locinfo_dtor@_Locinfo@std@@SAXPAV12@@Z 00418a16 f   libcpmt:locale0.obj
 0001:00017a30       ?_New_Locimp@_Locimp@locale@std@@CAPAV123@_N@Z 00418a30 f   libcpmt:locale0.obj
 0001:00017a53       ?_Setgloballocale@locale@std@@CAXPAX@Z 00418a53 f   libcpmt:locale0.obj
 0001:00017a7b       __Deletegloballocale       00418a7b f   libcpmt:locale0.obj
 0001:00017ae0       __Getctype                 00418ae0 f   libcpmt:_tolower.obj
 0001:00017b4b       __Tolower                  00418b4b f   libcpmt:_tolower.obj
 0001:00017c57       __Toupper                  00418c57 f   libcpmt:_toupper.obj
 0001:00017d63       ?_Addstd@ios_base@std@@SAXPAV12@@Z 00418d63 f   libcpmt:ios.obj
 0001:00017db5       ?_Callfns@ios_base@std@@AAEXW4event@12@@Z 00418db5 f i libcpmt:ios.obj
 0001:00017de8       ?_Ios_base_dtor@ios_base@std@@CAXPAV12@@Z 00418de8 f   libcpmt:ios.obj
 0001:00017e28       ?_Tidy@ios_base@std@@AAEXXZ 00418e28 f i libcpmt:ios.obj
 0001:00017ea3       ??1_Init_atexit@@QAE@XZ    00418ea3 f i libcpmt:iosptrs.obj
 0001:00017f0b       ?_Atexit@@YAXP6AXXZ@Z      00418f0b f   libcpmt:iosptrs.obj
 0001:00017f3a       __Mtxdst                   00418f3a f   libcpmt:xmtx.obj
 0001:00017f48       __Mtxinit                  00418f48 f   libcpmt:xmtx.obj
 0001:00017f5d       __Mtxlock                  00418f5d f   libcpmt:xmtx.obj
 0001:00017f6b       __Mtxunlock                00418f6b f   libcpmt:xmtx.obj
 0001:00017f79       ??1?$__crt_scoped_stack_ptr@_W@@QAE@XZ 00418f79 f i libcpmt:StlLCMapStringA.obj
 0001:00017f92       ___crtLCMapStringA         00418f92 f   libcpmt:StlLCMapStringA.obj
 0001:0001815e       __freea_crt                0041915e f i libcpmt:StlLCMapStringA.obj
 0001:0001817c       ??2@YAPAXI@Z               0041917c f   LIBCMT:new_scalar.obj
 0001:000181ac       ??3@YAXPAXI@Z              004191ac f   LIBCMT:delete_scalar_size.obj
 0001:000181ba       ??_Etype_info@@UAEPAXI@Z   004191ba f i LIBCMT:std_type_info_static.obj
 0001:000181ba       ??_Gtype_info@@UAEPAXI@Z   004191ba f i LIBCMT:std_type_info_static.obj
 0001:00018221       ___scrt_acquire_startup_lock 00419221 f   LIBCMT:utility.obj
 0001:00018253       ___scrt_initialize_crt     00419253 f   LIBCMT:utility.obj
 0001:0001828c       ___scrt_initialize_onexit_tables 0041928c f   LIBCMT:utility.obj
 0001:00018313       ___scrt_is_nonwritable_in_current_image 00419313 f   LIBCMT:utility.obj
 0001:000183a7       ___scrt_release_startup_lock 004193a7 f   LIBCMT:utility.obj
 0001:000183c4       ___scrt_uninitialize_crt   004193c4 f   LIBCMT:utility.obj
 0001:000183ec       __onexit                   004193ec f   LIBCMT:utility.obj
 0001:00018419       _atexit                    00419419 f   LIBCMT:utility.obj
 0001:0001842e       ___raise_securityfailure   0041942e f   LIBCMT:gs_report.obj
 0001:00018456       ___report_gsfailure        00419456 f   LIBCMT:gs_report.obj
 0001:00018550       ___report_rangecheckfailure 00419550 f   LIBCMT:gs_report.obj
 0001:0001855c       ___report_securityfailure  0041955c f   LIBCMT:gs_report.obj
 0001:0001862b       __Init_thread_footer       0041962b f   LIBCMT:thread_safe_statics.obj
 0001:0001867c       __Init_thread_header       0041967c f   LIBCMT:thread_safe_statics.obj
 0001:000186cb       __Init_thread_wait_v2      004196cb f   LIBCMT:thread_safe_statics.obj
 0001:000186e0       @__security_check_cookie@4 004196e0 f   LIBCMT:secchk.obj
 0001:000186f0       __alloca_probe             004196f0 f   LIBCMT:chkstk.obj
 0001:000186f0       __chkstk                   004196f0 f   LIBCMT:chkstk.obj
 0001:00018962       _mainCRTStartup            00419962 f   LIBCMT:exe_main.obj
 0001:0001896c       ??_V@YAXPAX@Z              0041996c f   LIBCMT:delete_array.obj
 0001:00018971       __EH_epilog3               00419971 f   LIBCMT:ehprolg3.obj
 0001:00018985       __EH_epilog3_GS            00419985 f   LIBCMT:ehprolg3.obj
 0001:00018994       __EH_prolog3               00419994 f   LIBCMT:ehprolg3.obj
 0001:000189c7       __EH_prolog3_GS            004199c7 f   LIBCMT:ehprolg3.obj
 0001:000189fd       __EH_prolog3_catch         004199fd f   LIBCMT:ehprolg3.obj
 0001:00018a40       __alloca_probe_16          00419a40 f   LIBCMT:alloca16.obj
 0001:00018a56       __alloca_probe_8           00419a56     LIBCMT:alloca16.obj
 0001:00018a6c       ___isa_available_init      00419a6c f   LIBCMT:cpu_disp.obj
 0001:00018c40       __allmul                   00419c40 f   LIBCMT:llmul.obj
 0001:00018c80       __aulldiv                  00419c80 f   LIBCMT:ulldiv.obj
 0001:00018ce8       ?__scrt_throw_std_bad_alloc@@YAXXZ 00419ce8 f   LIBCMT:throw_bad_alloc.obj
 0001:00018d05       ??3@YAXPAX@Z               00419d05 f   LIBCMT:delete_scalar.obj
 0001:00018d0a       ___scrt_is_ucrt_dll_in_use 00419d0a f   LIBCMT:ucrt_detection.obj
 0001:00018d16       ___scrt_fastfail           00419d16 f   LIBCMT:utility_desktop.obj
 0001:00018e2b       ___scrt_initialize_mta     00419e2b f   LIBCMT:utility_desktop.obj
 0001:00018e30       ___scrt_is_managed_app     00419e30 f   LIBCMT:utility_desktop.obj
 0001:00018e72       ___scrt_set_unhandled_exception_filter 00419e72 f   LIBCMT:utility_desktop.obj
 0001:00018e7e       ___scrt_unhandled_exception_filter@4 00419e7e f   LIBCMT:utility_desktop.obj
 0001:00018ed4       __crt_debugger_hook        00419ed4 f   LIBCMT:utility_desktop.obj
 0001:00018ee0       __SEH_prolog4              00419ee0 f   LIBCMT:sehprolg4.obj
 0001:00018f72       ___security_init_cookie    00419f72 f   LIBCMT:gs_support.obj
 0001:00018fbd       __get_startup_file_mode    00419fbd f   LIBCMT:file_mode.obj
 0001:00018fc3       ?__scrt_initialize_type_info@@YAXXZ 00419fc3 f   LIBCMT:tncleanup.obj
 0001:00018fcf       __initialize_default_precision 00419fcf f   LIBCMT:default_precision.obj
 0001:00018ff0       ___local_stdio_scanf_options 00419ff0 f i LIBCMT:default_local_stdio_options.obj
 0001:00018ff6       ___scrt_initialize_default_local_stdio_options 00419ff6 f   LIBCMT:default_local_stdio_options.obj
 0001:00019013       ___scrt_is_user_matherr_present 0041a013 f   LIBCMT:matherr_detection.obj
 0001:0001901f       ___scrt_get_dyn_tls_init_callback 0041a01f f   LIBCMT:dyn_tls_init.obj
 0001:00019025       ___scrt_get_dyn_tls_dtor_callback 0041a025 f   LIBCMT:dyn_tls_dtor.obj
 0001:0001902b       __RTC_Initialize           0041a02b f   LIBCMT:initsect.obj
 0001:00019057       __RTC_Terminate            0041a057 f   LIBCMT:initsect.obj
 0001:00019083       ___WSAFDIsSet@8            0041a083 f   WS2_32:WS2_32.dll
 0001:00019089       ___std_exception_copy      0041a089 f   libvcruntime:std_exception.obj
 0001:000190ec       ___std_exception_destroy   0041a0ec f   libvcruntime:std_exception.obj
 0001:0001910b       __CxxThrowException@8      0041a10b f   libvcruntime:throw.obj
 0001:00019180       _memcpy                    0041a180 f   libvcruntime:memcpy.obj
 0001:00019180       _memmove                   0041a180 f   libvcruntime:memmove.obj
 0001:00019700       ___DestructExceptionObject 0041a700 f   libvcruntime:ehhelpers.obj
 0001:000197a1       ?_CallMemberFunction0@@YGXQAX0@Z 0041a7a1 f i libvcruntime:ehhelpers.obj
 0001:00019806       __IsExceptionObjectToBeDestroyed 0041a806 f   libvcruntime:ehhelpers.obj
 0001:0001982c       ___AdjustPointer           0041a82c f   libvcruntime:ehhelpers.obj
 0001:00019851       ___FrameUnwindFilter       0041a851 f   libvcruntime:ehhelpers.obj
 0001:000198a7       ___current_exception       0041a8a7 f   libvcruntime:ehhelpers.obj
 0001:000198b0       ___current_exception_context 0041a8b0 f   libvcruntime:ehhelpers.obj
 0001:000198b9       ___std_terminate           0041a8b9 f   libvcruntime:ehhelpers.obj
 0001:000198be       ?GetRangeOfTrysToCheck@__FrameHandler3@@SA?AU?$pair@Viterator@TryBlockMap@__FrameHandler3@@V123@@std@@AAVTryBlockMap@1@HPAXPBU_s_FuncInfo@@H@Z 0041a8be f   libvcruntime:trnsctrl.obj
 0001:0001992d       ?_CallCatchBlock2@@YAPAXPAUEHRegistrationNode@@PBU_s_FuncInfo@@PAXHK@Z 0041a92d f   libvcruntime:trnsctrl.obj
 0001:0001998a       ?_CallSETranslator@@YAHPAUEHExceptionRecord@@PAUEHRegistrationNode@@PAX2PBU_s_FuncInfo@@H1@Z 0041a98a f   libvcruntime:trnsctrl.obj
 0001:00019a7a       ?_JumpToContinuation@@YGXPAXPAUEHRegistrationNode@@@Z 0041aa7a f   libvcruntime:trnsctrl.obj
 0001:00019aaa       ?_UnwindNestedFrames@@YGXPAUEHRegistrationNode@@PAUEHExceptionRecord@@@Z 0041aaaa f   libvcruntime:trnsctrl.obj
 0001:00019afd       __CatchGuardHandler        0041aafd f   libvcruntime:trnsctrl.obj
 0001:00019b2e       __CreateFrameInfo          0041ab2e f   libvcruntime:trnsctrl.obj
 0001:00019b52       __FindAndUnlinkFrame       0041ab52 f   libvcruntime:trnsctrl.obj
 0001:00019b9a       __TranslatorGuardHandler   0041ab9a f   libvcruntime:trnsctrl.obj
 0001:00019c37       ___CxxFrameHandler3        0041ac37 f   libvcruntime:trnsctrl.obj
 0001:00019c70       _memset                    0041ac70 f   libvcruntime:memset.obj
 0001:00019dca       ___uncaught_exception      0041adca f   libvcruntime:uncaught_exception.obj
 0001:00019dde       __get_purecall_handler     0041adde f   libvcruntime:purevirt.obj
 0001:00019de5       __purecall                 0041ade5 f   libvcruntime:purevirt.obj
 0001:00019e10       _memcmp                    0041ae10 f   libvcruntime:memcmp.obj
 0001:0001b48c       ___vcrt_initialize         0041c48c f   libvcruntime:initialization.obj
 0001:0001b4ab       ___vcrt_uninitialize       0041c4ab f   libvcruntime:initialization.obj
 0001:0001b510       __except_handler4          0041c510 f   libvcruntime:chandler4.obj
 0001:0001b66e       ___std_type_info_compare   0041c66e f   libvcruntime:std_type_info.obj
 0001:0001b6aa       ___vcrt_freefls@4          0041c6aa f   libvcruntime:per_thread_data.obj
 0001:0001b6c6       ___vcrt_getptd             0041c6c6 f   libvcruntime:per_thread_data.obj
 0001:0001b6d4       ___vcrt_getptd_noexit      0041c6d4 f   libvcruntime:per_thread_data.obj
 0001:0001b766       ___vcrt_getptd_noinit      0041c766 f   libvcruntime:per_thread_data.obj
 0001:0001b79d       ___vcrt_initialize_ptd     0041c79d f   libvcruntime:per_thread_data.obj
 0001:0001b7d0       ___vcrt_uninitialize_ptd   0041c7d0 f   libvcruntime:per_thread_data.obj
 0001:0001bf1d       ??$TypeMatchHelper@V__FrameHandler3@@@@YAHPBU_s_HandlerType@@PBU_s_CatchableType@@PBU_s_ThrowInfo@@@Z 0041cf1d f i libvcruntime:frame.obj
 0001:0001bfab       ??$__InternalCxxFrameHandler@V__FrameHandler3@@@@YA?AW4_EXCEPTION_DISPOSITION@@PAUEHExceptionRecord@@PAUEHRegistrationNode@@PAU_CONTEXT@@PAXPBU_s_FuncInfo@@H1E@Z 0041cfab f i libvcruntime:frame.obj
 0001:0001c0ad       ??$__InternalCxxFrameHandlerWrapper@V__FrameHandler3@@@@YA?AW4_EXCEPTION_DISPOSITION@@PAUEHExceptionRecord@@PAUEHRegistrationNode@@PAU_CONTEXT@@PAXPBU_s_FuncInfo@@H1E@Z 0041d0ad f i libvcruntime:frame.obj
 0001:0001c0b6       ??0bad_exception@std@@QAE@ABV01@@Z 0041d0b6 f i libvcruntime:frame.obj
 0001:0001c0d1       ??0bad_exception@std@@QAE@XZ 0041d0d1 f i libvcruntime:frame.obj
 0001:0001c0e9       ??8type_info@@QBE_NABV0@@Z 0041d0e9 f i libvcruntime:frame.obj
 0001:0001c360       ?FrameUnwindToEmptyState@__FrameHandler3@@SAXPAUEHRegistrationNode@@PAXPBU_s_FuncInfo@@@Z 0041d360 f   libvcruntime:frame.obj
 0001:0001c378       ?FrameUnwindToState@__FrameHandler3@@SAXPAUEHRegistrationNode@@PAXPBU_s_FuncInfo@@H@Z 0041d378 f   libvcruntime:frame.obj
 0001:0001c4fa       ?_CallMemberFunction1@@YGXQAX00@Z 0041d4fa f i libvcruntime:frame.obj
 0001:0001c50a       ?_CallMemberFunction2@@YGXQAX00H@Z 0041d50a f i libvcruntime:frame.obj
 0001:0001c51d       ?getESTypes@__FrameHandler3@@SAPBU_s_ESTypeList@@PBU_s_FuncInfo@@@Z 0041d51d f i libvcruntime:frame.obj
 0001:0001c530       __CallSettingFrame@12      0041d530 f   libvcruntime:lowhelpr.obj
 0001:0001c557       __NLG_Return               0041d557     libvcruntime:lowhelpr.obj
 0001:0001c57c       ___except_validate_context_record 0041d57c f   libvcruntime:jbcxrval.obj
 0001:0001c5ac       ___vcrt_initialize_locks   0041d5ac f   libvcruntime:locks.obj
 0001:0001c5e8       ___vcrt_uninitialize_locks 0041d5e8 f   libvcruntime:locks.obj
 0001:0001c620       __local_unwind4            0041d620 f   libvcruntime:exsup4.obj
 0001:0001c710       @_EH4_CallFilterFunc@8     0041d710 f   libvcruntime:exsup4.obj
 0001:0001c730       @_EH4_TransferToHandler@8  0041d730 f   libvcruntime:exsup4.obj
 0001:0001c750       @_EH4_GlobalUnwind2@8      0041d750 f   libvcruntime:exsup4.obj
 0001:0001c770       @_EH4_LocalUnwind@16       0041d770 f   libvcruntime:exsup4.obj
 0001:0001c872       ___vcrt_FlsAlloc           0041d872 f   libvcruntime:winapi_downlevel.obj
 0001:0001c8ad       ___vcrt_FlsFree            0041d8ad f   libvcruntime:winapi_downlevel.obj
 0001:0001c8e8       ___vcrt_FlsGetValue        0041d8e8 f   libvcruntime:winapi_downlevel.obj
 0001:0001c923       ___vcrt_FlsSetValue        0041d923 f   libvcruntime:winapi_downlevel.obj
 0001:0001c961       ___vcrt_InitializeCriticalSectionEx 0041d961 f   libvcruntime:winapi_downlevel.obj
 0001:0001c9a8       _unexpected                0041d9a8 f   libvcruntime:unexpected.obj
 0001:0001c9c5       ?GetCurrentState@__FrameHandler3@@SAHPAUEHRegistrationNode@@PAXPBU_s_FuncInfo@@@Z 0041d9c5 f   libvcruntime:ehstate.obj
 0001:0001c9e2       ?SetState@__FrameHandler3@@SAXPAUEHRegistrationNode@@PBU_s_FuncInfo@@H@Z 0041d9e2 f   libvcruntime:ehstate.obj
 0001:0001c9f0       __NLG_Notify1              0041d9f0 f   libvcruntime:exsup.obj
 0001:0001ca00       __NLG_Notify               0041da00 f   libvcruntime:exsup.obj
 0001:0001ca17       __NLG_Dispatch             0041da17     libvcruntime:exsup.obj
 0001:0001ca17       __NLG_Dispatch2            0041da17     libvcruntime:exsup.obj
 0001:0001ca20       __NLG_Call                 0041da20 f   libvcruntime:exsup.obj
 0001:0001ca22       __NLG_Return2              0041da22     libvcruntime:exsup.obj
 0001:0001ca23       ??0__crt_cached_ptd_host@@QAE@QAU__crt_locale_pointers@@@Z 0041da23 f i libucrt:invalid_parameter.obj
 0001:0001ca6b       ??1__crt_cached_ptd_host@@QAE@XZ 0041da6b f i libucrt:invalid_parameter.obj
 0001:0001caa7       ?check_synchronize_global_state_index@__crt_cached_ptd_host@@AAEIXZ 0041daa7 f i libucrt:invalid_parameter.obj
 0001:0001cad0       ?force_synchronize_per_thread_data@__crt_cached_ptd_host@@AAEPAU__acrt_ptd@@XZ 0041dad0 f i libucrt:invalid_parameter.obj
 0001:0001cb16       ?get_raw_ptd@__crt_cached_ptd_host@@QAEPAU__acrt_ptd@@XZ 0041db16 f i libucrt:invalid_parameter.obj
 0001:0001cb33       ___acrt_call_reportfault   0041db33 f   libucrt:invalid_parameter.obj
 0001:0001cc6c       ___acrt_initialize_invalid_parameter_handler 0041dc6c f   libucrt:invalid_parameter.obj
 0001:0001cc7b       __invalid_parameter        0041dc7b f   libucrt:invalid_parameter.obj
 0001:0001ccb2       __invalid_parameter_internal 0041dcb2 f   libucrt:invalid_parameter.obj
 0001:0001cd2f       __invalid_parameter_noinfo 0041dd2f f   libucrt:invalid_parameter.obj
 0001:0001cd3f       __invalid_parameter_noinfo_noreturn 0041dd3f f   libucrt:invalid_parameter.obj
 0001:0001cd5c       __invoke_watson            0041dd5c f   libucrt:invalid_parameter.obj
 0001:0001cd90       _free                      0041dd90 f   libucrt:free.obj
 0001:0001cdab       __strdup                   0041ddab f   libucrt:strdup.obj
 0001:0001cf2d       __itow_s                   0041df2d f   libucrt:xtoa.obj
 0001:0001d12f       ??$count@D@formatting_buffer@__crt_stdio_output@@QBEIXZ 0041e12f f i libucrt:output.obj
 0001:0001d147       ??$ensure_buffer_is_big_enough@D@formatting_buffer@__crt_stdio_output@@QAE_NIAAV__crt_cached_ptd_host@@@Z 0041e147 f i libucrt:output.obj
 0001:0001d1c8       ??$is_overflow_condition@K@__crt_strtox@@YA_NIK@Z 0041e1c8 f i libucrt:output.obj
 0001:0001d1fc       ??$is_wide_character_specifier@D@__crt_stdio_output@@YA_N_KDW4length_modifier@0@@Z 0041e1fc f i libucrt:output.obj
 0001:0001d22d       ??$parse_integer@KV?$c_string_character_source@D@__crt_strtox@@$0A@@__crt_strtox@@YAKAAV__crt_cached_ptd_host@@V?$c_string_character_source@D@0@H_N@Z 0041e22d f i libucrt:output.obj
 0001:0001d43c       ??$scratch_data@D@formatting_buffer@__crt_stdio_output@@QAEPADXZ 0041e43c f i libucrt:output.obj
 0001:0001d45a       ??$type_case_integer@$07@?$output_processor@DV?$stream_output_adapter@D@__crt_stdio_output@@V?$standard_base@DV?$stream_output_adapter@D@__crt_stdio_output@@@2@@__crt_stdio_output@@AAE_N_N@Z 0041e45a f i libucrt:output.obj
 0001:0001d45a       ??$type_case_integer@$07@?$output_processor@DV?$string_output_adapter@D@__crt_stdio_output@@V?$standard_base@DV?$string_output_adapter@D@__crt_stdio_output@@@2@@__crt_stdio_output@@AAE_N_N@Z 0041e45a f i libucrt:output.obj
 0001:0001d5e7       ??$type_case_integer@$09@?$output_processor@DV?$stream_output_adapter@D@__crt_stdio_output@@V?$standard_base@DV?$stream_output_adapter@D@__crt_stdio_output@@@2@@__crt_stdio_output@@AAE_N_N@Z 0041e5e7 f i libucrt:output.obj
 0001:0001d5e7       ??$type_case_integer@$09@?$output_processor@DV?$string_output_adapter@D@__crt_stdio_output@@V?$standard_base@DV?$string_output_adapter@D@__crt_stdio_output@@@2@@__crt_stdio_output@@AAE_N_N@Z 0041e5e7 f i libucrt:output.obj
 0001:0001d774       ??$type_case_integer@$0BA@@?$output_processor@DV?$stream_output_adapter@D@__crt_stdio_output@@V?$standard_base@DV?$stream_output_adapter@D@__crt_stdio_output@@@2@@__crt_stdio_output@@AAE_N_N@Z 0041e774 f i libucrt:output.obj
 0001:0001d774       ??$type_case_integer@$0BA@@?$output_processor@DV?$string_output_adapter@D@__crt_stdio_output@@V?$standard_base@DV?$string_output_adapter@D@__crt_stdio_output@@@2@@__crt_stdio_output@@AAE_N_N@Z 0041e774 f i libucrt:output.obj
 0001:0001d901       ??$type_case_integer_parse_into_buffer@I$07@?$output_processor@DV?$stream_output_adapter@D@__crt_stdio_output@@V?$standard_base@DV?$stream_output_adapter@D@__crt_stdio_output@@@2@@__crt_stdio_output@@AAEXI_N@Z 0041e901 f i libucrt:output.obj
 0001:0001d901       ??$type_case_integer_parse_into_buffer@I$07@?$output_processor@DV?$string_output_adapter@D@__crt_stdio_output@@V?$standard_base@DV?$string_output_adapter@D@__crt_stdio_output@@@2@@__crt_stdio_output@@AAEXI_N@Z 0041e901 f i libucrt:output.obj
 0001:0001d964       ??$type_case_integer_parse_into_buffer@I$09@?$output_processor@DV?$stream_output_adapter@D@__crt_stdio_output@@V?$standard_base@DV?$stream_output_adapter@D@__crt_stdio_output@@@2@@__crt_stdio_output@@AAEXI_N@Z 0041e964 f i libucrt:output.obj
 0001:0001d964       ??$type_case_integer_parse_into_buffer@I$09@?$output_processor@DV?$string_output_adapter@D@__crt_stdio_output@@V?$standard_base@DV?$string_output_adapter@D@__crt_stdio_output@@@2@@__crt_stdio_output@@AAEXI_N@Z 0041e964 f i libucrt:output.obj
 0001:0001d9eb       ??$type_case_integer_parse_into_buffer@I$0BA@@?$output_processor@DV?$stream_output_adapter@D@__crt_stdio_output@@V?$standard_base@DV?$stream_output_adapter@D@__crt_stdio_output@@@2@@__crt_stdio_output@@AAEXI_N@Z 0041e9eb f i libucrt:output.obj
 0001:0001d9eb       ??$type_case_integer_parse_into_buffer@I$0BA@@?$output_processor@DV?$string_output_adapter@D@__crt_stdio_output@@V?$standard_base@DV?$string_output_adapter@D@__crt_stdio_output@@@2@@__crt_stdio_output@@AAEXI_N@Z 0041e9eb f i libucrt:output.obj
 0001:0001da68       ??$type_case_integer_parse_into_buffer@_K$07@?$output_processor@DV?$stream_output_adapter@D@__crt_stdio_output@@V?$standard_base@DV?$stream_output_adapter@D@__crt_stdio_output@@@2@@__crt_stdio_output@@AAEX_K_N@Z 0041ea68 f i libucrt:output.obj
 0001:0001da68       ??$type_case_integer_parse_into_buffer@_K$07@?$output_processor@DV?$string_output_adapter@D@__crt_stdio_output@@V?$standard_base@DV?$string_output_adapter@D@__crt_stdio_output@@@2@@__crt_stdio_output@@AAEX_K_N@Z 0041ea68 f i libucrt:output.obj
 0001:0001dae0       ??$type_case_integer_parse_into_buffer@_K$09@?$output_processor@DV?$stream_output_adapter@D@__crt_stdio_output@@V?$standard_base@DV?$stream_output_adapter@D@__crt_stdio_output@@@2@@__crt_stdio_output@@AAEX_K_N@Z 0041eae0 f i libucrt:output.obj
 0001:0001dae0       ??$type_case_integer_parse_into_buffer@_K$09@?$output_processor@DV?$string_output_adapter@D@__crt_stdio_output@@V?$standard_base@DV?$string_output_adapter@D@__crt_stdio_output@@@2@@__crt_stdio_output@@AAEX_K_N@Z 0041eae0 f i libucrt:output.obj
 0001:0001db87       ??$type_case_integer_parse_into_buffer@_K$0BA@@?$output_processor@DV?$stream_output_adapter@D@__crt_stdio_output@@V?$standard_base@DV?$stream_output_adapter@D@__crt_stdio_output@@@2@@__crt_stdio_output@@AAEX_K_N@Z 0041eb87 f i libucrt:output.obj
 0001:0001db87       ??$type_case_integer_parse_into_buffer@_K$0BA@@?$output_processor@DV?$string_output_adapter@D@__crt_stdio_output@@V?$standard_base@DV?$string_output_adapter@D@__crt_stdio_output@@@2@@__crt_stdio_output@@AAEX_K_N@Z 0041eb87 f i libucrt:output.obj
 0001:0001dc11       ??0?$output_adapter_data@DV?$stream_output_adapter@D@__crt_stdio_output@@@__crt_stdio_output@@IAE@ABV?$stream_output_adapter@D@1@_KQBDAAV__crt_cached_ptd_host@@QAD@Z 0041ec11 f i libucrt:output.obj
 0001:0001dc11       ??0?$output_adapter_data@DV?$string_output_adapter@D@__crt_stdio_output@@@__crt_stdio_output@@IAE@ABV?$string_output_adapter@D@1@_KQBDAAV__crt_cached_ptd_host@@QAD@Z 0041ec11 f i libucrt:output.obj
 0001:0001dc78       ??1formatting_buffer@__crt_stdio_output@@QAE@XZ 0041ec78 f i libucrt:output.obj
 0001:0001dc92       ??4?$__crt_unique_heap_ptr@DU__crt_internal_free_policy@@@@QAEAAV0@$$QAV0@@Z 0041ec92 f i libucrt:output.obj
 0001:0001dd52       ?crop_zeroes@__crt_stdio_output@@YAXPADQAU__crt_locale_pointers@@@Z 0041ed52 f i libucrt:output.obj
 0001:0001ddb2       ?find_next_state@?$output_processor@DV?$stream_output_adapter@D@__crt_stdio_output@@V?$standard_base@DV?$stream_output_adapter@D@__crt_stdio_output@@@2@@__crt_stdio_output@@ABE?AW4state@2@DW432@@Z 0041edb2 f i libucrt:output.obj
 0001:0001ddb2       ?find_next_state@?$output_processor@DV?$string_output_adapter@D@__crt_stdio_output@@V?$standard_base@DV?$string_output_adapter@D@__crt_stdio_output@@@2@@__crt_stdio_output@@ABE?AW4state@2@DW432@@Z 0041edb2 f i libucrt:output.obj
 0001:0001dded       ?force_decimal_point@__crt_stdio_output@@YAXPADQAU__crt_locale_pointers@@@Z 0041eded f i libucrt:output.obj
 0001:0001de49       ?parse_int_from_format_string@?$output_processor@DV?$stream_output_adapter@D@__crt_stdio_output@@V?$standard_base@DV?$stream_output_adapter@D@__crt_stdio_output@@@2@@__crt_stdio_output@@AAE_NQAH@Z 0041ee49 f i libucrt:output.obj
 0001:0001de49       ?parse_int_from_format_string@?$output_processor@DV?$string_output_adapter@D@__crt_stdio_output@@V?$standard_base@DV?$string_output_adapter@D@__crt_stdio_output@@@2@@__crt_stdio_output@@AAE_NQAH@Z 0041ee49 f i libucrt:output.obj
 0001:0001dec1       ?process@?$output_processor@DV?$stream_output_adapter@D@__crt_stdio_output@@V?$standard_base@DV?$stream_output_adapter@D@__crt_stdio_output@@@2@@__crt_stdio_output@@QAEHXZ 0041eec1 f i libucrt:output.obj
 0001:0001e171       ?process@?$output_processor@DV?$string_output_adapter@D@__crt_stdio_output@@V?$standard_base@DV?$string_output_adapter@D@__crt_stdio_output@@@2@@__crt_stdio_output@@QAEHXZ 0041f171 f i libucrt:output.obj
 0001:0001e445       ?state_case_size@?$output_processor@DV?$stream_output_adapter@D@__crt_stdio_output@@V?$standard_base@DV?$stream_output_adapter@D@__crt_stdio_output@@@2@@__crt_stdio_output@@AAE_NXZ 0041f445 f i libucrt:output.obj
 0001:0001e59e       ?state_case_size@?$output_processor@DV?$string_output_adapter@D@__crt_stdio_output@@V?$standard_base@DV?$string_output_adapter@D@__crt_stdio_output@@@2@@__crt_stdio_output@@AAE_NXZ 0041f59e f i libucrt:output.obj
 0001:0001e6f7       ?state_case_type@?$output_processor@DV?$stream_output_adapter@D@__crt_stdio_output@@V?$standard_base@DV?$stream_output_adapter@D@__crt_stdio_output@@@2@@__crt_stdio_output@@AAE_NXZ 0041f6f7 f i libucrt:output.obj
 0001:0001ea39       ?state_case_type@?$output_processor@DV?$string_output_adapter@D@__crt_stdio_output@@V?$standard_base@DV?$string_output_adapter@D@__crt_stdio_output@@@2@@__crt_stdio_output@@AAE_NXZ 0041fa39 f i libucrt:output.obj
 0001:0001ed98       ?to_integer_size@__crt_stdio_output@@YAIW4length_modifier@1@@Z 0041fd98 f i libucrt:output.obj
 0001:0001edec       ?type_case_Z@?$output_processor@DV?$stream_output_adapter@D@__crt_stdio_output@@V?$standard_base@DV?$stream_output_adapter@D@__crt_stdio_output@@@2@@__crt_stdio_output@@AAE_NXZ 0041fdec f i libucrt:output.obj
 0001:0001edec       ?type_case_Z@?$output_processor@DV?$string_output_adapter@D@__crt_stdio_output@@V?$standard_base@DV?$string_output_adapter@D@__crt_stdio_output@@@2@@__crt_stdio_output@@AAE_NXZ 0041fdec f i libucrt:output.obj
 0001:0001ee4f       ?type_case_a@?$output_processor@DV?$stream_output_adapter@D@__crt_stdio_output@@V?$standard_base@DV?$stream_output_adapter@D@__crt_stdio_output@@@2@@__crt_stdio_output@@AAE_NXZ 0041fe4f f i libucrt:output.obj
 0001:0001ee4f       ?type_case_a@?$output_processor@DV?$string_output_adapter@D@__crt_stdio_output@@V?$standard_base@DV?$string_output_adapter@D@__crt_stdio_output@@@2@@__crt_stdio_output@@AAE_NXZ 0041fe4f f i libucrt:output.obj
 0001:0001efe0       ?type_case_c_tchar@?$output_processor@DV?$stream_output_adapter@D@__crt_stdio_output@@V?$standard_base@DV?$stream_output_adapter@D@__crt_stdio_output@@@2@@__crt_stdio_output@@AAE_ND@Z 0041ffe0 f i libucrt:output.obj
 0001:0001efe0       ?type_case_c_tchar@?$output_processor@DV?$string_output_adapter@D@__crt_stdio_output@@V?$standard_base@DV?$string_output_adapter@D@__crt_stdio_output@@@2@@__crt_stdio_output@@AAE_ND@Z 0041ffe0 f i libucrt:output.obj
 0001:0001f075       ?type_case_n@?$output_processor@DV?$stream_output_adapter@D@__crt_stdio_output@@V?$standard_base@DV?$stream_output_adapter@D@__crt_stdio_output@@@2@@__crt_stdio_output@@AAE_NXZ 00420075 f i libucrt:output.obj
 0001:0001f075       ?type_case_n@?$output_processor@DV?$string_output_adapter@D@__crt_stdio_output@@V?$standard_base@DV?$string_output_adapter@D@__crt_stdio_output@@@2@@__crt_stdio_output@@AAE_NXZ 00420075 f i libucrt:output.obj
 0001:0001f0fa       ?type_case_o@?$output_processor@DV?$stream_output_adapter@D@__crt_stdio_output@@V?$standard_base@DV?$stream_output_adapter@D@__crt_stdio_output@@@2@@__crt_stdio_output@@AAE_NXZ 004200fa f i libucrt:output.obj
 0001:0001f0fa       ?type_case_o@?$output_processor@DV?$string_output_adapter@D@__crt_stdio_output@@V?$standard_base@DV?$string_output_adapter@D@__crt_stdio_output@@@2@@__crt_stdio_output@@AAE_NXZ 004200fa f i libucrt:output.obj
 0001:0001f117       ?type_case_p@?$output_processor@DV?$stream_output_adapter@D@__crt_stdio_output@@V?$standard_base@DV?$stream_output_adapter@D@__crt_stdio_output@@@2@@__crt_stdio_output@@AAE_NXZ 00420117 f i libucrt:output.obj
 0001:0001f117       ?type_case_p@?$output_processor@DV?$string_output_adapter@D@__crt_stdio_output@@V?$standard_base@DV?$string_output_adapter@D@__crt_stdio_output@@@2@@__crt_stdio_output@@AAE_NXZ 00420117 f i libucrt:output.obj
 0001:0001f12d       ?type_case_s@?$output_processor@DV?$stream_output_adapter@D@__crt_stdio_output@@V?$standard_base@DV?$stream_output_adapter@D@__crt_stdio_output@@@2@@__crt_stdio_output@@AAE_NXZ 0042012d f i libucrt:output.obj
 0001:0001f12d       ?type_case_s@?$output_processor@DV?$string_output_adapter@D@__crt_stdio_output@@V?$standard_base@DV?$string_output_adapter@D@__crt_stdio_output@@@2@@__crt_stdio_output@@AAE_NXZ 0042012d f i libucrt:output.obj
 0001:0001f19f       ?unget@?$c_string_character_source@D@__crt_strtox@@QAEXD@Z 0042019f f i libucrt:output.obj
 0001:0001f1c8       ?unget@?$c_string_character_source@_W@__crt_strtox@@QAEX_W@Z 004201c8 f i libucrt:output.obj
 0001:0001f200       ?update_locale_slow@__crt_cached_ptd_host@@AAEXXZ 00420200 f i libucrt:output.obj
 0001:0001f25b       ?validate@?$c_string_character_source@D@__crt_strtox@@QBE_NXZ 0042025b f i libucrt:output.obj
 0001:0001f25b       ?validate@?$c_string_character_source@_W@__crt_strtox@@QBE_NXZ 0042025b f i libucrt:output.obj
 0001:0001f276       ?validate@?$stream_output_adapter@D@__crt_stdio_output@@QBE_NAAV__crt_cached_ptd_host@@@Z 00420276 f i libucrt:output.obj
 0001:0001f2ae       ?validate@?$string_output_adapter@D@__crt_stdio_output@@QBE_NAAV__crt_cached_ptd_host@@@Z 004202ae f i libucrt:output.obj
 0001:0001f2df       ?validate_stream_is_ansi_if_required@?$__acrt_stdio_char_traits@D@@SA_NQAU_iobuf@@@Z 004202df f i libucrt:output.obj
 0001:0001f366       ?write_character@?$output_adapter_common@DV?$stream_output_adapter@D@__crt_stdio_output@@@__crt_stdio_output@@QBEXDQAHAAV__crt_cached_ptd_host@@@Z 00420366 f i libucrt:output.obj
 0001:0001f388       ?write_character_without_count_update@?$stream_output_adapter@D@__crt_stdio_output@@QBE_NDAAV__crt_cached_ptd_host@@@Z 00420388 f i libucrt:output.obj
 0001:0001f3c2       ?write_string@?$stream_output_adapter@D@__crt_stdio_output@@QBEXQBDHQAHAAV__crt_cached_ptd_host@@@Z 004203c2 f i libucrt:output.obj
 0001:0001f3ee       ?write_string@?$string_output_adapter@D@__crt_stdio_output@@QBEXQBDHQAHAAV__crt_cached_ptd_host@@@Z 004203ee f i libucrt:output.obj
 0001:0001f455       ?write_string_impl@?$output_adapter_common@DV?$stream_output_adapter@D@__crt_stdio_output@@@__crt_stdio_output@@IBEXQBDHQAHAAV__crt_cached_ptd_host@@@Z 00420455 f i libucrt:output.obj
 0001:0001f4d4       ___acrt_locale_get_ctype_array_value 004204d4 f i libucrt:output.obj
 0001:0001f4f6       ___stdio_common_vfprintf   004204f6 f   libucrt:output.obj
 0001:0001f59a       ___stdio_common_vsprintf   0042059a f   libucrt:output.obj
 0001:0001f6b1       __strtime                  004206b1 f   libucrt:strtime.obj
 0001:0001f6d0       _strncpy                   004206d0 f   libucrt:strncpy.obj
 0001:0001f7f4       _calloc                    004207f4 f   libucrt:calloc.obj
 0001:0001f800       _strncat                   00420800 f   libucrt:strncat.obj
 0001:0001f940       _strncmp                   00420940 f   libucrt:strncmp.obj
 0001:0001f9b8       ??$parse_integer@KV?$c_string_character_source@D@__crt_strtox@@$00@__crt_strtox@@YAKAAV__crt_cached_ptd_host@@V?$c_string_character_source@D@0@H_N@Z 004209b8 f i libucrt:atox.obj
 0001:0001fbff       ??$parse_integer@KV?$c_string_character_source@_W@__crt_strtox@@$00@__crt_strtox@@YAKAAV__crt_cached_ptd_host@@V?$c_string_character_source@_W@0@H_N@Z 00420bff f i libucrt:atox.obj
 0001:0002020d       __ischartype_l             0042120d f i libucrt:atox.obj
 0001:00020264       __wtol                     00421264 f   libucrt:atox.obj
 0001:000202a3       _atoi                      004212a3 f   libucrt:atox.obj
 0001:000202a3       _atol                      004212a3 f   libucrt:atox.obj
 0001:000202e2       ___acrt_initialize_stdio   004212e2 f   libucrt:_file.obj
 0001:000203aa       ___acrt_iob_func           004213aa f   libucrt:_file.obj
 0001:000203ba       ___acrt_uninitialize_stdio 004213ba f   libucrt:_file.obj
 0001:00020406       __get_stream_buffer_pointers 00421406 f   libucrt:_file.obj
 0001:0002044c       __lock_file                0042144c f   libucrt:_file.obj
 0001:00020460       __unlock_file              00421460 f   libucrt:_file.obj
 0001:0002058f       _system                    0042158f f   libucrt:system.obj
 0001:000206bf       _fclose                    004216bf f   libucrt:fclose.obj
 0001:00020928       ___acrt_stdio_flush_nolock 00421928 f   libucrt:fflush.obj
 0001:00020991       __fflush_nolock            00421991 f   libucrt:fflush.obj
 0001:000209f6       __flushall                 004219f6 f   libucrt:fflush.obj
 0001:000209ff       _fflush                    004219ff f   libucrt:fflush.obj
 0001:00020a52       __fgetc_nolock             00421a52 f   libucrt:fgetc.obj
 0001:00020a8e       _fgetc                     00421a8e f   libucrt:fgetc.obj
 0001:00020ba7       _fgetpos                   00421ba7 f   libucrt:fgetpos.obj
 0001:00020d36       __fputc_nolock_internal    00421d36 f   libucrt:fputc.obj
 0001:00020d63       _fputc                     00421d63 f   libucrt:fputc.obj
 0001:00020d97       __fread_nolock_s           00421d97 f   libucrt:fread.obj
 0001:00020f70       _fread                     00421f70 f   libucrt:fread.obj
 0001:00020f8d       _fread_s                   00421f8d f   libucrt:fread.obj
 0001:000210ab       _fsetpos                   004220ab f   libucrt:fsetpos.obj
 0001:000210e6       ?LongLongSub@@YAJ_J0PA_J@Z 004220e6 f i libucrt:fseek.obj
 0001:000213cf       __fseeki64                 004223cf f   libucrt:fseek.obj
 0001:000214b0       __fwrite_internal          004224b0 f   libucrt:fwrite.obj
 0001:00021527       __fwrite_nolock_internal   00422527 f   libucrt:fwrite.obj
 0001:000216ce       _fwrite                    004226ce f   libucrt:fwrite.obj
 0001:000218cc       _setvbuf                   004228cc f   libucrt:setvbuf.obj
 0001:00021906       __ungetc_nolock            00422906 f   libucrt:ungetc.obj
 0001:000219fa       _ungetc                    004229fa f   libucrt:ungetc.obj
 0001:00021a6d       ___acrt_initialize_locks   00422a6d f   libucrt:locks.obj
 0001:00021aae       ___acrt_lock               00422aae f   libucrt:locks.obj
 0001:00021ac5       ___acrt_uninitialize_locks 00422ac5 f   libucrt:locks.obj
 0001:00021af6       ___acrt_unlock             00422af6 f   libucrt:locks.obj
 0001:00021b0d       __lock_locales             00422b0d f   libucrt:locks.obj
 0001:00021b1b       __unlock_locales           00422b1b f   libucrt:locks.obj
 0001:00021b24       _malloc                    00422b24 f   libucrt:malloc.obj
 0001:00021d84       _setlocale                 00422d84 f   libucrt:setlocale.obj
 0001:00021dbc       ___pctype_func             00422dbc f   libucrt:ctype.obj
 0001:00021de0       _islower                   00422de0 f   libucrt:_ctype.obj
 0001:00021e70       _isupper                   00422e70 f   libucrt:_ctype.obj
 0001:00021ef4       ____lc_codepage_func       00422ef4 f   libucrt:initctype.obj
 0001:00021f19       ____lc_locale_name_func    00422f19 f   libucrt:initctype.obj
 0001:00021f40       ___acrt_locale_initialize_ctype 00422f40 f   libucrt:initctype.obj
 0001:0002239d       __wcsdup                   0042339d f   libucrt:wcsdup.obj
 0001:000223fc       _abort                     004233fc f   libucrt:abort.obj
 0001:00022440       ___acrt_errno_from_os_error 00423440 f   libucrt:errno.obj
 0001:00022483       ___acrt_errno_map_os_error 00423483 f   libucrt:errno.obj
 0001:000224a6       ___acrt_errno_map_os_error_ptd 004234a6 f   libucrt:errno.obj
 0001:000224ca       ___doserrno                004234ca f   libucrt:errno.obj
 0001:000224dd       __errno                    004234dd f   libucrt:errno.obj
 0001:000224f0       ??0_LocaleUpdate@@QAE@QAU__crt_locale_pointers@@@Z 004234f0 f i libucrt:strtod.obj
 0001:00022580       ?divide@__crt_strtox@@YA_KAAUbig_integer@1@ABU21@@Z 00423580 f i libucrt:strtod.obj
 0001:00022a30       _strcspn                   00423a30 f   libucrt:strcspn.obj
 0001:00022a76       ___strncnt                 00423a76 f   libucrt:strncnt.obj
 0001:00022a92       ??$__acrt_convert_wcs_mbs_cp@D_WV<lambda_62f6974d9771e494a5ea317cc32e971c>@@U__crt_win32_buffer_internal_dynamic_resizing@@@@YAHQBDAAV?$__crt_win32_buffer@_WU__crt_win32_buffer_internal_dynamic_resizing@@@@ABV<lambda_62f6974d9771e494a5ea317cc32e971c>@@I@Z 00423a92 f i libucrt:strftime.obj
 0001:00022b44       ??$__acrt_convert_wcs_mbs_cp@_WDV<lambda_0fec1a7b3f42a53036604e18c2d5e07e>@@U__crt_win32_buffer_no_resizing@@@@YAHQB_WAAV?$__crt_win32_buffer@DU__crt_win32_buffer_no_resizing@@@@ABV<lambda_0fec1a7b3f42a53036604e18c2d5e07e>@@I@Z 00423b44 f i libucrt:strftime.obj
 0001:00022c06       ??$__acrt_mbs_to_wcs_cp@U__crt_win32_buffer_internal_dynamic_resizing@@@@YAHQBDAAV?$__crt_win32_buffer@_WU__crt_win32_buffer_internal_dynamic_resizing@@@@I@Z 00423c06 f i libucrt:strftime.obj
 0001:00022c23       ??R<lambda_0fec1a7b3f42a53036604e18c2d5e07e>@@QBE@IQB_WQADI@Z 00423c23 f i libucrt:strftime.obj
 0001:00022c23       ??R<lambda_28bda7af82a03b66c1cb3803a755f95d>@@QBE@IQB_WQADI@Z 00423c23 f i libucrt:argv_wildcards.obj
 0001:00022c47       ?_deallocate@?$__crt_win32_buffer@DU__crt_win32_buffer_internal_dynamic_resizing@@@@AAEXXZ 00423c47 f i libucrt:argv_wildcards.obj
 0001:00022c47       ?_deallocate@?$__crt_win32_buffer@_WU__crt_win32_buffer_internal_dynamic_resizing@@@@AAEXXZ 00423c47 f i libucrt:strftime.obj
 0001:00022c61       ?allocate@?$__crt_win32_buffer@DU__crt_win32_buffer_no_resizing@@@@QAEHI@Z 00423c61 f i libucrt:strftime.obj
 0001:00022c88       ?allocate@?$__crt_win32_buffer@_WU__crt_win32_buffer_internal_dynamic_resizing@@@@QAEHI@Z 00423c88 f i libucrt:strftime.obj
 0001:00022cc7       ?allocate@__crt_win32_buffer_internal_dynamic_resizing@@SAHQAPAXIABV__crt_win32_buffer_empty_debug_info@@@Z 00423cc7 f i libucrt:strftime.obj
 0001:00022ce6       ?set_to_nullptr@?$__crt_win32_buffer@DU__crt_win32_buffer_no_resizing@@@@QAEXXZ 00423ce6 f i libucrt:strftime.obj
 0001:00022cfa       _strnlen                   00423cfa f   libucrt:strnlen.obj
 0001:00022e1c       _wcsnlen                   00423e1c f   libucrt:strnlen.obj
 0001:00022fcc       ??$__crt_fast_decode_pointer@P6AHI@Z@@YAP6AHI@ZQ6AHI@Z@Z 00423fcc f i libucrt:new_handler.obj
 0001:00022fcc       ??$__crt_fast_decode_pointer@P6AXH@Z@@YAP6AXH@ZQ6AXH@Z@Z 00423fcc f i libucrt:signal.obj
 0001:00022fcc       ??$__crt_fast_decode_pointer@P6GXPAXK0@Z@@YAP6GXPAXK0@ZQ6GX0K0@Z@Z 00423fcc f i libucrt:exit.obj
 0001:00022fe7       ___acrt_initialize_new_handler 00423fe7 f   libucrt:new_handler.obj
 0001:00022ff6       __callnewh                 00423ff6 f   libucrt:new_handler.obj
 0001:00023022       __query_new_handler        00424022 f   libucrt:new_handler.obj
 0001:00023079       __seh_filter_exe           00424079 f   libucrt:exception_filter.obj
 0001:0002320c       ??$__crt_fast_encode_pointer@P6AHPAU_exception@@@Z@@YAP6AHPAU_exception@@@ZQ6AH0@Z@Z 0042420c f i libucrt:matherr.obj
 0001:0002320c       ??$__crt_fast_encode_pointer@P6AHXZ@@YAP6AHXZQ6AHXZ@Z 0042420c f i libucrt:onexit.obj
 0001:0002320c       ??$__crt_fast_encode_pointer@P6GHPA_WKJ@Z@@YAP6GHPA_WKJ@ZQ6GH0KJ@Z@Z 0042420c f i libucrt:winapi_thunks.obj
 0001:0002320c       ??$__crt_fast_encode_pointer@P6GXPAXK0@Z@@YAP6GXPAXK0@ZQ6GX0K0@Z@Z 0042420c f i libucrt:exit.obj
 0001:0002320c       ??$__crt_fast_encode_pointer@PAP6AXXZ@@YAPAP6AXXZQAP6AXXZ@Z 0042420c f i libucrt:onexit.obj
 0001:0002320c       ??$__crt_fast_encode_pointer@PAX@@YAPAXQAX@Z 0042420c f i libucrt:initialization.obj
 0001:00023476       ___acrt_initialize_thread_local_exit_callback 00424476 f   libucrt:exit.obj
 0001:00023485       __c_exit                   00424485 f   libucrt:exit.obj
 0001:00023494       __cexit                    00424494 f   libucrt:exit.obj
 0001:000234a3       __exit                     004244a3 f   libucrt:exit.obj
 0001:000234b9       __register_thread_local_exe_atexit_callback 004244b9 f   libucrt:exit.obj
 0001:000234df       _exit                      004244df f   libucrt:exit.obj
 0001:000237a6       ___acrt_allocate_buffer_for_argv 004247a6 f   libucrt:argv_parsing.obj
 0001:000237f5       __configure_narrow_argv    004247f5 f   libucrt:argv_parsing.obj
 0001:00023a50       ___dcrt_get_or_create_narrow_environment_nolock 00424a50 f   libucrt:environment_initialization.obj
 0001:00023a55       ___dcrt_uninitialize_environments_nolock 00424a55 f   libucrt:environment_initialization.obj
 0001:00023aa6       __get_initial_narrow_environment 00424aa6 f   libucrt:environment_initialization.obj
 0001:00023aba       __initialize_narrow_environment 00424aba f   libucrt:environment_initialization.obj
 0001:00023d51       __crt_atexit               00424d51 f   libucrt:onexit.obj
 0001:00023d67       __execute_onexit_table     00424d67 f   libucrt:onexit.obj
 0001:00023da5       __initialize_onexit_table  00424da5 f   libucrt:onexit.obj
 0001:00023dce       __register_onexit_function 00424dce f   libucrt:onexit.obj
 0001:00023efc       ___acrt_initialize         00424efc f   libucrt:initialization.obj
 0001:00023f0e       ___acrt_uninitialize       00424f0e f   libucrt:initialization.obj
 0001:00023f3e       __query_app_type           00424f3e f   libucrt:report_runtime_error.obj
 0001:00023f44       __set_app_type             00424f44 f   libucrt:report_runtime_error.obj
 0001:00023f53       ___acrt_has_user_matherr   00424f53 f   libucrt:matherr.obj
 0001:00023f70       ___acrt_initialize_user_matherr 00424f70 f   libucrt:matherr.obj
 0001:00023f7f       ___acrt_invoke_user_matherr 00424f7f f   libucrt:matherr.obj
 0001:00023fb5       ___setusermatherr          00424fb5 f   libucrt:matherr.obj
 0001:00023fca       __initterm                 00424fca f   libucrt:initterm.obj
 0001:00023ff5       __initterm_e               00424ff5 f   libucrt:initterm.obj
 0001:00024023       __set_fmode                00425023 f   libucrt:setmode.obj
 0001:00024060       ___acrt_initialize_command_line 00425060 f   libucrt:argv_data.obj
 0001:00024079       ___p___argc                00425079 f   libucrt:argv_data.obj
 0001:0002407f       ___p___argv                0042507f f   libucrt:argv_data.obj
 0001:00024185       ??0_expandlocale_locale_name_cache@@QAE@QA_WIQAU__crt_qualified_locale_data@@@Z 00425185 f i libucrt:wsetlocale.obj
 0001:000241cf       ??1_expandlocale_locale_name_cache@@QAE@XZ 004251cf f i libucrt:wsetlocale.obj
 0001:00024367       ?commit_locale_name@_expandlocale_locale_name_cache@@QAEXQB_WI@Z 00425367 f i libucrt:wsetlocale.obj
 0001:000243ab       ?commit_locale_name_cache_already_updated@_expandlocale_locale_name_cache@@QAEXQB_WI@Z 004253ab f i libucrt:wsetlocale.obj
 0001:000243e0       ___acrt_copy_locale_name   004253e0 f   libucrt:wsetlocale.obj
 0001:00024440       ___acrt_set_locale_changed 00425440 f   libucrt:wsetlocale.obj
 0001:0002444b       ___acrt_uninitialize_locale 0042544b f   libucrt:wsetlocale.obj
 0001:00024472       ___lc_lctowcs              00425472 f   libucrt:wsetlocale.obj
 0001:000244e2       ___lc_wcstolc              004254e2 f   libucrt:wsetlocale.obj
 0001:0002461f       __configthreadlocale       0042561f f   libucrt:wsetlocale.obj
 0001:00024a76       __wcscats                  00425a76 f   libucrt:wsetlocale.obj
 0001:00024ab7       __wsetlocale               00425ab7 f   libucrt:wsetlocale.obj
 0001:000257ac       __query_new_mode           004267ac f   libucrt:new_mode.obj
 0001:000257b3       __set_new_mode             004267b3 f   libucrt:new_mode.obj
 0001:000257e2       ___p__commode              004267e2 f   libucrt:ncommode.obj
 0001:000257e8       _terminate                 004267e8 f   libucrt:terminate.obj
 0001:00025824       __controlfp_s              00426824 f   libucrt:contrlfp.obj
 0001:00025883       _strcpy_s                  00426883 f   libucrt:strcpy_s.obj
 0001:000258dd       _wcsncmp                   004268dd f   libucrt:wcsncmp.obj
 0001:00025c55       ___acrt_getptd             00426c55 f   libucrt:per_thread_data.obj
 0001:00025d10       ___acrt_getptd_head        00426d10 f   libucrt:per_thread_data.obj
 0001:00025da6       ___acrt_getptd_noexit      00426da6 f   libucrt:per_thread_data.obj
 0001:00025e57       ___acrt_getptd_noexit_explicit 00426e57 f   libucrt:per_thread_data.obj
 0001:00025efa       ___acrt_initialize_ptd     00426efa f   libucrt:per_thread_data.obj
 0001:00025f26       ___acrt_uninitialize_ptd   00426f26 f   libucrt:per_thread_data.obj
 0001:00025f40       __free_base                00426f40 f   libucrt:free_base.obj
 0001:00025f7a       __malloc_base              00426f7a f   libucrt:malloc_base.obj
 0001:00025fc8       ___acrt_update_locale_info 00426fc8 f   libucrt:locale_update.obj
 0001:00025ff5       ___acrt_update_locale_info_explicit 00426ff5 f   libucrt:locale_update.obj
 0001:00026026       ___acrt_update_multibyte_info 00427026 f   libucrt:locale_update.obj
 0001:00026053       ___acrt_update_multibyte_info_explicit 00427053 f   libucrt:locale_update.obj
 0001:00026084       ?__acrt_fp_classify@@YA?AW4__acrt_fp_class@@ABN@Z 00427084 f i libucrt:cvt.obj
 0001:00026a5c       ___acrt_fp_format          00427a5c f   libucrt:cvt.obj
 0001:00026bdd       __wctomb_internal          00427bdd f   libucrt:wctomb.obj
 0001:00026d47       __mbtowc_internal          00427d47 f   libucrt:mbtowc.obj
 0001:00026e7a       __fileno                   00427e7a f   libucrt:fileno.obj
 0001:00026ea1       __get_printf_count_output  00427ea1 f   libucrt:printf_count_output.obj
 0001:00026eb6       ___acrt_should_use_temporary_buffer 00427eb6 f   libucrt:_sftbuf.obj
 0001:00026ef4       ___acrt_stdio_begin_temporary_buffering_nolock 00427ef4 f   libucrt:_sftbuf.obj
 0001:00026f9f       ___acrt_stdio_end_temporary_buffering_nolock 00427f9f f   libucrt:_sftbuf.obj
 0001:00027143       ___acrt_initialize_lowio   00428143 f   libucrt:ioinit.obj
 0001:000271a3       ___acrt_uninitialize_lowio 004281a3 f   libucrt:ioinit.obj
 0001:000271cf       ___acrt_initialize_timeset 004281cf f   libucrt:timeset.obj
 0001:00027204       ?__acrt_get_utf8_acp_compatibility_codepage@@YAIXZ 00428204 f i libucrt:tzset.obj
 0001:0002756d       ___acrt_AppPolicyGetProcessTerminationMethodInternal@4 0042856d f   libucrt:winapi_thunks.obj
 0001:000275ad       ___acrt_AreFileApisANSI@0  004285ad f   libucrt:winapi_thunks.obj
 0001:000275cc       ___acrt_CompareStringEx@36 004285cc f   libucrt:winapi_thunks.obj
 0001:00027629       ___acrt_EnumSystemLocalesEx@16 00428629 f   libucrt:winapi_thunks.obj
 0001:0002767d       ___acrt_FlsAlloc@4         0042867d f   libucrt:winapi_thunks.obj
 0001:000276bc       ___acrt_FlsFree@4          004286bc f   libucrt:winapi_thunks.obj
 0001:000276fb       ___acrt_FlsGetValue@4      004286fb f   libucrt:winapi_thunks.obj
 0001:0002773a       ___acrt_FlsSetValue@8      0042873a f   libucrt:winapi_thunks.obj
 0001:0002777c       ___acrt_GetLocaleInfoEx@16 0042877c f   libucrt:winapi_thunks.obj
 0001:000277bb       ___acrt_GetUserDefaultLocaleName@8 004287bb f   libucrt:winapi_thunks.obj
 0001:000277f7       ___acrt_InitializeCriticalSectionEx@12 004287f7 f   libucrt:winapi_thunks.obj
 0001:00027842       ___acrt_IsValidLocaleName@4 00428842 f   libucrt:winapi_thunks.obj
 0001:0002787a       ___acrt_LCIDToLocaleName@16 0042887a f   libucrt:winapi_thunks.obj
 0001:000278b9       ___acrt_LCMapStringEx@36   004288b9 f   libucrt:winapi_thunks.obj
 0001:00027916       ___acrt_LocaleNameToLCID@8 00428916 f   libucrt:winapi_thunks.obj
 0001:00027947       ___acrt_can_use_vista_locale_apis 00428947 f   libucrt:winapi_thunks.obj
 0001:00027952       ___acrt_eagerly_load_locale_apis 00428952 f   libucrt:winapi_thunks.obj
 0001:00027989       ___acrt_initialize_winapi_thunks 00428989 f   libucrt:winapi_thunks.obj
 0001:0002799d       ___acrt_uninitialize_winapi_thunks 0042899d f   libucrt:winapi_thunks.obj
 0001:000279d3       __calloc_base              004289d3 f   libucrt:calloc_base.obj
 0001:00027a30       _iswctype                  00428a30 f   libucrt:iswctype.obj
 0001:00027a99       __isctype_l                00428a99 f   libucrt:isctype.obj
 0001:00027b64       __fcloseall                00428b64 f   libucrt:closeall.obj
 0001:00027c0f       ___acrt_stdio_free_buffer_nolock 00428c0f f   libucrt:_freebuf.obj
 0001:00027dc4       __dupenv_s                 00428dc4 f   libucrt:getenv.obj
 0001:000283ab       __spawnve                  004293ab f   libucrt:spawnv.obj
 0001:000286ac       __spawnvpe                 004296ac f   libucrt:spawnvp.obj
 0001:000286b7       __waccess_s                004296b7 f   libucrt:waccess.obj
 0001:00028775       __access_s                 00429775 f   libucrt:access.obj
 0001:00028878       __close_internal           00429878 f   libucrt:close.obj
 0001:0002891b       __close_nolock_internal    0042991b f   libucrt:close.obj
 0001:000289bb       ?__acrt_stdio_free_stream@@YAXV__crt_stdio_stream@@@Z 004299bb f   libucrt:stream.obj
 0001:00028a98       __commit                   00429a98 f   libucrt:commit.obj
 0001:000292b7       __write_internal           0042a2b7 f   libucrt:write.obj
 0001:000293c8       __write_nolock             0042a3c8 f   libucrt:write.obj
 0001:00029773       ___acrt_stdio_refill_and_read_narrow_nolock 0042a773 f   libucrt:_filbuf.obj
 0001:00029d75       __ftelli64                 0042ad75 f   libucrt:ftell.obj
 0001:00029dab       __ftelli64_nolock_internal 0042adab f   libucrt:ftell.obj
 0001:0002a003       ___acrt_stdio_flush_and_write_narrow_nolock 0042b003 f   libucrt:_flsbuf.obj
 0001:0002a4ea       __read                     0042b4ea f   libucrt:read.obj
 0001:0002a603       __read_nolock              0042b603 f   libucrt:read.obj
 0001:0002ab36       __lseeki64                 0042bb36 f   libucrt:lseek.obj
 0001:0002ab76       __lseeki64_internal        0042bb76 f   libucrt:lseek.obj
 0001:0002ab94       __lseeki64_nolock          0042bb94 f   libucrt:lseek.obj
 0001:0002abd4       __lseeki64_nolock_internal 0042bbd4 f   libucrt:lseek.obj
 0001:0002abf2       ___acrt_stdio_allocate_buffer_nolock 0042bbf2 f   libucrt:_getbuf.obj
 0001:0002aef1       _mbstowcs_s                0042bef1 f   libucrt:mbstowcs.obj
 0001:0002b2aa       __wcstombs_s_l             0042c2aa f   libucrt:wcstombs.obj
 0001:0002b3c7       ___acrt_GetLocaleInfoA     0042c3c7 f   libucrt:getlocaleinfoa.obj
 0001:0002b577       ___acrt_GetStringTypeA     0042c577 f   libucrt:getstringtypea.obj
 0001:0002b867       ___acrt_LCMapStringA       0042c867 f   libucrt:lcmapstringa.obj
 0001:0002b8b0       _wcscpy_s                  0042c8b0 f   libucrt:wcscpy_s.obj
 0001:0002b9e6       ___acrt_get_sigabrt_handler 0042c9e6 f   libucrt:signal.obj
 0001:0002ba0d       ___acrt_initialize_signal_handlers 0042ca0d f   libucrt:signal.obj
 0001:0002ba2b       _raise                     0042ca2b f   libucrt:signal.obj
 0001:0002bc1d       __errcode                  0042cc1d f   libucrt:fpexcept.obj
 0001:0002bc51       __except1                  0042cc51 f   libucrt:fpexcept.obj
 0001:0002bd1f       __handle_exc               0042cd1f f   libucrt:fpexcept.obj
 0001:0002bf9f       __raise_exc                0042cf9f f   libucrt:fpexcept.obj
 0001:0002bfc2       __raise_exc_ex             0042cfc2 f   libucrt:fpexcept.obj
 0001:0002c2b3       __set_errno_from_matherr   0042d2b3 f   libucrt:fpexcept.obj
 0001:0002c2e4       __umatherr                 0042d2e4 f   libucrt:fpexcept.obj
 0001:0002c384       __decomp                   0042d384 f   libucrt:util.obj
 0001:0002c456       __set_exp                  0042d456 f   libucrt:util.obj
 0001:0002c483       __sptype                   0042d483 f   libucrt:util.obj
 0001:0002c4e6       ___set_fpsr_sse2           0042d4e6 f   libucrt:fpctrl.obj
 0001:0002c566       __clrfp                    0042d566 f   libucrt:fpctrl.obj
 0001:0002c577       __ctrlfp                   0042d577 f   libucrt:fpctrl.obj
 0001:0002c5a1       __set_statfp               0042d5a1 f   libucrt:fpctrl.obj
 0001:0002c5fa       __statfp                   0042d5fa f   libucrt:fpctrl.obj
 0001:0002c60a       __realloc_base             0042d60a f   libucrt:realloc_base.obj
 0001:0002c673       _fegetround                0042d673 f   libucrt:fegetround.obj
 0001:0002c718       ___acrt_MultiByteToWideChar 0042d718 f   libucrt:multibytetowidechar.obj
 0001:0002c7d2       ___acrt_WideCharToMultiByte 0042d7d2 f   libucrt:widechartomultibyte.obj
 0001:0002c83e       ___ascii_wcsicmp           0042d83e f   libucrt:wcsicmp.obj
 0001:0002c87b       __towlower_internal        0042d87b f i libucrt:wcsicmp.obj
 0001:0002c8ba       __wcsicmp                  0042d8ba f   libucrt:wcsicmp.obj
 0001:0002c903       __wcsicmp_l                0042d903 f   libucrt:wcsicmp.obj
 0001:0002c9bb       ___acrt_app_verifier_enabled 0042d9bb f   libucrt:peb_access.obj
 0001:0002c9cd       ___acrt_is_secure_process  0042d9cd f   libucrt:peb_access.obj
 0001:0002c9e0       ___acrt_get_process_end_policy 0042d9e0 f   libucrt:win_policies.obj
 0001:0002ca1f       ??$__acrt_convert_wcs_mbs_cp@_WDV<lambda_28bda7af82a03b66c1cb3803a755f95d>@@U__crt_win32_buffer_internal_dynamic_resizing@@@@YAHQB_WAAV?$__crt_win32_buffer@DU__crt_win32_buffer_internal_dynamic_resizing@@@@ABV<lambda_28bda7af82a03b66c1cb3803a755f95d>@@I@Z 0042da1f f i libucrt:argv_wildcards.obj
 0001:0002cfbd       ?allocate@?$__crt_win32_buffer@DU__crt_win32_buffer_internal_dynamic_resizing@@@@QAEHI@Z 0042dfbd f i libucrt:argv_wildcards.obj
 0001:0002d080       ___acrt_expand_narrow_argv_wildcards 0042e080 f   libucrt:argv_wildcards.obj
 0001:0002d08b       ___acrt_GetModuleFileNameA 0042e08b f   libucrt:getmodulefilenamea.obj
 0001:0002d6a8       ___acrt_initialize_multibyte 0042e6a8 f   libucrt:mbctype.obj
 0001:0002d6f0       ___acrt_update_thread_multibyte_data 0042e6f0 f   libucrt:mbctype.obj
 0001:0002d703       __setmbcp_nolock           0042e703 f   libucrt:mbctype.obj
 0001:0002d958       __ismbblead                0042e958 f   libucrt:ismbbyte.obj
 0001:0002d9a7       ___dcrt_get_narrow_environment_from_os 0042e9a7 f   libucrt:get_environment_from_os.obj
 0001:0002ddc6       ___dcrt_set_variable_in_narrow_environment_nolock 0042edc6 f   libucrt:setenv.obj
 0001:0002ddd1       __recalloc_base            0042edd1 f   libucrt:recalloc.obj
 0001:0002de3e       ___acrt_initialize_heap    0042ee3e f   libucrt:heap_handle.obj
 0001:0002de4f       ___acrt_uninitialize_heap  0042ee4f f   libucrt:heap_handle.obj
 0001:0002de59       ___acrt_execute_initializers 0042ee59 f   libucrt:shared_initialization.obj
 0001:0002dec1       ___acrt_execute_uninitializers 0042eec1 f   libucrt:shared_initialization.obj
 0001:0002def2       _wcscat_s                  0042eef2 f   libucrt:wcscat_s.obj
 0001:0002e02f       _wcsncpy_s                 0042f02f f   libucrt:wcsncpy_s.obj
 0001:0002e03a       ___acrt_lowio_create_handle_array 0042f03a f   libucrt:osfinfo.obj
 0001:0002e0b5       ___acrt_lowio_destroy_handle_array 0042f0b5 f   libucrt:osfinfo.obj
 0001:0002e0ea       ___acrt_lowio_ensure_fh_exists 0042f0ea f   libucrt:osfinfo.obj
 0001:0002e188       ___acrt_lowio_lock_fh      0042f188 f   libucrt:osfinfo.obj
 0001:0002e1ab       ___acrt_lowio_unlock_fh    0042f1ab f   libucrt:osfinfo.obj
 0001:0002e1ce       __free_osfhnd              0042f1ce f   libucrt:osfinfo.obj
 0001:0002e25f       __get_osfhandle            0042f25f f   libucrt:osfinfo.obj
 0001:0002e2c9       ___acrt_initialize_fmode   0042f2c9 f   libucrt:txtmode.obj
 0001:0002e2df       ___acrt_locale_free_monetary 0042f2df f   libucrt:initmon.obj
 0001:0002e3dd       ___acrt_locale_initialize_monetary 0042f3dd f   libucrt:initmon.obj
 0001:0002e73e       ___acrt_locale_free_numeric 0042f73e f   libucrt:initnum.obj
 0001:0002e7a7       ___acrt_locale_initialize_numeric 0042f7a7 f   libucrt:initnum.obj
 0001:0002ec65       ___acrt_locale_free_time   0042fc65 f   libucrt:inittime.obj
 0001:0002ed49       ___acrt_locale_initialize_time 0042fd49 f   libucrt:inittime.obj
 0001:0002eeac       _wcsncat_s                 0042feac f   libucrt:wcsncat_s.obj
 0001:0002eeb7       _wcscspn                   0042feb7 f   libucrt:wcscspn.obj
 0001:0002ef10       _wcspbrk                   0042ff10 f   libucrt:wcspbrk.obj
 0001:0002ef5e       ___acrt_add_locale_ref     0042ff5e f   libucrt:locale_refcounting.obj
 0001:0002efdb       ___acrt_free_locale        0042ffdb f   libucrt:locale_refcounting.obj
 0001:0002f123       ___acrt_locale_add_lc_time_reference 00430123 f   libucrt:locale_refcounting.obj
 0001:0002f14c       ___acrt_locale_free_lc_time_if_unreferenced 0043014c f   libucrt:locale_refcounting.obj
 0001:0002f17d       ___acrt_locale_release_lc_time_reference 0043017d f   libucrt:locale_refcounting.obj
 0001:0002f1a6       ___acrt_release_locale_ref 004301a6 f   libucrt:locale_refcounting.obj
 0001:0002f227       ___acrt_update_thread_locale_data 00430227 f   libucrt:locale_refcounting.obj
 0001:0002f2a8       __updatetlocinfoEx_nolock  004302a8 f   libucrt:locale_refcounting.obj
 0001:0002f9ef       ___acrt_get_qualified_locale 004309ef f   libucrt:get_qualified_locale.obj
 0001:00030364       ___acrt_get_qualified_locale_downlevel 00431364 f   libucrt:getqloc_downlevel.obj
 0001:000305fb       __clearfp                  004315fb f   libucrt:ieee87.obj
 0001:000306d9       __control87                004316d9 f   libucrt:ieee87.obj
 0001:00030b29       ___acrt_fp_strflt_to_string 00431b29 f   libucrt:_fptostr.obj
 0001:00030c23       ___acrt_fltout             00431c23 f   libucrt:cfout.obj
 0001:0003220b       ?__c32rtomb_utf8@__crt_mbstring@@YAIPAD_UPAU_Mbstatet@@AAV__crt_cached_ptd_host@@@Z 0043320b f   libucrt:c32rtomb.obj
 0001:000322e7       ?__mbrtowc_utf8@__crt_mbstring@@YAIPA_WPBDIPAU_Mbstatet@@AAV__crt_cached_ptd_host@@@Z 004332e7 f   libucrt:mbrtowc.obj
 0001:0003232a       ?__mbsrtowcs_utf8@__crt_mbstring@@YAIPA_WPAPBDIPAU_Mbstatet@@AAV__crt_cached_ptd_host@@@Z 0043332a f   libucrt:mbrtowc.obj
 0001:00032432       __isatty                   00433432 f   libucrt:isatty.obj
 0001:000324d8       ___acrt_DownlevelLCIDToLocaleName 004334d8 f   libucrt:lcidtoname_downlevel.obj
 0001:0003257b       ___acrt_DownlevelLocaleNameToLCID 0043357b f   libucrt:lcidtoname_downlevel.obj
 0001:000325a7       ___acrt_GetStringTypeW     004335a7 f   libucrt:getstringtypew.obj
 0001:000325c0       __strnicoll                004335c0 f   libucrt:strnicol.obj
 0001:000325e9       __strnicoll_l              004335e9 f   libucrt:strnicol.obj
 0001:000326b1       _strcat_s                  004336b1 f   libucrt:strcat_s.obj
 0001:00032b2e       ___acrt_pack_narrow_command_line_and_environment 00433b2e f   libucrt:cenvarg.obj
 0001:00032b39       ___acrt_CreateProcessA     00433b39 f   libucrt:createprocessa.obj
 0001:00032ccf       ___acrt_getpath            00433ccf f   libucrt:getpath.obj
 0001:00032cda       __putwch_nolock            00433cda f   libucrt:putwch.obj
 0001:00032d0c       ?__wcsrtombs_utf8@__crt_mbstring@@YAIPADPAPB_WIPAU_Mbstatet@@AAV__crt_cached_ptd_host@@@Z 00433d0c f   libucrt:wcrtomb.obj
 0001:00032ed2       _strncpy_s                 00433ed2 f   libucrt:strncpy_s.obj
 0001:000331a6       ___acrt_fenv_get_common_round_control 004341a6 f   libucrt:_fenvutils.obj
 0001:000331c8       ___acrt_fenv_get_control   004341c8 f   libucrt:_fenvutils.obj
 0001:00033248       ___acrt_fenv_get_status    00434248 f   libucrt:_fenvutils.obj
 0001:000332f2       ___acrt_fenv_set_control   004342f2 f   libucrt:_fenvutils.obj
 0001:0003336d       ___acrt_fenv_set_status    0043436d f   libucrt:_fenvutils.obj
 0001:00033469       __towlower_l               00434469 f   libucrt:towlower.obj
 0001:00033540       _qsort                     00434540 f   libucrt:qsort.obj
 0001:00033a30       _strpbrk                   00434a30 f   libucrt:strpbrk.obj
 0001:00033a70       __mbsdec                   00434a70 f   libucrt:mbsdec.obj
 0001:00033a87       __mbsdec_l                 00434a87 f   libucrt:mbsdec.obj
 0001:00033b23       ___acrt_SetEnvironmentVariableA 00434b23 f   libucrt:setenvironmentvariablea.obj
 0001:00033bb8       __msize_base               00434bb8 f   libucrt:msize.obj
 0001:00033beb       ___ascii_wcsnicmp          00434beb f   libucrt:wcsnicmp.obj
 0001:00033c3a       __wcsnicmp                 00434c3a f   libucrt:wcsnicmp.obj
 0001:00033c86       __wcsnicmp_l               00434c86 f   libucrt:wcsnicmp.obj
 0001:00033d59       _fegetenv                  00434d59 f   libucrt:fegetenv.obj
 0001:00033d76       _fesetenv                  00434d76 f   libucrt:fesetenv.obj
 0001:00033dc2       _feholdexcept              00434dc2 f   libucrt:feholdexcept.obj
 0001:00033e10       __CIlog10                  00434e10 f   libucrt:log10_impl.obj
 0001:00033e4b       __CIlog10_default          00434e4b f   libucrt:log10_impl.obj
 0001:00033e5f       __log10_default            00434e5f     libucrt:log10_impl.obj
 0001:00033f20       _ceil                      00434f20 f   libucrt:ceil_pentium4.obj
 0001:00033f60       __ceil_pentium4            00434f60 f   libucrt:ceil_pentium4.obj
 0001:0003403d       ?reset_and_return@__crt_mbstring@@YAIIPAU_Mbstatet@@@Z 0043503d f   libucrt:common_utf8.obj
 0001:00034051       ?return_illegal_sequence@__crt_mbstring@@YAIPAU_Mbstatet@@AAV__crt_cached_ptd_host@@@Z 00435051 f   libucrt:common_utf8.obj
 0001:00034073       ?__mbrtoc32_utf8@__crt_mbstring@@YAIPA_UPBDIPAU_Mbstatet@@AAV__crt_cached_ptd_host@@@Z 00435073 f   libucrt:mbrtoc32.obj
 0001:00034224       __strnicmp                 00435224 f   libucrt:strnicmp.obj
 0001:00034291       __strnicmp_l               00435291 f   libucrt:strnicmp.obj
 0001:000345fb       ___acrt_CompareStringA     004355fb f   libucrt:comparestringa.obj
 0001:00034660       ___dcrt_lowio_ensure_console_output_initialized 00435660 f   libucrt:initcon.obj
 0001:0003467f       ___dcrt_terminate_console_output 0043567f f   libucrt:initcon.obj
 0001:00034696       ___dcrt_write_console      00435696 f   libucrt:initcon.obj
 0001:000346eb       ?__c16rtomb_utf8@__crt_mbstring@@YAIPAD_SPAU_Mbstatet@@AAV__crt_cached_ptd_host@@@Z 004356eb f   libucrt:c16rtomb.obj
 0001:00034795       ___acrt_LCMapStringW       00435795 f   libucrt:lcmapstringw.obj
 0001:000347d3       ___acrt_initialize_sse2    004357d3 f   libucrt:mathfcns.obj
 0001:000347f0       __CIlog10_pentium4         004357f0 f   libucrt:log10_pentium4.obj
 0001:00034808       __log10_pentium4           00435808     libucrt:log10_pentium4.obj
 0001:00034aa0       __fFEXP                    00435aa0 f   libucrt:87tran.obj
 0001:00034af7       __rtinfpopse               00435af7     libucrt:87tran.obj
 0001:00034af9       __rtinfnpopse              00435af9     libucrt:87tran.obj
 0001:00034b09       __fFLN                     00435b09     libucrt:87tran.obj
 0001:00034bbe       __rtinfpop                 00435bbe     libucrt:87tran.obj
 0001:00034bc0       __rtinfnpop                00435bc0     libucrt:87tran.obj
 0001:00034bd0       __rtforexpinf              00435bd0 f   libucrt:87tran.obj
 0001:00034bdd       __ffexpm1                  00435bdd     libucrt:87tran.obj
 0001:00034c90       __trandisp1                00435c90 f   libucrt:87disp.obj
 0001:00034d05       __trandisp2                00435d05 f   libucrt:87disp.obj
 0001:00034d9f       __rttospopde               00435d9f     libucrt:87disp.obj
 0001:00034da4       __rttospop                 00435da4     libucrt:87disp.obj
 0001:00034db0       __rtnospop                 00435db0 f   libucrt:87disp.obj
 0001:00034dc0       __rttosnpop                00435dc0 f   libucrt:87disp.obj
 0001:00034dc1       __rtnospopde               00435dc1     libucrt:87disp.obj
 0001:00034dc8       __rtzeropop                00435dc8     libucrt:87disp.obj
 0001:00034dca       __rtzeronpop               00435dca     libucrt:87disp.obj
 0001:00034dd0       __rtzerospop               00435dd0 f   libucrt:87disp.obj
 0001:00034ddd       __rtonepop                 00435ddd     libucrt:87disp.obj
 0001:00034de0       __rtonenpop                00435de0 f   libucrt:87disp.obj
 0001:00034df0       __tosnan1                  00435df0 f   libucrt:87disp.obj
 0001:00034e20       __nosnan2                  00435e20 f   libucrt:87disp.obj
 0001:00034e30       __tosnan2                  00435e30 f   libucrt:87disp.obj
 0001:00034e60       __nan2                     00435e60 f   libucrt:87disp.obj
 0001:00034ea0       __rtindfpop                00435ea0 f   libucrt:87disp.obj
 0001:00034ea2       __rtindfnpop               00435ea2     libucrt:87disp.obj
 0001:00034eb3       __rttosnpopde              00435eb3     libucrt:87disp.obj
 0001:00034ec0       __rtatan2inf               00435ec0 f   libucrt:87disp.obj
 0001:00034edd       __rtchsifneg               00435edd     libucrt:87disp.obj
 0001:00034ef0       __twoToTOS                 00435ef0 f   libucrt:common.obj
 0001:00034f05       __load_CW                  00435f05 f   libucrt:common.obj
 0001:00034f1c       __convertTOStoQNaN         00435f1c f   libucrt:common.obj
 0001:00034f35       __fload_withFB             00435f35 f   libucrt:common.obj
 0001:00034f78       __checkTOS_withFB          00435f78 f   libucrt:common.obj
 0001:00034f8e       __fast_exit                00435f8e f   libucrt:common.obj
 0001:00034f9b       __math_exit                00435f9b f   libucrt:common.obj
 0001:00034fc5       __check_overflow_exit      00435fc5 f   libucrt:common.obj
 0001:00034fd9       __check_range_exit         00435fd9 f   libucrt:common.obj
 0001:00035080       __startTwoArgErrorHandling 00436080 f   libucrt:genexcep.obj
 0001:00035097       __startOneArgErrorHandling 00436097 f   libucrt:genexcep.obj
 0001:000350d3       ___libm_error_support      004360d3 f   libucrt:libm_error.obj
 0001:000352c7       __ceil_default             004362c7 f   libucrt:ceil.obj
 0001:00035390       ___ascii_strnicmp          00436390 f   libucrt:_strnicm.obj
 0001:000353f1       __d_inttype                004363f1 f   libucrt:powhlp.obj
 0001:00035459       __powhlp                   00436459 f   libucrt:powhlp.obj
 0001:00035584       __87except                 00436584 f   libucrt:87except.obj
 0001:00035694       __frnd                     00436694 f   libucrt:frnd.obj
 0001:000356a8       __fpclass                  004366a8 f   libucrt:ieeemisc.obj
 0001:0003574c       @_guard_check_icall@4      0043674c f i LIBCMT:checkcfg.obj
 0001:00035760       __FindPESection            00436760 f   LIBCMT:pesect.obj
 0001:000357b0       __IsNonwritableInCurrentImage 004367b0 f   LIBCMT:pesect.obj
 0001:00035870       __ValidateImageBase        00436870 f   LIBCMT:pesect.obj
 0001:000358b0       __aullrem                  004368b0 f   LIBCMT:ullrem.obj
 0001:00035930       __alldiv                   00436930 f   LIBCMT:lldiv.obj
 0001:000359e0       __allrem                   004369e0 f   LIBCMT:llrem.obj
 0001:00035aa0       __allshl                   00436aa0 f   LIBCMT:llshl.obj
 0001:00035ac0       __aullshr                  00436ac0 f   LIBCMT:ullshr.obj
 0001:00035ae0       __ftol2_sse                00436ae0 f   LIBCMT:ftol2.obj
 0001:00035af0       __ftoi2                    00436af0 f   LIBCMT:ftol2.obj
 0001:00035b70       _strrchr                   00436b70 f   libvcruntime:strrchr.obj
 0001:00035cb0       _strchr                    00436cb0 f   libvcruntime:strchr.obj
 0001:00035d1e       ___from_strstr_to_strchr   00436d1e     libvcruntime:strchr.obj
 0001:00035ddb       _wcschr                    00436ddb f   libvcruntime:wcschr.obj
 0001:00035e8a       __filter_x86_sse2_floating_point_exception 00436e8a f   LIBCMT:x86_exception_filter.obj
 0001:00035e8a       __filter_x86_sse2_floating_point_exception_default 00436e8a f   LIBCMT:x86_exception_filter.obj
 0002:00000000       __imp__BT_SetReportFilePath@4 00438000     BugTrap:BugTrap.dll
 0002:00000004       __imp__BT_SetFlags@4       00438004     BugTrap:BugTrap.dll
 0002:00000008       __imp__BT_SetAppName@4     00438008     BugTrap:BugTrap.dll
 0002:0000000c       __imp__BT_InstallSehFilter@0 0043800c     BugTrap:BugTrap.dll
 0002:00000010       \177BugTrap_NULL_THUNK_DATA 00438010     BugTrap:BugTrap.dll
 0002:00000014       __imp__GetStockObject@4    00438014     gdi32:GDI32.dll
 0002:00000018       \177GDI32_NULL_THUNK_DATA  00438018     gdi32:GDI32.dll
 0002:0000001c       __imp__FreeEnvironmentStringsW@4 0043801c     kernel32:KERNEL32.dll
 0002:00000020       __imp__GetEnvironmentStringsW@0 00438020     kernel32:KERNEL32.dll
 0002:00000024       __imp__GetOEMCP@0          00438024     kernel32:KERNEL32.dll
 0002:00000028       __imp__GetACP@0            00438028     kernel32:KERNEL32.dll
 0002:0000002c       __imp__IsValidCodePage@4   0043802c     kernel32:KERNEL32.dll
 0002:00000030       __imp__FindNextFileW@8     00438030     kernel32:KERNEL32.dll
 0002:00000034       __imp__FindFirstFileExW@24 00438034     kernel32:KERNEL32.dll
 0002:00000038       __imp__FindClose@4         00438038     kernel32:KERNEL32.dll
 0002:0000003c       __imp__HeapReAlloc@16      0043803c     kernel32:KERNEL32.dll
 0002:00000040       __imp__Sleep@4             00438040     kernel32:KERNEL32.dll
 0002:00000044       __imp__CreateFileA@28      00438044     kernel32:KERNEL32.dll
 0002:00000048       __imp__WriteFile@20        00438048     kernel32:KERNEL32.dll
 0002:0000004c       __imp__CloseHandle@4       0043804c     kernel32:KERNEL32.dll
 0002:00000050       __imp__InitializeCriticalSection@4 00438050     kernel32:KERNEL32.dll
 0002:00000054       __imp__EnterCriticalSection@4 00438054     kernel32:KERNEL32.dll
 0002:00000058       __imp__LeaveCriticalSection@4 00438058     kernel32:KERNEL32.dll
 0002:0000005c       __imp__DeleteCriticalSection@4 0043805c     kernel32:KERNEL32.dll
 0002:00000060       __imp__GetTickCount@0      00438060     kernel32:KERNEL32.dll
 0002:00000064       __imp__SetEnvironmentVariableW@8 00438064     kernel32:KERNEL32.dll
 0002:00000068       __imp__SetConsoleTitleA@4  00438068     kernel32:KERNEL32.dll
 0002:0000006c       __imp__ReadFile@20         0043806c     kernel32:KERNEL32.dll
 0002:00000070       __imp__WaitForSingleObject@8 00438070     kernel32:KERNEL32.dll
 0002:00000074       __imp__CreateEventA@16     00438074     kernel32:KERNEL32.dll
 0002:00000078       __imp__CreateThread@24     00438078     kernel32:KERNEL32.dll
 0002:0000007c       __imp__IsDBCSLeadByte@4    0043807c     kernel32:KERNEL32.dll
 0002:00000080       __imp__ReadConsoleW@20     00438080     kernel32:KERNEL32.dll
 0002:00000084       __imp__SetFilePointerEx@20 00438084     kernel32:KERNEL32.dll
 0002:00000088       __imp__GetFileSizeEx@8     00438088     kernel32:KERNEL32.dll
 0002:0000008c       __imp__GetConsoleMode@8    0043808c     kernel32:KERNEL32.dll
 0002:00000090       __imp__GetConsoleOutputCP@0 00438090     kernel32:KERNEL32.dll
 0002:00000094       __imp__FlushFileBuffers@4  00438094     kernel32:KERNEL32.dll
 0002:00000098       __imp__GetFileAttributesExW@12 00438098     kernel32:KERNEL32.dll
 0002:0000009c       __imp__CreateProcessW@40   0043809c     kernel32:KERNEL32.dll
 0002:000000a0       __imp__GetExitCodeProcess@8 004380a0     kernel32:KERNEL32.dll
 0002:000000a4       __imp__EnumSystemLocalesW@8 004380a4     kernel32:KERNEL32.dll
 0002:000000a8       __imp__GetProcessHeap@0    004380a8     kernel32:KERNEL32.dll
 0002:000000ac       __imp__SetStdHandle@8      004380ac     kernel32:KERNEL32.dll
 0002:000000b0       __imp__HeapSize@12         004380b0     kernel32:KERNEL32.dll
 0002:000000b4       __imp__CreateFileW@28      004380b4     kernel32:KERNEL32.dll
 0002:000000b8       __imp__GlobalAlloc@8       004380b8     kernel32:KERNEL32.dll
 0002:000000bc       __imp__GetUserDefaultLCID@0 004380bc     kernel32:KERNEL32.dll
 0002:000000c0       __imp__IsValidLocale@8     004380c0     kernel32:KERNEL32.dll
 0002:000000c4       __imp__GetLocaleInfoW@16   004380c4     kernel32:KERNEL32.dll
 0002:000000c8       __imp__LCMapStringW@24     004380c8     kernel32:KERNEL32.dll
 0002:000000cc       __imp__CompareStringW@24   004380cc     kernel32:KERNEL32.dll
 0002:000000d0       __imp__GetFileType@4       004380d0     kernel32:KERNEL32.dll
 0002:000000d4       __imp__HeapAlloc@12        004380d4     kernel32:KERNEL32.dll
 0002:000000d8       __imp__HeapFree@12         004380d8     kernel32:KERNEL32.dll
 0002:000000dc       __imp__GetCommandLineW@0   004380dc     kernel32:KERNEL32.dll
 0002:000000e0       __imp__GetCommandLineA@0   004380e0     kernel32:KERNEL32.dll
 0002:000000e4       __imp__GetStdHandle@4      004380e4     kernel32:KERNEL32.dll
 0002:000000e8       __imp__EncodePointer@4     004380e8     kernel32:KERNEL32.dll
 0002:000000ec       __imp__DecodePointer@4     004380ec     kernel32:KERNEL32.dll
 0002:000000f0       __imp__InitializeCriticalSectionEx@12 004380f0     kernel32:KERNEL32.dll
 0002:000000f4       __imp__MultiByteToWideChar@24 004380f4     kernel32:KERNEL32.dll
 0002:000000f8       __imp__WideCharToMultiByte@32 004380f8     kernel32:KERNEL32.dll
 0002:000000fc       __imp__LCMapStringEx@36    004380fc     kernel32:KERNEL32.dll
 0002:00000100       __imp__GetStringTypeW@16   00438100     kernel32:KERNEL32.dll
 0002:00000104       __imp__WriteConsoleW@20    00438104     kernel32:KERNEL32.dll
 0002:00000108       __imp__GetCPInfo@8         00438108     kernel32:KERNEL32.dll
 0002:0000010c       __imp__UnhandledExceptionFilter@4 0043810c     kernel32:KERNEL32.dll
 0002:00000110       __imp__SetUnhandledExceptionFilter@4 00438110     kernel32:KERNEL32.dll
 0002:00000114       __imp__GetCurrentProcess@0 00438114     kernel32:KERNEL32.dll
 0002:00000118       __imp__TerminateProcess@8  00438118     kernel32:KERNEL32.dll
 0002:0000011c       __imp__IsProcessorFeaturePresent@4 0043811c     kernel32:KERNEL32.dll
 0002:00000120       __imp__ReleaseSRWLockExclusive@4 00438120     kernel32:KERNEL32.dll
 0002:00000124       __imp__AcquireSRWLockExclusive@4 00438124     kernel32:KERNEL32.dll
 0002:00000128       __imp__WakeAllConditionVariable@4 00438128     kernel32:KERNEL32.dll
 0002:0000012c       __imp__SleepConditionVariableSRW@16 0043812c     kernel32:KERNEL32.dll
 0002:00000130       __imp__IsDebuggerPresent@0 00438130     kernel32:KERNEL32.dll
 0002:00000134       __imp__GetStartupInfoW@4   00438134     kernel32:KERNEL32.dll
 0002:00000138       __imp__GetModuleHandleW@4  00438138     kernel32:KERNEL32.dll
 0002:0000013c       __imp__QueryPerformanceCounter@4 0043813c     kernel32:KERNEL32.dll
 0002:00000140       __imp__GetCurrentProcessId@0 00438140     kernel32:KERNEL32.dll
 0002:00000144       __imp__GetCurrentThreadId@0 00438144     kernel32:KERNEL32.dll
 0002:00000148       __imp__GetSystemTimeAsFileTime@4 00438148     kernel32:KERNEL32.dll
 0002:0000014c       __imp__InitializeSListHead@4 0043814c     kernel32:KERNEL32.dll
 0002:00000150       __imp__RaiseException@16   00438150     kernel32:KERNEL32.dll
 0002:00000154       __imp__RtlUnwind@16        00438154     kernel32:KERNEL32.dll
 0002:00000158       __imp__GetLastError@0      00438158     kernel32:KERNEL32.dll
 0002:0000015c       __imp__SetLastError@4      0043815c     kernel32:KERNEL32.dll
 0002:00000160       __imp__InitializeCriticalSectionAndSpinCount@8 00438160     kernel32:KERNEL32.dll
 0002:00000164       __imp__TlsAlloc@0          00438164     kernel32:KERNEL32.dll
 0002:00000168       __imp__TlsGetValue@4       00438168     kernel32:KERNEL32.dll
 0002:0000016c       __imp__TlsSetValue@8       0043816c     kernel32:KERNEL32.dll
 0002:00000170       __imp__TlsFree@4           00438170     kernel32:KERNEL32.dll
 0002:00000174       __imp__FreeLibrary@4       00438174     kernel32:KERNEL32.dll
 0002:00000178       __imp__GetProcAddress@8    00438178     kernel32:KERNEL32.dll
 0002:0000017c       __imp__LoadLibraryExW@12   0043817c     kernel32:KERNEL32.dll
 0002:00000180       __imp__GetLocalTime@4      00438180     kernel32:KERNEL32.dll
 0002:00000184       __imp__ExitProcess@4       00438184     kernel32:KERNEL32.dll
 0002:00000188       __imp__GetModuleHandleExW@12 00438188     kernel32:KERNEL32.dll
 0002:0000018c       __imp__GetModuleFileNameW@12 0043818c     kernel32:KERNEL32.dll
 0002:00000190       \177KERNEL32_NULL_THUNK_DATA 00438190     kernel32:KERNEL32.dll
 0002:00000194       __imp__SetTimer@16         00438194     user32:USER32.dll
 0002:00000198       __imp__GetMessageA@16      00438198     user32:USER32.dll
 0002:0000019c       __imp__DispatchMessageA@4  0043819c     user32:USER32.dll
 0002:000001a0       __imp__DefWindowProcA@16   004381a0     user32:USER32.dll
 0002:000001a4       __imp__RegisterClassExA@4  004381a4     user32:USER32.dll
 0002:000001a8       __imp__CreateWindowExA@48  004381a8     user32:USER32.dll
 0002:000001ac       __imp__LoadCursorA@8       004381ac     user32:USER32.dll
 0002:000001b0       __imp__LoadIconA@8         004381b0     user32:USER32.dll
 0002:000001b4       __imp__PostQuitMessage@4   004381b4     user32:USER32.dll
 0002:000001b8       \177USER32_NULL_THUNK_DATA 004381b8     user32:USER32.dll
 0002:000001bc       __imp__htonl@4             004381bc     WS2_32:WS2_32.dll
 0002:000001c0       __imp__listen@8            004381c0     WS2_32:WS2_32.dll
 0002:000001c4       __imp__bind@12             004381c4     WS2_32:WS2_32.dll
 0002:000001c8       __imp__accept@12           004381c8     WS2_32:WS2_32.dll
 0002:000001cc       __imp__htons@4             004381cc     WS2_32:WS2_32.dll
 0002:000001d0       __imp__inet_ntoa@4         004381d0     WS2_32:WS2_32.dll
 0002:000001d4       __imp__recv@16             004381d4     WS2_32:WS2_32.dll
 0002:000001d8       __imp__socket@12           004381d8     WS2_32:WS2_32.dll
 0002:000001dc       __imp__WSAStartup@8        004381dc     WS2_32:WS2_32.dll
 0002:000001e0       __imp__WSAGetLastError@0   004381e0     WS2_32:WS2_32.dll
 0002:000001e4       __imp__send@16             004381e4     WS2_32:WS2_32.dll
 0002:000001e8       __imp__WSAAsyncSelect@16   004381e8     WS2_32:WS2_32.dll
 0002:000001ec       __imp____WSAFDIsSet@8      004381ec     WS2_32:WS2_32.dll
 0002:000001f0       __imp__select@20           004381f0     WS2_32:WS2_32.dll
 0002:000001f4       __imp__closesocket@4       004381f4     WS2_32:WS2_32.dll
 0002:000001f8       \177WS2_32_NULL_THUNK_DATA 004381f8     WS2_32:WS2_32.dll
 0002:000001fc       __imp__mysql_query@8       004381fc     libmysql:libmysql.dll
 0002:00000200       __imp__mysql_close@4       00438200     libmysql:libmysql.dll
 0002:00000204       __imp__mysql_autocommit@8  00438204     libmysql:libmysql.dll
 0002:00000208       __imp__mysql_fetch_row@4   00438208     libmysql:libmysql.dll
 0002:0000020c       __imp__mysql_free_result@4 0043820c     libmysql:libmysql.dll
 0002:00000210       __imp__mysql_ping@4        00438210     libmysql:libmysql.dll
 0002:00000214       __imp__mysql_use_result@4  00438214     libmysql:libmysql.dll
 0002:00000218       __imp__mysql_real_connect@32 00438218     libmysql:libmysql.dll
 0002:0000021c       __imp__mysql_init@4        0043821c     libmysql:libmysql.dll
 0002:00000220       __imp__mysql_error@4       00438220     libmysql:libmysql.dll
 0002:00000224       __imp__mysql_errno@4       00438224     libmysql:libmysql.dll
 0002:00000228       \177libmysql_NULL_THUNK_DATA 00438228     libmysql:libmysql.dll
 0002:0000022c       ___guard_check_icall_fptr  0043822c     LIBCMT:guard_support.obj
 0002:00000230       ___castguard_check_failure_os_handled_fptr 00438230     LIBCMT:guard_support.obj
 0002:00000234       ___xc_a                    00438234     LIBCMT:initializers.obj
 0002:00000264       ___xc_z                    00438264     LIBCMT:initializers.obj
 0002:00000268       ___xi_a                    00438268     LIBCMT:initializers.obj
 0002:00000274       ___acrt_stdio_initializer  00438274     libucrt:stdio_initializer.obj
 0002:00000278       ___acrt_timeset_initializer 00438278     libucrt:timeset_initializer.obj
 0002:0000027c       ___acrt_multibyte_initializer 0043827c     libucrt:multibyte_initializer.obj
 0002:00000280       ___acrt_fmode_initializer  00438280     libucrt:fmode_initializer.obj
 0002:00000284       ___acrt_tran_sse2_initializer 00438284     libucrt:sse2_initializer.obj
 0002:00000288       ___xi_z                    00438288     LIBCMT:initializers.obj
 0002:0000028c       ___xl_a                    0043828c     LIBCMT:tlssup.obj
 0002:00000290       ___xl_z                    00438290     LIBCMT:tlssup.obj
 0002:00000294       ___xp_a                    00438294     LIBCMT:initializers.obj
 0002:00000298       ___acrt_locale_terminator  00438298     libucrt:locale_initializer.obj
 0002:0000029c       ___dcrt_console_output_terminator 0043829c     libucrt:console_output_initializer.obj
 0002:000002a0       ___acrt_stdio_terminator   004382a0     libucrt:stdio_initializer.obj
 0002:000002a4       ___xp_z                    004382a4     LIBCMT:initializers.obj
 0002:000002a8       ___xt_a                    004382a8     LIBCMT:initializers.obj
 0002:000002ac       ___xt_z                    004382ac     LIBCMT:initializers.obj
 0002:000002c8       ??_7exception@std@@6B@     004382c8     cts_mysql.obj
 0002:000002d0       ??_C@_0BC@EOODALEL@Unknown?5exception@ 004382d0     cts_mysql.obj
 0002:000002e8       ??_7bad_alloc@std@@6B@     004382e8     cts_mysql.obj
 0002:000002f4       ??_7bad_array_new_length@std@@6B@ 004382f4     cts_mysql.obj
 0002:000002fc       ??_C@_0BF@KINCDENJ@bad?5array?5new?5length@ 004382fc     cts_mysql.obj
 0002:00000314       ??_C@_0BA@JFNIOLAK@string?5too?5long@ 00438314     cts_mysql.obj
 0002:00000324       ??_C@_0BC@CCEPMHOK@CMySQL?3?3Reconnect@ 00438324     cts_mysql.obj
 0002:00000338       ??_C@_0BK@EIHHCDEL@?$CB?$FL?$CFs?$FN?5Mysql?5reconnect?$CI?$CFs?$CJ@ 00438338     cts_mysql.obj
 0002:00000354       ??_C@_0BP@HBHNFDED@?$CB?$FL?$CFs?$FN?5Mysql?5reconnect?5fail?$CI?$CFs?$CJ@ 00438354     cts_mysql.obj
 0002:00000374       ??_C@_0CP@POAPEBME@?$CBReconnect?5to?5the?5database?5fail@ 00438374     cts_mysql.obj
 0002:000003a4       ??_C@_02GIPFHKNO@OK@       004383a4     cts_mysql.obj
 0002:000003ac       ??_7runtime_error@std@@6B@ 004383ac     TimeLog.obj
 0002:000003b8       ??_7_System_error@std@@6B@ 004383b8     TimeLog.obj
 0002:000003c0       ??_C@_02LMMGGCAJ@?3?5@     004383c0     TimeLog.obj
 0002:000003c8       ??_7system_error@std@@6B@  004383c8     TimeLog.obj
 0002:000003d4       ??_7_Iostream_error_category2@std@@6B@ 004383d4     TimeLog.obj
 0002:000003ec       ??_C@_08LLGCOLLL@iostream@ 004383ec     TimeLog.obj
 0002:000003f8       ?_Iostream_error@?4??message@_Iostream_error_category2@std@@UBE?AV?$basic_string@DU?$char_traits@D@std@@V?$allocator@D@2@@3@H@Z@4QBDB 004383f8     TimeLog.obj
 0002:00000414       ??_7failure@ios_base@std@@6B@ 00438414     TimeLog.obj
 0002:0000041c       ??_C@_0BF@PHHKMMFD@ios_base?3?3badbit?5set@ 0043841c     TimeLog.obj
 0002:00000434       ??_C@_0BG@FMKFHCIL@ios_base?3?3failbit?5set@ 00438434     TimeLog.obj
 0002:0000044c       ??_C@_0BF@OOHOMBOF@ios_base?3?3eofbit?5set@ 0043844c     TimeLog.obj
 0002:00000464       ??_C@_01JOAMLHOP@?9@       00438464     TimeLog.obj
 0002:00000468       ??_C@_0P@MIKAINMO@?$LP?M?$LL?$KH?$LN?x?H?k?3?$CFs?3?$CFd@ 00438468     S02_MyServer.obj
 0002:00000478       ??_C@_0BM@CNCGPIDP@MyServer?3?3PROCESS_FOR_TIMER@ 00438478     S02_MyServer.obj
 0002:00000494       ??_C@_0P@KCIEBGF@?$CB?$FL?$CFs?$FN?5?3?5?$CFu?5?$CFu?6@ 00438494     S02_MyServer.obj
 0002:000004a4       ??_C@_0BG@GDGCIGNM@Current?5user?5num?5?3?5?$CFd@ 004384a4     S02_MyServer.obj
 0002:000004c0       ??_C@_0EM@BKHOAGOD@?$FLABNORMAL_FREE?9?$CI?$CFd?$CJ?$FN?3?3?$FLSERVER_I@ 004384c0     S03_MyUser.obj
 0002:0000050c       ??_C@_0N@KDOKMKGJ@MyUser?3?3Quit@ 0043850c     S03_MyUser.obj
 0002:0000051c       ??_C@_0BD@CCFOLCGB@?$CB?$FL?$CFs?$FN?5?3?5error?$CI?$CFs?$CJ?6@ 0043851c     S03_MyUser.obj
 0002:00000531       ??_C@_00CNPNBAHC@@         00438531     S04_MyWork02.obj
 0002:00000538       ??_C@_0BB@GCADKGJO@map?1set?5too?5long@ 00438538     S07_MyGame01.obj
 0002:0000054c       ??_C@_0CF@BJMOBEPN@?$FLError?3?3?$CI?5?$CBLoadForTribeBankInfo@ 0043854c     S07_MyGame01.obj
 0002:00000574       ??_C@_0N@GMAFHAEB@MyGame?3?3Init@ 00438574     S07_MyGame01.obj
 0002:00000584       ??_C@_0M@GCHBHGCI@?$CB?$FL?$CFs?$FN?5?3?5?$CFs?6@ 00438584     S07_MyGame01.obj
 0002:00000590       ??_C@_0BE@PCNGCEBF@TRIBE_BANK_INFO?4DAT@ 00438590     S07_MyGame01.obj
 0002:000005a4       ??_C@_06NMFKNBNL@?$CFd?3?$CFd?$HM@ 004385a4     S07_MyGame01.obj
 0002:000005ac       ??_C@_0BP@HKOPPCGE@MyGame?3?3RegisterUserForZone_00@ 004385ac     S07_MyGame01.obj
 0002:000005cc       ??_C@_0CM@EGAOOBLE@?$CB?$FL?$CFs?$FN?5?3?5index01?$CI?$CFd?$CJ?0?5MAX_PLAY_U@ 004385cc     S07_MyGame01.obj
 0002:000005f8       ??_C@_0CE@CKMHNLFE@?$CB?$FL?$CFs?$FN?5?3?5mRegisterSort?$FLindex01?$FN?$CI@ 004385f8     S07_MyGame01.obj
 0002:0000061c       ??_C@_0BJ@LHLKFNBM@?$CBfail?5name?3?$CFs?0?5guild?3?$CFs?6@ 0043861c     S07_MyGame01.obj
 0002:00000640       __xmm@ffffffffffffffffffffffffffffffff 00438640     S07_MyGame01.obj
 0002:00000654       ??_C@_0L@LDMKCIEH@ts2_gamedb@ 00438654     S08_MyDB.obj
 0002:00000660       ??_C@_0BO@PLEIBDDI@MyDB?3?3RECONNECT_TO_DATABASE01@ 00438660     S08_MyDB.obj
 0002:00000680       ??_C@_0BK@CCOAMMEI@?$CB?$FL?$CFs?$FN?5?3?5reconnect?5failed?6@ 00438680     S08_MyDB.obj
 0002:0000069c       ??_C@_0BF@HDCJHPFG@?$CB?$FL?$CFs?$FN?5?3?5reconnected?6@ 0043869c     S08_MyDB.obj
 0002:000006b4       ??_C@_0CJ@GJLPOHCA@MyDB?3?3RECONNECT_TO_DATABASE01_F@ 004386b4     S08_MyDB.obj
 0002:000006e0       ??_C@_0BO@NAGFEAPL@MyDB?3?3RECONNECT_TO_DATABASE02@ 004386e0     S08_MyDB.obj
 0002:00000700       ??_C@_0CJ@NEHFILOO@MyDB?3?3RECONNECT_TO_DATABASE02_F@ 00438700     S08_MyDB.obj
 0002:0000072c       ??_C@_0BB@JFHOLGEI@?$CF05d?$CF03d?$CF09d?$CF08d@ 0043872c     S08_MyDB.obj
 0002:00000740       ??_C@_0N@PBMMLHDJ@?$CF09d?$CF09d?$CF09d@ 00438740     S08_MyDB.obj
 0002:00000750       ??_C@_0HA@EJPHIPPB@update?5?$CFs?5set?5uSaveMoney?$DN?$CFd?0uSa@ 00438750     S08_MyDB.obj
 0002:000007c0       ??_C@_0BJ@DINJFBCD@?$CF05d?$CF01d?$CF01d?$CF03d?$CF09d?$CF08d@ 004387c0     S08_MyDB.obj
 0002:000007dc       ??_C@_08IAAFCAPM@?$CF03d?$CF03d@ 004387dc     S08_MyDB.obj
 0002:000007e8       ??_C@_0N@FDPDJFFB@?$CF05d?$CF03d?$CF02d@ 004387e8     S08_MyDB.obj
 0002:000007f8       ??_C@_0BF@DNKGDHDL@?$CF05d?$CF05d?$CF05d?$CF05d?$CF05d@ 004387f8     S08_MyDB.obj
 0002:00000810       ??_C@_04OKPMCAIL@?$CF09d@  00438810     S08_MyDB.obj
 0002:00000818       ??_C@_04OBKAGHLG@?$CF06d@  00438818     S08_MyDB.obj
 0002:00000820       ??_C@_0BEF@FCLEPPCK@?$CF03d?$CF03d?$CF03d?$CF03d?$CF03d?$CF03d?$CF03d?$CF03@ 00438820     S08_MyDB.obj
 0002:00000968       ??_C@_0BH@GNAGMOAM@UPDATE?5AvatarInfo?5SET?5@ 00438968     S08_MyDB.obj
 0002:00000980       ??_C@_0BF@ODOLMOKL@aVisibleState?5?$DN?5?$CFd?0?5@ 00438980     S08_MyDB.obj
 0002:00000998       ??_C@_0BF@BPBACBFG@aSpecialState?5?$DN?5?$CFd?0?5@ 00438998     S08_MyDB.obj
 0002:000009b0       ??_C@_0BC@DMCBANNL@aPlayTime1?5?$DN?5?$CFd?0?5@ 004389b0     S08_MyDB.obj
 0002:000009c4       ??_C@_0BC@FKMDBBO@aPlayTime2?5?$DN?5?$CFd?0?5@ 004389c4     S08_MyDB.obj
 0002:000009d8       ??_C@_0BH@FJEBIILD@aKillOtherTribe?5?$DN?5?$CFd?0?5@ 004389d8     S08_MyDB.obj
 0002:000009f0       ??_C@_0BD@GKDHNHDL@aworldnumber?5?$DN?51?0?5@ 004389f0     S08_MyDB.obj
 0002:00000a04       ??_C@_0P@OLKNHAP@aName?5?$DN?5?8?$CFs?8?0?5@ 00438a04     S08_MyDB.obj
 0002:00000a14       ??_C@_0O@PIHDOKAE@aTribe?5?$DN?5?$CFd?0?5@ 00438a14     S08_MyDB.obj
 0002:00000a24       ??_C@_0BG@OLPMBPIN@aPreviousTribe?5?$DN?5?$CFd?0?5@ 00438a24     S08_MyDB.obj
 0002:00000a3c       ??_C@_0P@CGMNAFA@aGender?5?$DN?5?$CFd?0?5@ 00438a3c     S08_MyDB.obj
 0002:00000a4c       ??_C@_0BB@EFGIGKMH@aHeadType?5?$DN?5?$CFd?0?5@ 00438a4c     S08_MyDB.obj
 0002:00000a60       ??_C@_0BB@NDGOOECH@aFaceType?5?$DN?5?$CFd?0?5@ 00438a60     S08_MyDB.obj
 0002:00000a74       ??_C@_0P@JNMELLHH@aLevel1?5?$DN?5?$CFd?0?5@ 00438a74     S08_MyDB.obj
 0002:00000a84       ??_C@_0P@KEEJIHLC@aLevel2?5?$DN?5?$CFd?0?5@ 00438a84     S08_MyDB.obj
 0002:00000a94       ??_C@_0BL@CHBGDHO@aGeneralExperience1?5?$DN?5?$CFd?0?5@ 00438a94     S08_MyDB.obj
 0002:00000ab0       ??_C@_0BL@DLPMFPLL@aGeneralExperience2?5?$DN?5?$CFd?0?5@ 00438ab0     S08_MyDB.obj
 0002:00000acc       ??_C@_0BB@MGMKHPCK@aVitality?5?$DN?5?$CFd?0?5@ 00438acc     S08_MyDB.obj
 0002:00000ae0       ??_C@_0BB@DJHCINPE@aStrength?5?$DN?5?$CFd?0?5@ 00438ae0     S08_MyDB.obj
 0002:00000af4       ??_C@_0L@LNGADELH@aKi?5?$DN?5?$CFd?0?5@ 00438af4     S08_MyDB.obj
 0002:00000b00       ??_C@_0P@IIIKELM@aWisdom?5?$DN?5?$CFd?0?5@ 00438b00     S08_MyDB.obj
 0002:00000b10       ??_C@_0BG@JHKONIMN@aEatLifePotion?5?$DN?5?$CFd?0?5@ 00438b10     S08_MyDB.obj
 0002:00000b28       ??_C@_0BG@GHIDNLJO@aEatManaPotion?5?$DN?5?$CFd?0?5@ 00438b28     S08_MyDB.obj
 0002:00000b40       ??_C@_0O@MOHFKJGN@StrElx?5?$DN?5?$CFd?0?5@ 00438b40     S08_MyDB.obj
 0002:00000b50       ??_C@_0O@DNOONCEK@AgiElx?5?$DN?5?$CFd?0?5@ 00438b50     S08_MyDB.obj
 0002:00000b60       ??_C@_0BF@PBPPBLJD@AttAtakElixir?5?$DN?5?$CFd?0?5@ 00438b60     S08_MyDB.obj
 0002:00000b78       ??_C@_0BE@IDHHLAAI@AttDefElixir?5?$DN?5?$CFd?0?5@ 00438b78     S08_MyDB.obj
 0002:00000b8c       ??_C@_0BI@GMFFBCJF@aStateBonusPoint?5?$DN?5?$CFd?0?5@ 00438b8c     S08_MyDB.obj
 0002:00000ba4       ??_C@_0BD@FAOLNNPL@aSkillPoint?5?$DN?5?$CFd?0?5@ 00438ba4     S08_MyDB.obj
 0002:00000bb8       ??_C@_0BA@PFBJLHKO@aEquip?5?$DN?5?8?$CFs?8?0?5@ 00438bb8     S08_MyDB.obj
 0002:00000bc8       ??_C@_0BM@CABAAKHI@aExpandInventoryDate?5?$DN?5?$CFd?0?5@ 00438bc8     S08_MyDB.obj
 0002:00000be4       ??_C@_0O@NIEFBFLL@aMoney?5?$DN?5?$CFd?0?5@ 00438be4     S08_MyDB.obj
 0002:00000bf4       ??_C@_0BE@HMAFHDHL@aInventory?5?$DN?5?8?$CFs?8?0?5@ 00438bf4     S08_MyDB.obj
 0002:00000c08       ??_C@_0BD@GFBKJDA@aTradeMoney?5?$DN?5?$CFd?0?5@ 00438c08     S08_MyDB.obj
 0002:00000c1c       ??_C@_0BA@EBFBHDPJ@aTrade?5?$DN?5?8?$CFs?8?0?5@ 00438c1c     S08_MyDB.obj
 0002:00000c2c       ??_C@_0BI@MBKNOFKF@aExpandStoreDate?5?$DN?5?$CFd?0?5@ 00438c2c     S08_MyDB.obj
 0002:00000c44       ??_C@_0BD@GFBKJEK@aStoreMoney?5?$DN?5?$CFd?0?5@ 00438c44     S08_MyDB.obj
 0002:00000c58       ??_C@_0BE@LEPECJIL@aStoreItem?5?$DN?5?8?$CFs?8?0?5@ 00438c58     S08_MyDB.obj
 0002:00000c6c       ??_C@_0BA@DFPGCENJ@aSkill?5?$DN?5?8?$CFs?8?0?5@ 00438c6c     S08_MyDB.obj
 0002:00000c7c       ??_C@_0BB@GPLFLNG@aHotKey?5?$DN?5?8?$CFs?8?0?5@ 00438c7c     S08_MyDB.obj
 0002:00000c90       ??_C@_0BE@OPGFDIDJ@aQuestInfo?5?$DN?5?8?$CFs?8?0?5@ 00438c90     S08_MyDB.obj
 0002:00000ca4       ??_C@_0BB@BCDFGGIO@aFriend?5?$DN?5?8?$CFs?8?0?5@ 00438ca4     S08_MyDB.obj
 0002:00000cb8       ??_C@_0BC@LACGELBO@aTeacher?5?$DN?5?8?$CFs?8?0?5@ 00438cb8     S08_MyDB.obj
 0002:00000ccc       ??_C@_0BC@KNCDMGIF@aStudent?5?$DN?5?8?$CFs?8?0?5@ 00438ccc     S08_MyDB.obj
 0002:00000ce0       ??_C@_0BF@KALNPIAH@aTeacherPoint?5?$DN?5?$CFd?0?5@ 00438ce0     S08_MyDB.obj
 0002:00000cf8       ??_C@_0BE@JMMCFOF@aGuildName?5?$DN?5?8?$CFs?8?0?5@ 00438cf8     S08_MyDB.obj
 0002:00000d0c       ??_C@_0BC@PECDLLHP@aGuildRole?5?$DN?5?$CFd?0?5@ 00438d0c     S08_MyDB.obj
 0002:00000d20       ??_C@_0BD@HJCKBKOP@aCallName?5?$DN?5?8?$CFs?8?0?5@ 00438d20     S08_MyDB.obj
 0002:00000d34       ??_C@_0BF@HHFAFBPN@aGuildMarkNum?5?$DN?5?$CFd?0?5@ 00438d34     S08_MyDB.obj
 0002:00000d4c       ??_C@_0BI@DMNEINLH@aGuildMarkEffect?5?$DN?5?$CFd?0?5@ 00438d4c     S08_MyDB.obj
 0002:00000d64       ??_C@_0BF@HGJAOMPH@aLogoutInfo01?5?$DN?5?$CFd?0?5@ 00438d64     S08_MyDB.obj
 0002:00000d7c       ??_C@_0BF@EPBNNADC@aLogoutInfo02?5?$DN?5?$CFd?0?5@ 00438d7c     S08_MyDB.obj
 0002:00000d94       ??_C@_0BF@FIGGMEHB@aLogoutInfo03?5?$DN?5?$CFd?0?5@ 00438d94     S08_MyDB.obj
 0002:00000dac       ??_C@_0BF@DMAHKJLI@aLogoutInfo04?5?$DN?5?$CFd?0?5@ 00438dac     S08_MyDB.obj
 0002:00000dc4       ??_C@_0BF@CLHMLNPL@aLogoutInfo05?5?$DN?5?$CFd?0?5@ 00438dc4     S08_MyDB.obj
 0002:00000ddc       ??_C@_0BF@BCPBIBDO@aLogoutInfo06?5?$DN?5?$CFd?0?5@ 00438ddc     S08_MyDB.obj
 0002:00000df4       ??_C@_0BI@PCEGHHLI@ProtectionScroll?5?$DN?5?$CFd?0?5@ 00438df4     S08_MyDB.obj
 0002:00000e0c       ??_C@_0BH@NGLEHACL@ProtectionCharm?5?$DN?5?$CFd?0?5@ 00438e0c     S08_MyDB.obj
 0002:00000e24       ??_C@_0BB@DHKJICDL@HolyWater?5?$DN?5?$CFd?0?5@ 00438e24     S08_MyDB.obj
 0002:00000e38       ??_C@_0BE@KGAHILCA@SuperiorPill?5?$DN?5?$CFd?0?5@ 00438e38     S08_MyDB.obj
 0002:00000e4c       ??_C@_0BI@PHAIOGIF@ScrollofLoyality?5?$DN?5?$CFd?0?5@ 00438e4c     S08_MyDB.obj
 0002:00000e64       ??_C@_0BG@BLGNMHGA@ScrollofBattle?5?$DN?5?$CFd?0?5@ 00438e64     S08_MyDB.obj
 0002:00000e7c       ??_C@_0BE@FKHJNKHG@GodTempleKey?5?$DN?5?$CFd?0?5@ 00438e7c     S08_MyDB.obj
 0002:00000e90       ??_C@_0BE@BMBFAPKP@SolemGrounds?5?$DN?5?$CFd?0?5@ 00438e90     S08_MyDB.obj
 0002:00000ea4       ??_C@_0BE@HEEIEKPM@EdgeOfTaiyan?5?$DN?5?$CFd?0?5@ 00438ea4     S08_MyDB.obj
 0002:00000eb8       ??_C@_0BH@HDBFLFAG@ScrollOfSeekers?5?$DN?5?$CFd?0?5@ 00438eb8     S08_MyDB.obj
 0002:00000ed0       ??_C@_0BH@DIGHJBMP@aKillMonsterNum?5?$DN?5?$CFd?0?5@ 00438ed0     S08_MyDB.obj
 0002:00000ee8       ??_C@_0BB@GHNGKFBD@RankPoint?5?$DN?5?$CFd?0?5@ 00438ee8     S08_MyDB.obj
 0002:00000efc       ??_C@_0BB@GAJPDOKB@RankPrize?5?$DN?5?$CFd?0?5@ 00438efc     S08_MyDB.obj
 0002:00000f10       ??_C@_0P@HNFFEKHG@aSearch?5?$DN?5?$CFd?0?5@ 00438f10     S08_MyDB.obj
 0002:00000f20       ??_C@_0BI@PGAANCPO@ExchangeHealtiks?5?$DN?5?$CFd?0?5@ 00438f20     S08_MyDB.obj
 0002:00000f38       ??_C@_0BG@IPEMFBCI@ExchangeChiiks?5?$DN?5?$CFd?0?5@ 00438f38     S08_MyDB.obj
 0002:00000f50       ??_C@_0BG@HCJEFMBO@aTribeVoteDate?5?$DN?5?$CFd?0?5@ 00438f50     S08_MyDB.obj
 0002:00000f68       ??_C@_0BE@OLOMLAC@HealtAutoPot?5?$DN?5?$CFd?0?5@ 00438f68     S08_MyDB.obj
 0002:00000f7c       ??_C@_0BD@BECHPHJK@ManaAutoPot?5?$DN?5?$CFd?0?5@ 00438f7c     S08_MyDB.obj
 0002:00000f90       ??_C@_0BB@BAAEOIHO@aAnimal01?5?$DN?5?$CFd?0?5@ 00438f90     S08_MyDB.obj
 0002:00000fa4       ??_C@_0BB@CJIJNELL@aAnimal02?5?$DN?5?$CFd?0?5@ 00438fa4     S08_MyDB.obj
 0002:00000fb8       ??_C@_0BB@DOPCMAPI@aAnimal03?5?$DN?5?$CFd?0?5@ 00438fb8     S08_MyDB.obj
 0002:00000fcc       ??_C@_0BB@FKJDKNDB@aAnimal04?5?$DN?5?$CFd?0?5@ 00438fcc     S08_MyDB.obj
 0002:00000fe0       ??_C@_0BB@ENOILJHC@aAnimal05?5?$DN?5?$CFd?0?5@ 00438fe0     S08_MyDB.obj
 0002:00000ff4       ??_C@_0BB@HEGFIFLH@aAnimal06?5?$DN?5?$CFd?0?5@ 00438ff4     S08_MyDB.obj
 0002:00001008       ??_C@_0BB@GDBOJBPE@aAnimal07?5?$DN?5?$CFd?0?5@ 00439008     S08_MyDB.obj
 0002:0000101c       ??_C@_0BB@LMKHFOCF@aAnimal08?5?$DN?5?$CFd?0?5@ 0043901c     S08_MyDB.obj
 0002:00001030       ??_C@_0BB@KLNMEKGG@aAnimal09?5?$DN?5?$CFd?0?5@ 00439030     S08_MyDB.obj
 0002:00001044       ??_C@_0BB@OILNJHAD@aAnimal10?5?$DN?5?$CFd?0?5@ 00439044     S08_MyDB.obj
 0002:00001058       ??_C@_0BE@OIOLBCGA@aAnimalIndex?5?$DN?5?$CFd?0?5@ 00439058     S08_MyDB.obj
 0002:0000106c       ??_C@_0BD@CJMHIGLA@aAnimalTime?5?$DN?5?$CFd?0?5@ 0043906c     S08_MyDB.obj
 0002:00001080       ??_C@_0BE@MJHNPMOP@LuckyCombine?5?$DN?5?$CFd?0?5@ 00439080     S08_MyDB.obj
 0002:00001094       ??_C@_0BE@EGFMFJO@LuckyUpgrade?5?$DN?5?$CFd?0?5@ 00439094     S08_MyDB.obj
 0002:000010a8       ??_C@_0BB@JNAKIDLL@LuckyDrop?5?$DN?5?$CFd?0?5@ 004390a8     S08_MyDB.obj
 0002:000010bc       ??_C@_0N@DBEPELJD@Title?5?$DN?5?$CFd?0?5@ 004390bc     S08_MyDB.obj
 0002:000010cc       ??_C@_0BI@HAKKKFPE@ExtinctionScroll?5?$DN?5?$CFd?0?5@ 004390cc     S08_MyDB.obj
 0002:000010e4       ??_C@_0BF@KIKGBMBF@aUpradgeValue?5?$DN?5?$CFd?0?5@ 004390e4     S08_MyDB.obj
 0002:000010fc       ??_C@_0BA@KPNHLHLP@Beginner?5?$DN?5?$CFd?0?5@ 004390fc     S08_MyDB.obj
 0002:0000110c       ??_C@_0BF@OHIACBIM@BeginnerLevel?5?$DN?5?$CFd?0?5@ 0043910c     S08_MyDB.obj
 0002:00001124       ??_C@_0BC@NMMAKIO@OnlineHour?5?$DN?5?$CFd?0?5@ 00439124     S08_MyDB.obj
 0002:00001138       ??_C@_0M@IAIKMOGO@Cppc?5?$DN?5?$CFd?0?5@ 00439138     S08_MyDB.obj
 0002:00001144       ??_C@_0BE@KCFNPLFG@iUseOrnament?5?$DN?5?$CFd?0?5@ 00439144     S08_MyDB.obj
 0002:00001158       ??_C@_0CC@HBPANKGL@iSilverOrnamentRemainsTime?5?$DN?5?$CFd@ 00439158     S08_MyDB.obj
 0002:0000117c       ??_C@_0BF@BKEGBNKE@IslandOfBlood?5?$DN?5?$CFd?0?5@ 0043917c     S08_MyDB.obj
 0002:00001194       ??_C@_0BK@PDJBNIKD@IslandOfSoulMReal1?5?$DN?5?$CFd?0?5@ 00439194     S08_MyDB.obj
 0002:000011b0       ??_C@_0BK@MKBMOEGG@IslandOfSoulMReal2?5?$DN?5?$CFd?0?5@ 004391b0     S08_MyDB.obj
 0002:000011cc       ??_C@_0BK@NNGHPACF@IslandOfSoulMReal3?5?$DN?5?$CFd?0?5@ 004391cc     S08_MyDB.obj
 0002:000011e8       ??_C@_0BK@LJAGJNOM@IslandOfSoulMReal4?5?$DN?5?$CFd?0?5@ 004391e8     S08_MyDB.obj
 0002:00001204       ??_C@_0BK@KOHNIJKP@IslandOfSoulMReal5?5?$DN?5?$CFd?0?5@ 00439204     S08_MyDB.obj
 0002:00001220       ??_C@_0BK@JHPALFGK@IslandOfSoulMReal6?5?$DN?5?$CFd?0?5@ 00439220     S08_MyDB.obj
 0002:0000123c       ??_C@_0BM@LNBAEOCM@SkillIncreaseCritHit?5?$DN?5?$CFd?0?5@ 0043923c     S08_MyDB.obj
 0002:00001258       ??_C@_0BD@PPBLDCIK@LifeOrDeath?5?$DN?5?$CFd?0?5@ 00439258     S08_MyDB.obj
 0002:0000126c       ??_C@_0CA@LIJFLJIF@iGoldOrnamentRemainsTime?5?$DN?5?$CFd?0?5@ 0043926c     S08_MyDB.obj
 0002:0000128c       ??_C@_0BC@CPPOJJCO@BloodBoost?5?$DN?5?$CFd?0?5@ 0043928c     S08_MyDB.obj
 0002:000012a0       ??_C@_0BB@NBBHNIAA@SoulBoost?5?$DN?5?$CFd?0?5@ 004392a0     S08_MyDB.obj
 0002:000012b4       ??_C@_0BE@JKMADMLC@Registration?5?$DN?5?$CFd?0?5@ 004392b4     S08_MyDB.obj
 0002:000012c8       ??_C@_0P@PKCEHEBC@ExpPill?5?$DN?5?$CFd?0?5@ 004392c8     S08_MyDB.obj
 0002:000012d8       ??_C@_0BI@EEODILOB@FactReturnScroll?5?$DN?5?$CFd?0?5@ 004392d8     S08_MyDB.obj
 0002:000012f0       ??_C@_0BD@MCHPMOOK@PetExpBoost?5?$DN?5?$CFd?0?5@ 004392f0     S08_MyDB.obj
 0002:00001304       ??_C@_0BA@OJPCDONK@Costume1?5?$DN?5?$CFd?0?5@ 00439304     S08_MyDB.obj
 0002:00001314       ??_C@_0BA@NAHPACBP@Costume2?5?$DN?5?$CFd?0?5@ 00439314     S08_MyDB.obj
 0002:00001324       ??_C@_0BA@MHAEBGFM@Costume3?5?$DN?5?$CFd?0?5@ 00439324     S08_MyDB.obj
 0002:00001334       ??_C@_0BA@KDGFHLJF@Costume4?5?$DN?5?$CFd?0?5@ 00439334     S08_MyDB.obj
 0002:00001344       ??_C@_0BA@LEBOGPNG@Costume5?5?$DN?5?$CFd?0?5@ 00439344     S08_MyDB.obj
 0002:00001354       ??_C@_0BA@INJDFDBD@Costume6?5?$DN?5?$CFd?0?5@ 00439354     S08_MyDB.obj
 0002:00001364       ??_C@_0BA@JKOIEHFA@Costume7?5?$DN?5?$CFd?0?5@ 00439364     S08_MyDB.obj
 0002:00001374       ??_C@_0BA@EFFBIIIB@Costume8?5?$DN?5?$CFd?0?5@ 00439374     S08_MyDB.obj
 0002:00001384       ??_C@_0BA@FCCKJMMC@Costume9?5?$DN?5?$CFd?0?5@ 00439384     S08_MyDB.obj
 0002:00001394       ??_C@_0BB@NMPIBPCP@Costume10?5?$DN?5?$CFd?0?5@ 00439394     S08_MyDB.obj
 0002:000013a8       ??_C@_0BJ@FMCBLNNB@CostumeInventory1?5?$DN?5?$CFd?0?5@ 004393a8     S08_MyDB.obj
 0002:000013c4       ??_C@_0BJ@GFKMIBBE@CostumeInventory2?5?$DN?5?$CFd?0?5@ 004393c4     S08_MyDB.obj
 0002:000013e0       ??_C@_0BJ@HCNHJFFH@CostumeInventory3?5?$DN?5?$CFd?0?5@ 004393e0     S08_MyDB.obj
 0002:000013fc       ??_C@_0BJ@BGLGPIJO@CostumeInventory4?5?$DN?5?$CFd?0?5@ 004393fc     S08_MyDB.obj
 0002:00001418       ??_C@_0BJ@BMNOMNN@CostumeInventory5?5?$DN?5?$CFd?0?5@ 00439418     S08_MyDB.obj
 0002:00001434       ??_C@_0BJ@DIEANABI@CostumeInventory6?5?$DN?5?$CFd?0?5@ 00439434     S08_MyDB.obj
 0002:00001450       ??_C@_0BJ@CPDLMEFL@CostumeInventory7?5?$DN?5?$CFd?0?5@ 00439450     S08_MyDB.obj
 0002:0000146c       ??_C@_0BJ@PAICALIK@CostumeInventory8?5?$DN?5?$CFd?0?5@ 0043946c     S08_MyDB.obj
 0002:00001488       ??_C@_0BJ@OHPJBPMJ@CostumeInventory9?5?$DN?5?$CFd?0?5@ 00439488     S08_MyDB.obj
 0002:000014a4       ??_C@_0BK@ELJPBFCE@CostumeInventory10?5?$DN?5?$CFd?0?5@ 004394a4     S08_MyDB.obj
 0002:000014c0       ??_C@_0BF@GPMPNKAE@SelectCostume?5?$DN?5?$CFd?0?5@ 004394c0     S08_MyDB.obj
 0002:000014d8       ??_C@_0BJ@MPJFMFAD@DamegeBoostScroll?5?$DN?5?$CFd?0?5@ 004394d8     S08_MyDB.obj
 0002:000014f4       ??_C@_0BI@OPKALMJN@HealtBoostScroll?5?$DN?5?$CFd?0?5@ 004394f4     S08_MyDB.obj
 0002:0000150c       ??_C@_0BH@DIJDIKDE@CritBoostScroll?5?$DN?5?$CFd?0?5@ 0043950c     S08_MyDB.obj
 0002:00001524       ??_C@_0BG@BPGPEPPM@AutoBuffScroll?5?$DN?5?$CFd?0?5@ 00439524     S08_MyDB.obj
 0002:0000153c       ??_C@_0BH@JKKKNLHC@AutoBuffSmenu?5?$DN?5?8?$CFs?8?0?5@ 0043953c     S08_MyDB.obj
 0002:00001554       ??_C@_0BB@KFKMDIMO@FishBread?5?$DN?5?$CFd?0?5@ 00439554     S08_MyDB.obj
 0002:00001568       ??_C@_0BD@BINPHGDP@SweetPateto?5?$DN?5?$CFd?0?5@ 00439568     S08_MyDB.obj
 0002:0000157c       ??_C@_0BJ@KPMNIFIA@InventorySocket?5?$DN?5?8?$CFs?8?0?5@ 0043957c     S08_MyDB.obj
 0002:00001598       ??_C@_0BF@FDGFOODI@EquipSocket?5?$DN?5?8?$CFs?8?0?5@ 00439598     S08_MyDB.obj
 0002:000015b0       ??_C@_0BF@MCIMLOHC@TradeSocket?5?$DN?5?8?$CFs?8?0?5@ 004395b0     S08_MyDB.obj
 0002:000015c8       ??_C@_0BF@JLOKFDPE@StoreSocket?5?$DN?5?8?$CFs?8?0?5@ 004395c8     S08_MyDB.obj
 0002:000015e0       ??_C@_0O@NBJPIPBC@Hunt7d?5?$DN?5?$CFd?0?5@ 004395e0     S08_MyDB.obj
 0002:000015f0       ??_C@_0O@DDFOKMDL@Hunt5h?5?$DN?5?$CFd?0?5@ 004395f0     S08_MyDB.obj
 0002:00001600       ??_C@_0BE@GIDBOIPD@Inventorybar?5?$DN?5?$CFd?0?5@ 00439600     S08_MyDB.obj
 0002:00001614       ??_C@_0BA@IOBDECDM@TradeBar?5?$DN?5?$CFd?0?5@ 00439614     S08_MyDB.obj
 0002:00001624       ??_C@_0P@LGNKJKIE@BankBar?5?$DN?5?$CFd?0?5@ 00439624     S08_MyDB.obj
 0002:00001634       ??_C@_0BC@INNFLBBF@RebirtHall?5?$DN?5?$CFd?0?5@ 00439634     S08_MyDB.obj
 0002:00001648       ??_C@_0BF@BCACAJGK@PreServeCharm?5?$DN?5?$CFd?0?5@ 00439648     S08_MyDB.obj
 0002:00001660       ??_C@_0BA@LFFFMPO@Chenjoho?5?$DN?5?$CFd?0?5@ 00439660     S08_MyDB.obj
 0002:00001670       ??_C@_0BC@MBLLOFFC@aRankPoint?5?$DN?5?$CFd?0?5@ 00439670     S08_MyDB.obj
 0002:00001684       ??_C@_0N@FNDEOEID@aRank?5?$DN?5?$CFd?0?5@ 00439684     S08_MyDB.obj
 0002:00001694       ??_C@_0BM@NFJAJNP@FanctionNoticeScroll?5?$DN?5?$CFd?0?5@ 00439694     S08_MyDB.obj
 0002:000016b0       ??_C@_0BD@FBOCNIFA@AnimalExp?5?$DN?5?8?$CFs?8?0?5@ 004396b0     S08_MyDB.obj
 0002:000016c4       ??_C@_0BE@HOHEBNFA@AnimalStat?5?$DN?5?8?$CFs?8?0?5@ 004396c4     S08_MyDB.obj
 0002:000016d8       ??_C@_0BI@PDAEPHEG@DoubleMouthExp2x?5?$DN?5?$CFd?0?5@ 004396d8     S08_MyDB.obj
 0002:000016f0       ??_C@_0BH@CCEICCJM@VigilanteScroll?5?$DN?5?$CFd?0?5@ 004396f0     S08_MyDB.obj
 0002:00001708       ??_C@_0BE@CENFMJJD@RafflaTicket?5?$DN?5?$CFd?0?5@ 00439708     S08_MyDB.obj
 0002:0000171c       ??_C@_0BD@MHIJIMLI@MountAbsorb?5?$DN?5?$CFd?0?5@ 0043971c     S08_MyDB.obj
 0002:00001730       ??_C@_0BE@EHKPGANA@MountAbsorbe?5?$DN?5?$CFd?0?5@ 00439730     S08_MyDB.obj
 0002:00001744       ??_C@_0BB@BAHKOCME@BurstPill?5?$DN?5?$CFd?0?5@ 00439744     S08_MyDB.obj
 0002:00001758       ??_C@_0BA@BFACBHAJ@RagePill?5?$DN?5?$CFd?0?5@ 00439758     S08_MyDB.obj
 0002:00001768       ??_C@_0BF@FFMEGJMM@WarriorScroll?5?$DN?5?$CFd?0?5@ 00439768     S08_MyDB.obj
 0002:00001780       ??_C@_0BA@FFKEMCPP@HeroPill?5?$DN?5?$CFd?0?5@ 00439780     S08_MyDB.obj
 0002:00001790       ??_C@_0BK@FIMENODN@WingProtectionRune?5?$DN?5?$CFd?0?5@ 00439790     S08_MyDB.obj
 0002:000017ac       ??_C@_0BJ@NEAKHNPN@LessDecressScroll?5?$DN?5?$CFd?0?5@ 004397ac     S08_MyDB.obj
 0002:000017c8       ??_C@_0BE@CLCIJINC@PetInventory?5?$DN?5?$CFd?0?5@ 004397c8     S08_MyDB.obj
 0002:000017dc       ??_C@_0BK@EAPIDNLE@PetInventoryTick?5?$DN?5?8?$CFs?8?0?5@ 004397dc     S08_MyDB.obj
 0002:000017f8       ??_C@_0P@IILJBKEC@JoinWar?5?$DN?5?$CFd?0?5@ 004397f8     S08_MyDB.obj
 0002:00001808       ??_C@_0BC@OKNKAPDC@PlayerKill?5?$DN?5?$CFd?0?5@ 00439808     S08_MyDB.obj
 0002:0000181c       ??_C@_0BD@OBMFMMHB@MonsterKill?5?$DN?5?$CFd?0?5@ 0043981c     S08_MyDB.obj
 0002:00001830       ??_C@_0BD@IDPNKJDL@PlayTimeDay?5?$DN?5?$CFd?0?5@ 00439830     S08_MyDB.obj
 0002:00001844       ??_C@_0BJ@JHFBADIP@AutoHuntConfing?5?$DN?5?8?$CFs?8?0?5@ 00439844     S08_MyDB.obj
 0002:00001860       ??_C@_0BE@NNHIEMFB@BloodStained?5?$DN?5?$CFd?0?5@ 00439860     S08_MyDB.obj
 0002:00001874       ??_C@_0BD@JPMMKIBL@FishingTime?5?$DN?5?$CFd?0?5@ 00439874     S08_MyDB.obj
 0002:00001888       ??_C@_0BD@FHLKDMPC@BottleIndex?5?$DN?5?$CFd?0?5@ 00439888     S08_MyDB.obj
 0002:0000189c       ??_C@_0BC@KIIIACID@BottleTime?5?$DN?5?$CFd?0?5@ 0043989c     S08_MyDB.obj
 0002:000018b0       ??_C@_0P@LHILEGBM@Bottle1?5?$DN?5?$CFd?0?5@ 004398b0     S08_MyDB.obj
 0002:000018c0       ??_C@_0P@IOAGHKNJ@Bottle2?5?$DN?5?$CFd?0?5@ 004398c0     S08_MyDB.obj
 0002:000018d0       ??_C@_0P@JJHNGOJK@Bottle3?5?$DN?5?$CFd?0?5@ 004398d0     S08_MyDB.obj
 0002:000018e0       ??_C@_0P@PNBMADFD@Bottle4?5?$DN?5?$CFd?0?5@ 004398e0     S08_MyDB.obj
 0002:000018f0       ??_C@_0P@OKGHBHBA@Bottle5?5?$DN?5?$CFd?0?5@ 004398f0     S08_MyDB.obj
 0002:00001900       ??_C@_0P@NDOKCLNF@Bottle6?5?$DN?5?$CFd?0?5@ 00439900     S08_MyDB.obj
 0002:00001910       ??_C@_0P@MEJBDPJG@Bottle7?5?$DN?5?$CFd?0?5@ 00439910     S08_MyDB.obj
 0002:00001920       ??_C@_0P@BLCIPAEH@Bottle8?5?$DN?5?$CFd?0?5@ 00439920     S08_MyDB.obj
 0002:00001930       ??_C@_0P@MFDOEAE@Bottle9?5?$DN?5?$CFd?0?5@ 00439930     S08_MyDB.obj
 0002:00001940       ??_C@_0BA@KOKBABNC@Bottle10?5?$DN?5?$CFd?0?5@ 00439940     S08_MyDB.obj
 0002:00001950       ??_C@_0BE@LMJLPGGM@BottlePrice1?5?$DN?5?$CFd?0?5@ 00439950     S08_MyDB.obj
 0002:00001964       ??_C@_0BE@IFBGMKKJ@BottlePrice2?5?$DN?5?$CFd?0?5@ 00439964     S08_MyDB.obj
 0002:00001978       ??_C@_0BE@JCGNNOOK@BottlePrice3?5?$DN?5?$CFd?0?5@ 00439978     S08_MyDB.obj
 0002:0000198c       ??_C@_0BE@PGAMLDCD@BottlePrice4?5?$DN?5?$CFd?0?5@ 0043998c     S08_MyDB.obj
 0002:000019a0       ??_C@_0BE@OBHHKHGA@BottlePrice5?5?$DN?5?$CFd?0?5@ 004399a0     S08_MyDB.obj
 0002:000019b4       ??_C@_0BE@NIPKJLKF@BottlePrice6?5?$DN?5?$CFd?0?5@ 004399b4     S08_MyDB.obj
 0002:000019c8       ??_C@_0BE@MPIBIPOG@BottlePrice7?5?$DN?5?$CFd?0?5@ 004399c8     S08_MyDB.obj
 0002:000019dc       ??_C@_0BE@BADIEADH@BottlePrice8?5?$DN?5?$CFd?0?5@ 004399dc     S08_MyDB.obj
 0002:000019f0       ??_C@_0BE@HEDFEHE@BottlePrice9?5?$DN?5?$CFd?0?5@ 004399f0     S08_MyDB.obj
 0002:00001a04       ??_C@_0BF@POKPGAFO@BottlePrice10?5?$DN?5?$CFd?0?5@ 00439a04     S08_MyDB.obj
 0002:00001a1c       ??_C@_0BD@BALLDNEC@OtherSkill1?5?$DN?5?$CFd?0?5@ 00439a1c     S08_MyDB.obj
 0002:00001a30       ??_C@_0BD@CJDGABIH@OtherSkill2?5?$DN?5?$CFd?0?5@ 00439a30     S08_MyDB.obj
 0002:00001a44       ??_C@_0BD@DOENBFME@OtherSkill3?5?$DN?5?$CFd?0?5@ 00439a44     S08_MyDB.obj
 0002:00001a58       ??_C@_0BD@FKCMHIAN@OtherSkill4?5?$DN?5?$CFd?0?5@ 00439a58     S08_MyDB.obj
 0002:00001a6c       ??_C@_0BD@ENFHGMEO@OtherSkill5?5?$DN?5?$CFd?0?5@ 00439a6c     S08_MyDB.obj
 0002:00001a80       ??_C@_0BD@HENKFAIL@OtherSkill6?5?$DN?5?$CFd?0?5@ 00439a80     S08_MyDB.obj
 0002:00001a94       ??_C@_0BD@GDKBEEMI@OtherSkill7?5?$DN?5?$CFd?0?5@ 00439a94     S08_MyDB.obj
 0002:00001aa8       ??_C@_0BD@LMBIILBJ@OtherSkill8?5?$DN?5?$CFd?0?5@ 00439aa8     S08_MyDB.obj
 0002:00001abc       ??_C@_0BD@KLGDJPFK@OtherSkill9?5?$DN?5?$CFd?0?5@ 00439abc     S08_MyDB.obj
 0002:00001ad0       ??_C@_0BE@CCNFENFK@OtherSkill10?5?$DN?5?$CFd?0?5@ 00439ad0     S08_MyDB.obj
 0002:00001ae4       ??_C@_0BE@DFKOFJBJ@OtherSkill11?5?$DN?5?$CFd?0?5@ 00439ae4     S08_MyDB.obj
 0002:00001af8       ??_C@_0BE@MCDGFNM@OtherSkill12?5?$DN?5?$CFd?0?5@ 00439af8     S08_MyDB.obj
 0002:00001b0c       ??_C@_0BE@BLFIHBJP@OtherSkill13?5?$DN?5?$CFd?0?5@ 00439b0c     S08_MyDB.obj
 0002:00001b20       ??_C@_0BE@HPDJBMFG@OtherSkill14?5?$DN?5?$CFd?0?5@ 00439b20     S08_MyDB.obj
 0002:00001b34       ??_C@_0BJ@LGHCIJNB@OtherSkillState11?5?$DN?5?$CFd?0?5@ 00439b34     S08_MyDB.obj
 0002:00001b50       ??_C@_0BJ@IPPPLFBE@OtherSkillState12?5?$DN?5?$CFd?0?5@ 00439b50     S08_MyDB.obj
 0002:00001b6c       ??_C@_0BJ@JIIEKBFH@OtherSkillState13?5?$DN?5?$CFd?0?5@ 00439b6c     S08_MyDB.obj
 0002:00001b88       ??_C@_0BJ@PMOFMMJO@OtherSkillState14?5?$DN?5?$CFd?0?5@ 00439b88     S08_MyDB.obj
 0002:00001ba4       ??_C@_0BJ@OLJONINN@OtherSkillState15?5?$DN?5?$CFd?0?5@ 00439ba4     S08_MyDB.obj
 0002:00001bc0       ??_C@_0BJ@NCBDOEBI@OtherSkillState16?5?$DN?5?$CFd?0?5@ 00439bc0     S08_MyDB.obj
 0002:00001bdc       ??_C@_0BJ@MFGIPAFL@OtherSkillState17?5?$DN?5?$CFd?0?5@ 00439bdc     S08_MyDB.obj
 0002:00001bf8       ??_C@_0BJ@BKNBDPIK@OtherSkillState18?5?$DN?5?$CFd?0?5@ 00439bf8     S08_MyDB.obj
 0002:00001c14       ??_C@_0BJ@NKKCLMJ@OtherSkillState19?5?$DN?5?$CFd?0?5@ 00439c14     S08_MyDB.obj
 0002:00001c30       ??_C@_0BK@ELHFEGBA@OtherSkillState110?5?$DN?5?$CFd?0?5@ 00439c30     S08_MyDB.obj
 0002:00001c4c       ??_C@_0BK@FMAOFCFD@OtherSkillState111?5?$DN?5?$CFd?0?5@ 00439c4c     S08_MyDB.obj
 0002:00001c68       ??_C@_0BK@GFIDGOJG@OtherSkillState112?5?$DN?5?$CFd?0?5@ 00439c68     S08_MyDB.obj
 0002:00001c84       ??_C@_0BK@HCPIHKNF@OtherSkillState113?5?$DN?5?$CFd?0?5@ 00439c84     S08_MyDB.obj
 0002:00001ca0       ??_C@_0BK@BGJJBHBM@OtherSkillState114?5?$DN?5?$CFd?0?5@ 00439ca0     S08_MyDB.obj
 0002:00001cbc       ??_C@_0BI@CLCIMNDC@OtherSkillSolUst?5?$DN?5?$CFd?0?5@ 00439cbc     S08_MyDB.obj
 0002:00001cd4       ??_C@_0M@FEGFANOO@Fury?5?$DN?5?$CFd?0?5@ 00439cd4     S08_MyDB.obj
 0002:00001ce0       ??_C@_0P@LAJIBDAP@Premium?5?$DN?5?$CFd?0?5@ 00439ce0     S08_MyDB.obj
 0002:00001cf0       ??_C@_0BL@NCKFPAGO@HideCostumeRegister?5?$DN?5?$CFd?0?5@ 00439cf0     S08_MyDB.obj
 0002:00001d0c       ??_C@_0BH@IAPGBLLP@BuffDurationPill?5?$DN?5?$CFd?5@ 00439d0c     S08_MyDB.obj
 0002:00001d24       ??_C@_0BE@BMCFFDJI@where?5aName?5?$DN?5?8?$CFs?8?5@ 00439d24     S08_MyDB.obj
 0002:00001d38       ??_C@_0BH@EHMCKLBN@AND?5aWorldNumber?5?$DN?5?$CFd?$DL@ 00439d38     S08_MyDB.obj
 0002:00001d50       ??_C@_0EA@MCIGKHLC@update?5?$CFs?5set?5uLoginState?$DN0?0?5uU@ 00439d50     S08_MyDB.obj
 0002:00001d90       ??_C@_0EI@NBHPMHGC@update?5?$CFs?5set?5uLoginState?$DN1?0uUp@ 00439d90     S08_MyDB.obj
 0002:00001dd8       ??_C@_0BE@ELOLJOEJ@MyDB?3?3DB_PROCESS_03@ 00439dd8     S08_MyDB.obj
 0002:00001dec       ??_C@_0BD@ILACEEIL@?$CB?$FL?$CFs?$FN?5?3?5?$CFs?5?9?5?$FL?$CFd?$FN?6@ 00439dec     S08_MyDB.obj
 0002:00001e00       ??_C@_0CK@LFPIIBCE@SELECT?5count?$CIuID?$CJ?5FROM?5?$CFs?5WHERE@ 00439e00     S08_MyDB.obj
 0002:00001e30       ??_C@_0HI@GJDDCHNN@insert?5into?5?$CFs?5values?5?$CI?8?$CFs?8?0?$CFd?0@ 00439e30     S08_MyDB.obj
 0002:00001ea8       ??_C@_0BKF@IKCPKEBP@update?5?$CFs?5set?5AuthType?$DN?$CFd?0FindF@ 00439ea8     S08_MyDB.obj
 0002:00002050       ??_C@_0EG@FMLEKHMD@SELECT?5count?$CIaName?$CJ?5FROM?5?$CFs?5WHE@ 0043a050     S08_MyDB.obj
 0002:00002098       ??_C@_0EJ@NHFALDEE@insert?5into?5?$CFs?5values?5?$CI?5now?$CI?$CJ?0n@ 0043a098     S08_MyDB.obj
 0002:000020e8       ??_C@_0LF@HGKKJJJ@update?5?$CFs?5set?5aUpdateTime?$DNnow?$CI?$CJ@ 0043a0e8     S08_MyDB.obj
 0002:000021a0       ??_C@_0DJ@IBINCAGF@update?5?$CFs?5set?5mMaxUserNum?$DN?$CFd?5WH@ 0043a1a0     S08_MyDB.obj
 0002:000021dc       ??_C@_0DD@KNLDPAMA@update?5?$CFs?5set?5uBlockInfo?$DN999999@ 0043a1dc     S08_MyDB.obj
 0002:00002210       ??_C@_0CN@ILAOGBH@insert?5into?5?$CFs?5values?5?$CI?5now?$CI?$CJ?0?8@ 0043a210     S08_MyDB.obj
 0002:00002240       ??_C@_0CJ@HLNGPKDE@select?5count?$CIuID?$CJ?5from?5?$CFs?5where@ 0043a240     S08_MyDB.obj
 0002:0000226c       ??_C@_0CH@CKPOEGAB@insert?5into?5?$CFs?5values?5?$CI?5now?$CI?$CJ?0?8@ 0043a26c     S08_MyDB.obj
 0002:00002294       ??_C@_0DJ@JBBKPEHH@update?5?$CFs?5set?5uWarningNum?$DNuWarn@ 0043a294     S08_MyDB.obj
 0002:000022d0       ??_C@_0DC@DEPFFOPN@insert?5into?5?$CFs?5values?5?$CI?5now?$CI?$CJ?01@ 0043a2d0     S08_MyDB.obj
 0002:00002304       ??_C@_0CD@KLHFCHEO@insert?5into?5?$CFs?5values?5?$CI?5?8?$CFs?8?00?0@ 0043a304     S08_MyDB.obj
 0002:00002328       ??_C@_0DJ@LHMIMLG@update?5?$CFs?5set?5uEventNum01?$DNuEven@ 0043a328     S08_MyDB.obj
 0002:00002364       ??_C@_0DJ@CLHFLPEA@update?5?$CFs?5set?5uEventNum02?$DNuEven@ 0043a364     S08_MyDB.obj
 0002:000023a0       ??_C@_0CP@HFGKHICN@SELECT?5uMousePassword?5FROM?5?$CFs?5W@ 0043a3a0     S08_MyDB.obj
 0002:000023d0       ??_C@_02DKCKIIND@?$CFs@    0043a3d0     S08_MyDB.obj
 0002:000023d4       ??_C@_0DF@OBCOICGH@UPDATE?5?$CFs?5SET?5uMousePassword?5?$DN?5@ 0043a3d4     S08_MyDB.obj
 0002:00002410       ??_C@_0MK@HKPOCHCG@select?5mTribeVoteInfo?0mTribe01M@ 0043a410     S08_MyDB.obj
 0002:000024dc       ??_C@_0BE@GBAEKHLN@MyDB?3?3DB_PROCESS_10@ 0043a4dc     S08_MyDB.obj
 0002:000024f0       ??_C@_0DG@IMMOIJEO@?$CBUnable?5to?5connect?5to?5the?5datab@ 0043a4f0     S08_MyDB.obj
 0002:00002528       ??_C@_0CE@JIACCNN@?$CBThe?5query?5execution?5failed?5in?5@ 0043a528     S08_MyDB.obj
 0002:0000254c       ??_C@_0N@BAGMOCEI@?7?7?7Why?5?9?5?$CFs?6@ 0043a54c     S08_MyDB.obj
 0002:0000255c       ??_C@_0BH@GAHDHNAK@?$CBQuery?5failed?5?9?5?$CI?$CFs?$CJ?4?6@ 0043a55c     S08_MyDB.obj
 0002:00002578       ??_C@_0EA@DFFKBBMC@?$CBAs?5a?5result?5of?5a?5number?5of?5row@ 0043a578     S08_MyDB.obj
 0002:000025b8       ??_C@_0BF@LPCEECGE@?7?7?7Row?5counts?5?$DN?5?$CFd?4?6@ 0043a5b8     S08_MyDB.obj
 0002:000025d0       ??_C@_0BL@NFHINBO@?$EA?$EA?$EA?$EA?$EA?$EA?$EA?$EA?$EA?$EA?$EA?$EA00000000000000@ 0043a5d0     S08_MyDB.obj
 0002:000025f0       ??_C@_0EA@PAMNMOJ@?$CBTribeVoteInfo?0?5the?5length?5of?5t@ 0043a5f0     S08_MyDB.obj
 0002:00002630       ??_C@_0N@MKMPPNCH@?$EA?$EA?$EA?$EA?$EA?$EA?$EA?$EA?$EA?$EA?$EA?$EA@ 0043a630     S08_MyDB.obj
 0002:00002640       ??_C@_0EH@PCLOGIDM@?$CBTribe01SubMasterInfo?0?5the?5leng@ 0043a640     S08_MyDB.obj
 0002:00002688       ??_C@_0EH@LIJABIMC@?$CBTribe02SubMasterInfo?0?5the?5leng@ 0043a688     S08_MyDB.obj
 0002:000026d0       ??_C@_0EH@DHKFDFFH@?$CBTribe03SubMasterInfo?0?5the?5leng@ 0043a6d0     S08_MyDB.obj
 0002:00002718       ??_C@_0EH@CMMMPJDO@?$CBTribe04SubMasterInfo?0?5the?5leng@ 0043a718     S08_MyDB.obj
 0002:00002760       ??_C@_0CK@IHMBIBBD@update?5?$CFs?5set?5aName?$DN?8?$CFs?8?5where?5@ 0043a760     S08_MyDB.obj
 0002:00002790       ??_C@_0EA@EHFAFPAG@update?5?$CFs?5set?5aName?$DN?8?$CFs?8?5where?5@ 0043a790     S08_MyDB.obj
 0002:000027d0       ??_C@_0EA@EMAHPHMH@update?5?$CFs?5set?5aName01?$DN?8?$CFs?8?5wher@ 0043a7d0     S08_MyDB.obj
 0002:00002810       ??_C@_0EA@DCHPLPGB@update?5?$CFs?5set?5aName02?$DN?8?$CFs?8?5wher@ 0043a810     S08_MyDB.obj
 0002:00002850       ??_C@_0EA@BIFHIHAD@update?5?$CFs?5set?5aName03?$DN?8?$CFs?8?5wher@ 0043a850     S08_MyDB.obj
 0002:00002890       ??_C@_0FC@CLALGFEK@select?5aName01?0?5aName02?0?5aName0@ 0043a890     S08_MyDB.obj
 0002:000028e8       ??_C@_0EC@KOFJMMME@select?5count?$CI?$CK?$CJ?5from?5?$CFs?5where?5a@ 0043a8e8     S08_MyDB.obj
 0002:0000292c       ??_C@_0DA@FEEJBOKJ@insert?5into?5?$CFs?5values?5?$CI?$CFd?0?5?8?$CFs?8@ 0043a92c     S08_MyDB.obj
 0002:00002960       ??_C@_0FP@PCNLDKIK@update?5?$CFs?5set?5aKillOtherTribe?5?$DN@ 0043a960     S08_MyDB.obj
 0002:000029c0       ??_C@_0O@JKKDNGBI@?$CB?$CFs?5?5?$CFd?5Line?6@ 0043a9c0     S08_MyDB.obj
 0002:000029d0       ??_C@_0L@EMPPPDLP@?$CB?5?$CFd?5Line?6@ 0043a9d0     S08_MyDB.obj
 0002:000029dc       ??_C@_04POMIGPNJ@?$CB?$CFs?6@ 0043a9dc     S08_MyDB.obj
 0002:000029e4       ??_C@_0L@GAGDKJCO@MainWClass@ 0043a9e4     Server_PLAYUSER.obj
 0002:000029f0       ??_C@_0P@JBDOJDMF@?$LE?$LE?$LN?$KI?$LE?$LA?$LP?Z?$LD?v?$LE?m?$KD?$KB@ 0043a9f0     Server_PLAYUSER.obj
 0002:00002a00       ??_C@_07MNAKMEMM@color?5A@ 0043aa00     Server_PLAYUSER.obj
 0002:00002a08       ??_C@_0BB@MGEADAOI@?$LM?S?T?X?E?d?V?C?O?n?D?$LP?J?$KH?$LA?$NM@ 0043aa08     Server_PLAYUSER.obj
 0002:00002a1c       ??_C@_0BB@DDBKLPHF@?$CBmServerName?3?5?$CFs@ 0043aa1c     Server_PLAYUSER.obj
 0002:00002a30       ??_C@_0BB@BOANINCL@?$CBmServerPort?3?5?$CFd@ 0043aa30     Server_PLAYUSER.obj
 0002:00002a44       ??_C@_0BC@JMMNGIBD@?$CBmWorldNumber?3?5?$CFd@ 0043aa44     Server_PLAYUSER.obj
 0002:00002a58       ??_C@_08LINPELFG@Init?$FL?$CFd?$FN@ 0043aa58     Server_PLAYUSER.obj
 0002:00002a64       ??_C@_0BM@FKHLGEMB@CONFIG?2CHAR_SERVER_INFO?4TXT@ 0043aa64     Server_PLAYUSER.obj
 0002:00002a80       ??_C@_0BM@BFACBEDM@SailorSky2?5PlayUser?5BugTrap@ 0043aa80     Server_PLAYUSER.obj
 0002:00002a9c       ??_C@_0L@JKPDENGN@C?3?2BugTrap@ 0043aa9c     Server_PLAYUSER.obj
 0002:00002aa8       ??_C@_0P@GHFPNOJB@bad?5allocation@ 0043aaa8     libcpmt:xthrow.obj
 0002:00002abc       ??_7logic_error@std@@6B@   0043aabc     libcpmt:xthrow.obj
 0002:00002ac8       ??_7length_error@std@@6B@  0043aac8     libcpmt:xthrow.obj
 0002:00002fe8       ??_C@_07IPNMCAN@success@   0043afe8     libcpmt:syserror.obj
 0002:00002ff0       ??_C@_0BN@LKKBCCDB@address?5family?5not?5supported@ 0043aff0     libcpmt:syserror.obj
 0002:00003010       ??_C@_0P@LDMLAFHI@address?5in?5use@ 0043b010     libcpmt:syserror.obj
 0002:00003020       ??_C@_0BG@DHPCNBJB@address?5not?5available@ 0043b020     libcpmt:syserror.obj
 0002:00003038       ??_C@_0BC@DFIBIBIL@already?5connected@ 0043b038     libcpmt:syserror.obj
 0002:0000304c       ??_C@_0BH@CAKOHOMI@argument?5list?5too?5long@ 0043b04c     libcpmt:syserror.obj
 0002:00003064       ??_C@_0BH@CGIMPKIM@argument?5out?5of?5domain@ 0043b064     libcpmt:syserror.obj
 0002:0000307c       ??_C@_0M@KGHGGJGL@bad?5address@ 0043b07c     libcpmt:syserror.obj
 0002:00003088       ??_C@_0BE@MPJPGCEO@bad?5file?5descriptor@ 0043b088     libcpmt:syserror.obj
 0002:0000309c       ??_C@_0M@PMMIEFCP@bad?5message@ 0043b09c     libcpmt:syserror.obj
 0002:000030a8       ??_C@_0M@KPHOFDBE@broken?5pipe@ 0043b0a8     libcpmt:syserror.obj
 0002:000030b4       ??_C@_0BD@MGNDDEGM@connection?5aborted@ 0043b0b4     libcpmt:syserror.obj
 0002:000030c8       ??_C@_0BP@KAIHPOGN@connection?5already?5in?5progress@ 0043b0c8     libcpmt:syserror.obj
 0002:000030e8       ??_C@_0BD@PJLIIJEL@connection?5refused@ 0043b0e8     libcpmt:syserror.obj
 0002:000030fc       ??_C@_0BB@IECNJNOI@connection?5reset@ 0043b0fc     libcpmt:syserror.obj
 0002:00003110       ??_C@_0BC@PPHBOELF@cross?5device?5link@ 0043b110     libcpmt:syserror.obj
 0002:00003124       ??_C@_0BN@KDMIFEIP@destination?5address?5required@ 0043b124     libcpmt:syserror.obj
 0002:00003144       ??_C@_0BI@NGCEHDD@device?5or?5resource?5busy@ 0043b144     libcpmt:syserror.obj
 0002:0000315c       ??_C@_0BE@JIDOCPHM@directory?5not?5empty@ 0043b15c     libcpmt:syserror.obj
 0002:00003170       ??_C@_0BI@BNCLIGPB@executable?5format?5error@ 0043b170     libcpmt:syserror.obj
 0002:00003188       ??_C@_0M@MIDIAGJP@file?5exists@ 0043b188     libcpmt:syserror.obj
 0002:00003194       ??_C@_0P@DNAJLBJK@file?5too?5large@ 0043b194     libcpmt:syserror.obj
 0002:000031a4       ??_C@_0BC@EJHOMAAK@filename?5too?5long@ 0043b1a4     libcpmt:syserror.obj
 0002:000031b8       ??_C@_0BH@KEFGLDAF@function?5not?5supported@ 0043b1b8     libcpmt:syserror.obj
 0002:000031d0       ??_C@_0BB@DHFDFGDM@host?5unreachable@ 0043b1d0     libcpmt:syserror.obj
 0002:000031e4       ??_C@_0BD@JPHBMONG@identifier?5removed@ 0043b1e4     libcpmt:syserror.obj
 0002:000031f8       ??_C@_0BG@CDNPAGJK@illegal?5byte?5sequence@ 0043b1f8     libcpmt:syserror.obj
 0002:00003210       ??_C@_0CD@BNPLBMNA@inappropriate?5io?5control?5operat@ 0043b210     libcpmt:syserror.obj
 0002:00003234       ??_C@_0M@EGEKIIMP@interrupted@ 0043b234     libcpmt:syserror.obj
 0002:00003240       ??_C@_0BB@FCMFBGOM@invalid?5argument@ 0043b240     libcpmt:syserror.obj
 0002:00003254       ??_C@_0N@OHAFKDEK@invalid?5seek@ 0043b254     libcpmt:syserror.obj
 0002:00003264       ??_C@_08GLNPIFBN@io?5error@ 0043b264     libcpmt:syserror.obj
 0002:00003270       ??_C@_0P@FLLDBIDK@is?5a?5directory@ 0043b270     libcpmt:syserror.obj
 0002:00003280       ??_C@_0N@IFLPBIOP@message?5size@ 0043b280     libcpmt:syserror.obj
 0002:00003290       ??_C@_0N@KIIEAAIO@network?5down@ 0043b290     libcpmt:syserror.obj
 0002:000032a0       ??_C@_0O@FNPDBHEE@network?5reset@ 0043b2a0     libcpmt:syserror.obj
 0002:000032b0       ??_C@_0BE@IFNCKGE@network?5unreachable@ 0043b2b0     libcpmt:syserror.obj
 0002:000032c4       ??_C@_0BA@PFFCAOFK@no?5buffer?5space@ 0043b2c4     libcpmt:syserror.obj
 0002:000032d4       ??_C@_0BB@IEPBLJHK@no?5child?5process@ 0043b2d4     libcpmt:syserror.obj
 0002:000032e8       ??_C@_07PLECNNKG@no?5link@ 0043b2e8     libcpmt:syserror.obj
 0002:000032f0       ??_C@_0BC@NJECKMKE@no?5lock?5available@ 0043b2f0     libcpmt:syserror.obj
 0002:00003304       ??_C@_0BF@PBGGPKKE@no?5message?5available@ 0043b304     libcpmt:syserror.obj
 0002:0000331c       ??_C@_0L@EDOLMPAK@no?5message@ 0043b31c     libcpmt:syserror.obj
 0002:00003328       ??_C@_0BD@EAMBFIDF@no?5protocol?5option@ 0043b328     libcpmt:syserror.obj
 0002:0000333c       ??_C@_0BD@IJDJKDEA@no?5space?5on?5device@ 0043b33c     libcpmt:syserror.obj
 0002:00003350       ??_C@_0BE@MKFDAFMP@no?5stream?5resources@ 0043b350     libcpmt:syserror.obj
 0002:00003364       ??_C@_0BK@IMCPHCBI@no?5such?5device?5or?5address@ 0043b364     libcpmt:syserror.obj
 0002:00003380       ??_C@_0P@FDINDDOK@no?5such?5device@ 0043b380     libcpmt:syserror.obj
 0002:00003390       ??_C@_0BK@NDOCBPGE@no?5such?5file?5or?5directory@ 0043b390     libcpmt:syserror.obj
 0002:000033ac       ??_C@_0BA@ENLPPKBN@no?5such?5process@ 0043b3ac     libcpmt:syserror.obj
 0002:000033bc       ??_C@_0BA@DOCPFFJG@not?5a?5directory@ 0043b3bc     libcpmt:syserror.obj
 0002:000033cc       ??_C@_0N@POEIPGGF@not?5a?5socket@ 0043b3cc     libcpmt:syserror.obj
 0002:000033dc       ??_C@_0N@LGAPMMPI@not?5a?5stream@ 0043b3dc     libcpmt:syserror.obj
 0002:000033ec       ??_C@_0O@GLMIBBEG@not?5connected@ 0043b3ec     libcpmt:syserror.obj
 0002:000033fc       ??_C@_0BC@ENOOLCNF@not?5enough?5memory@ 0043b3fc     libcpmt:syserror.obj
 0002:00003410       ??_C@_0O@NHEDABJP@not?5supported@ 0043b410     libcpmt:syserror.obj
 0002:00003420       ??_C@_0BD@MOLBPMEA@operation?5canceled@ 0043b420     libcpmt:syserror.obj
 0002:00003434       ??_C@_0BG@KDKHOPCO@operation?5in?5progress@ 0043b434     libcpmt:syserror.obj
 0002:0000344c       ??_C@_0BI@OHIEJAAB@operation?5not?5permitted@ 0043b44c     libcpmt:syserror.obj
 0002:00003464       ??_C@_0BI@LNEGIFLN@operation?5not?5supported@ 0043b464     libcpmt:syserror.obj
 0002:0000347c       ??_C@_0BG@OEMDKMEE@operation?5would?5block@ 0043b47c     libcpmt:syserror.obj
 0002:00003494       ??_C@_0L@BLPOFLNJ@owner?5dead@ 0043b494     libcpmt:syserror.obj
 0002:000034a0       ??_C@_0BC@CIJDGCDI@permission?5denied@ 0043b4a0     libcpmt:syserror.obj
 0002:000034b4       ??_C@_0P@FNPOCJBE@protocol?5error@ 0043b4b4     libcpmt:syserror.obj
 0002:000034c4       ??_C@_0BH@JPPPLHJB@protocol?5not?5supported@ 0043b4c4     libcpmt:syserror.obj
 0002:000034dc       ??_C@_0BG@EICBIHDP@read?5only?5file?5system@ 0043b4dc     libcpmt:syserror.obj
 0002:000034f4       ??_C@_0BO@BJBOMOEJ@resource?5deadlock?5would?5occur@ 0043b4f4     libcpmt:syserror.obj
 0002:00003514       ??_C@_0BP@LKNGHENJ@resource?5unavailable?5try?5again@ 0043b514     libcpmt:syserror.obj
 0002:00003534       ??_C@_0BE@GOIPJJHG@result?5out?5of?5range@ 0043b534     libcpmt:syserror.obj
 0002:00003548       ??_C@_0BG@MPLKFPAE@state?5not?5recoverable@ 0043b548     libcpmt:syserror.obj
 0002:00003560       ??_C@_0P@DIIFGFCG@stream?5timeout@ 0043b560     libcpmt:syserror.obj
 0002:00003570       ??_C@_0P@IPFDMIFL@text?5file?5busy@ 0043b570     libcpmt:syserror.obj
 0002:00003580       ??_C@_09KJPPMAOI@timed?5out@ 0043b580     libcpmt:syserror.obj
 0002:0000358c       ??_C@_0BO@HACHBEKI@too?5many?5files?5open?5in?5system@ 0043b58c     libcpmt:syserror.obj
 0002:000035ac       ??_C@_0BE@GHAFMPAH@too?5many?5files?5open@ 0043b5ac     libcpmt:syserror.obj
 0002:000035c0       ??_C@_0P@HCOMKFCC@too?5many?5links@ 0043b5c0     libcpmt:syserror.obj
 0002:000035d0       ??_C@_0BO@EFGOJEF@too?5many?5symbolic?5link?5levels@ 0043b5d0     libcpmt:syserror.obj
 0002:000035f0       ??_C@_0BA@KGKGOOJA@value?5too?5large@ 0043b5f0     libcpmt:syserror.obj
 0002:00003600       ??_C@_0BE@MIEJDDNH@wrong?5protocol?5type@ 0043b600     libcpmt:syserror.obj
 0002:00003614       ??_C@_0O@BFJCFAAK@unknown?5error@ 0043b614     libcpmt:syserror.obj
 0002:00003628       ??_7bad_cast@std@@6B@      0043b628     libcpmt:cout.obj
 0002:00003630       ??_C@_08EPJLHIJG@bad?5cast@ 0043b630     libcpmt:cout.obj
 0002:00003640       ??_7_Facet_base@std@@6B@   0043b640     libcpmt:cout.obj
 0002:0000364c       ??_C@_0BA@ELKIONDK@bad?5locale?5name@ 0043b64c     libcpmt:cout.obj
 0002:00003660       ??_7?$ctype@D@std@@6B@     0043b660     libcpmt:cout.obj
 0002:00003690       ??_7ios_base@std@@6B@      0043b690     libcpmt:cout.obj
 0002:00003698       ??_7?$basic_ios@DU?$char_traits@D@std@@@std@@6B@ 0043b698     libcpmt:cout.obj
 0002:000036a0       ??_7?$basic_ostream@DU?$char_traits@D@std@@@std@@6B@ 0043b6a0     libcpmt:cout.obj
 0002:000036a4       ??_8?$basic_ostream@DU?$char_traits@D@std@@@std@@7B@ 0043b6a4     libcpmt:cout.obj
 0002:000036b0       ??_7?$basic_streambuf@DU?$char_traits@D@std@@@std@@6B@ 0043b6b0     libcpmt:cout.obj
 0002:000036f0       ??_7?$basic_filebuf@DU?$char_traits@D@std@@@std@@6B@ 0043b6f0     libcpmt:cout.obj
 0002:00003730       ??_7?$codecvt@DDU_Mbstatet@@@std@@6B@ 0043b730     libcpmt:cout.obj
 0002:0000385c       ??_7_Locimp@locale@std@@6B@ 0043b85c     libcpmt:locale0.obj
 0002:00003868       ??_C@_01NBENCBCI@?$CK@     0043b868     libcpmt:locale0.obj
 0002:0000386c       ??_C@_01GFHCPBMG@C@        0043b86c     libcpmt:locale0.obj
 0002:00003870       ?_BADOFF@std@@3_JB         0043b870     libcpmt:ios.obj
 0002:00003878       ??_C@_11LOCGONAA@@         0043b878     libcpmt:wlocale.obj
 0002:0000387c       ??_C@_13IMODFHAA@?$AA?9@   0043b87c     libcpmt:wlocale.obj
 0002:00003924       ??_7type_info@@6B@         0043b924     LIBCMT:std_type_info_static.obj
 0002:00003930       __pDestructExceptionObject 0043b930     libvcruntime:ehhelpers.obj
 0002:00003938       ??_7bad_exception@std@@6B@ 0043b938     libvcruntime:frame.obj
 0002:00003940       ??_C@_0O@DPKOEFFH@bad?5exception@ 0043b940     libvcruntime:frame.obj
 0002:00003cd8       ??_C@_08EHJDFFNH@__based?$CI@ 0043bcd8     libvcruntime:undname.obj
 0002:00003ce4       ??_C@_07KOLFKCDI@__cdecl@  0043bce4     libvcruntime:undname.obj
 0002:00003cec       ??_C@_08GHMPAG@__pascal@   0043bcec     libvcruntime:undname.obj
 0002:00003cf8       ??_C@_09IFJBGAPI@__stdcall@ 0043bcf8     libvcruntime:undname.obj
 0002:00003d04       ??_C@_0L@NPHFGOKO@__thiscall@ 0043bd04     libvcruntime:undname.obj
 0002:00003d10       ??_C@_0L@JMKHOMEK@__fastcall@ 0043bd10     libvcruntime:undname.obj
 0002:00003d1c       ??_C@_0N@BCKKPABJ@__vectorcall@ 0043bd1c     libvcruntime:undname.obj
 0002:00003d2c       ??_C@_09HIJEGCPM@__clrcall@ 0043bd2c     libvcruntime:undname.obj
 0002:00003d38       ??_C@_06GHPCKEAG@__eabi@   0043bd38     libvcruntime:undname.obj
 0002:00003d40       ??_C@_09IOPIDJLG@__swift_1@ 0043bd40     libvcruntime:undname.obj
 0002:00003d4c       ??_C@_09KFNFGKHF@__swift_2@ 0043bd4c     libvcruntime:undname.obj
 0002:00003d58       ??_C@_09LMMOFLDE@__swift_3@ 0043bd58     libvcruntime:undname.obj
 0002:00003d64       ??_C@_07JOMMBBKO@__ptr64@  0043bd64     libvcruntime:undname.obj
 0002:00003d6c       ??_C@_0L@PILCLIHE@__restrict@ 0043bd6c     libvcruntime:undname.obj
 0002:00003d78       ??_C@_0M@GFIIJFMG@__unaligned@ 0043bd78     libvcruntime:undname.obj
 0002:00003d84       ??_C@_09DHDLOLLB@restrict?$CI@ 0043bd84     libvcruntime:undname.obj
 0002:00003d90       ??_C@_04NIHEBCM@?5new@     0043bd90     libvcruntime:undname.obj
 0002:00003d98       ??_C@_07FPCDHGMM@?5delete@ 0043bd98     libvcruntime:undname.obj
 0002:00003da0       ??_C@_01NEMOKFLO@?$DN@     0043bda0     libvcruntime:undname.obj
 0002:00003da4       ??_C@_02GPIOPFAK@?$DO?$DO@ 0043bda4     libvcruntime:undname.obj
 0002:00003da8       ??_C@_02FODMEDOG@?$DM?$DM@ 0043bda8     libvcruntime:undname.obj
 0002:00003dac       ??_C@_01DCLJPIOD@?$CB@     0043bdac     libvcruntime:undname.obj
 0002:00003db0       ??_C@_02EGOFBIJA@?$DN?$DN@ 0043bdb0     libvcruntime:undname.obj
 0002:00003db4       ??_C@_02FDNJECIE@?$CB?$DN@ 0043bdb4     libvcruntime:undname.obj
 0002:00003db8       ??_C@_02GPECMEKF@?$FL?$FN@ 0043bdb8     libvcruntime:undname.obj
 0002:00003dbc       ??_C@_08LHJFAFGD@operator@ 0043bdbc     libvcruntime:undname.obj
 0002:00003dc8       ??_C@_02HBOOOICD@?9?$DO@   0043bdc8     libvcruntime:undname.obj
 0002:00003dcc       ??_C@_02ECNGHCIF@?$CL?$CL@ 0043bdcc     libvcruntime:undname.obj
 0002:00003dd0       ??_C@_02BAABKJLB@?9?9@     0043bdd0     libvcruntime:undname.obj
 0002:00003dd4       ??_C@_01MIFGBAGJ@?$CL@     0043bdd4     libvcruntime:undname.obj
 0002:00003dd8       ??_C@_01HNPIGOCE@?$CG@     0043bdd8     libvcruntime:undname.obj
 0002:00003ddc       ??_C@_03MNHNFDLC@?9?$DO?$CK@ 0043bddc     libvcruntime:undname.obj
 0002:00003de0       ??_C@_01KMDKNFGN@?1@       0043bde0     libvcruntime:undname.obj
 0002:00003de4       ??_C@_01FGNFDNOH@?$CF@     0043bde4     libvcruntime:undname.obj
 0002:00003de8       ??_C@_01MNNFJEPP@?$DM@     0043bde8     libvcruntime:undname.obj
 0002:00003dec       ??_C@_02EHCHHCKH@?$DM?$DN@ 0043bdec     libvcruntime:undname.obj
 0002:00003df0       ??_C@_01PPODPGHN@?$DO@     0043bdf0     libvcruntime:undname.obj
 0002:00003df4       ??_C@_02EEKDKGMJ@?$DO?$DN@ 0043bdf4     libvcruntime:undname.obj
 0002:00003df8       ??_C@_01IHBHIGKO@?0@       0043bdf8     libvcruntime:undname.obj
 0002:00003dfc       ??_C@_02HCKGKOFO@?$CI?$CJ@ 0043bdfc     libvcruntime:undname.obj
 0002:00003e00       ??_C@_01PJKLJHI@?$HO@      0043be00     libvcruntime:undname.obj
 0002:00003e04       ??_C@_01JKBOJNNK@?$FO@     0043be04     libvcruntime:undname.obj
 0002:00003e08       ??_C@_01DNKMNLPK@?$HM@     0043be08     libvcruntime:undname.obj
 0002:00003e0c       ??_C@_02PPKAJPJL@?$CG?$CG@ 0043be0c     libvcruntime:undname.obj
 0002:00003e10       ??_C@_02NONPIBCD@?$HM?$HM@ 0043be10     libvcruntime:undname.obj
 0002:00003e14       ??_C@_02FPIMKNGF@?$CK?$DN@ 0043be14     libvcruntime:undname.obj
 0002:00003e18       ??_C@_02FOEOMHFC@?$CL?$DN@ 0043be18     libvcruntime:undname.obj
 0002:00003e1c       ??_C@_02FKMDLLOA@?9?$DN@   0043be1c     libvcruntime:undname.obj
 0002:00003e20       ??_C@_02FJEHGPIO@?1?$DN@   0043be20     libvcruntime:undname.obj
 0002:00003e24       ??_C@_02FENAOKFI@?$CF?$DN@ 0043be24     libvcruntime:undname.obj
 0002:00003e28       ??_C@_03IKFCCPFF@?$DO?$DO?$DN@ 0043be28     libvcruntime:undname.obj
 0002:00003e2c       ??_C@_03CDNPDDLA@?$DM?$DM?$DN@ 0043be2c     libvcruntime:undname.obj
 0002:00003e30       ??_C@_02FGJGFEAB@?$CG?$DN@ 0043be30     libvcruntime:undname.obj
 0002:00003e34       ??_C@_02DHLNPPGH@?$HM?$DN@ 0043be34     libvcruntime:undname.obj
 0002:00003e38       ??_C@_02MHEGNOJ@?$FO?$DN@  0043be38     libvcruntime:undname.obj
 0002:00003e3c       ??_C@_09IFPLHPGF@?$GAvftable?8@ 0043be3c     libvcruntime:undname.obj
 0002:00003e48       ??_C@_09BLBHBJP@?$GAvbtable?8@ 0043be48     libvcruntime:undname.obj
 0002:00003e54       ??_C@_07FEEIOKP@?$GAvcall?8@ 0043be54     libvcruntime:undname.obj
 0002:00003e5c       ??_C@_08LLFFHHDJ@?$GAtypeof?8@ 0043be5c     libvcruntime:undname.obj
 0002:00003e68       ??_C@_0BF@KDPPACIK@?$GAlocal?5static?5guard?8@ 0043be68     libvcruntime:undname.obj
 0002:00003e80       ??_C@_08OBABFOLI@?$GAstring?8@ 0043be80     libvcruntime:undname.obj
 0002:00003e8c       ??_C@_0BD@JDLKDPAB@?$GAvbase?5destructor?8@ 0043be8c     libvcruntime:undname.obj
 0002:00003ea0       ??_C@_0BN@DEGPLNFK@?$GAvector?5deleting?5destructor?8@ 0043bea0     libvcruntime:undname.obj
 0002:00003ec0       ??_C@_0BO@OBMKPJIG@?$GAdefault?5constructor?5closure?8@ 0043bec0     libvcruntime:undname.obj
 0002:00003ee0       ??_C@_0BN@IMDCHIKM@?$GAscalar?5deleting?5destructor?8@ 0043bee0     libvcruntime:undname.obj
 0002:00003f00       ??_C@_0BO@PFGOCPJJ@?$GAvector?5constructor?5iterator?8@ 0043bf00     libvcruntime:undname.obj
 0002:00003f20       ??_C@_0BN@LFPFMEDL@?$GAvector?5destructor?5iterator?8@ 0043bf20     libvcruntime:undname.obj
 0002:00003f40       ??_C@_0CE@IKBNEHA@?$GAvector?5vbase?5constructor?5itera@ 0043bf40     libvcruntime:undname.obj
 0002:00003f64       ??_C@_0BL@NILFHHPC@?$GAvirtual?5displacement?5map?8@ 0043bf64     libvcruntime:undname.obj
 0002:00003f80       ??_C@_0CB@JONCMFFK@?$GAeh?5vector?5constructor?5iterator@ 0043bf80     libvcruntime:undname.obj
 0002:00003fa4       ??_C@_0CA@GCEOPDGL@?$GAeh?5vector?5destructor?5iterator?8@ 0043bfa4     libvcruntime:undname.obj
 0002:00003fc4       ??_C@_0CH@OOJPLCPH@?$GAeh?5vector?5vbase?5constructor?5it@ 0043bfc4     libvcruntime:undname.obj
 0002:00003fec       ??_C@_0BL@LLKPOHJI@?$GAcopy?5constructor?5closure?8@ 0043bfec     libvcruntime:undname.obj
 0002:00004008       ??_C@_0BA@KBCDOMBN@?$GAudt?5returning?8@ 0043c008     libvcruntime:undname.obj
 0002:00004018       ??_C@_03KLGMFNMG@?$GAEH@   0043c018     libvcruntime:undname.obj
 0002:0000401c       ??_C@_05KHLCHHI@?$GARTTI@  0043c01c     libvcruntime:undname.obj
 0002:00004024       ??_C@_0BA@KKLDJDLB@?$GAlocal?5vftable?8@ 0043c024     libvcruntime:undname.obj
 0002:00004034       ??_C@_0CE@IIHCMGGL@?$GAlocal?5vftable?5constructor?5clos@ 0043c034     libvcruntime:undname.obj
 0002:00004058       ??_C@_06FHBGPFGH@?5new?$FL?$FN@ 0043c058     libvcruntime:undname.obj
 0002:00004060       ??_C@_09LBNFPBCA@?5delete?$FL?$FN@ 0043c060     libvcruntime:undname.obj
 0002:0000406c       ??_C@_0P@HJKNJFNN@?$GAomni?5callsig?8@ 0043c06c     libvcruntime:undname.obj
 0002:0000407c       ??_C@_0BL@CNOONJFP@?$GAplacement?5delete?5closure?8@ 0043c07c     libvcruntime:undname.obj
 0002:00004098       ??_C@_0BN@CKNJLHMB@?$GAplacement?5delete?$FL?$FN?5closure?8@ 0043c098     libvcruntime:undname.obj
 0002:000040b8       ??_C@_0CG@CFDHKGGD@?$GAmanaged?5vector?5constructor?5ite@ 0043c0b8     libvcruntime:undname.obj
 0002:000040e0       ??_C@_0CF@IMGKMJNO@?$GAmanaged?5vector?5destructor?5iter@ 0043c0e0     libvcruntime:undname.obj
 0002:00004108       ??_C@_0CG@HLDDJMAG@?$GAeh?5vector?5copy?5constructor?5ite@ 0043c108     libvcruntime:undname.obj
 0002:00004130       ??_C@_0CM@FCBBDIGB@?$GAeh?5vector?5vbase?5copy?5construct@ 0043c130     libvcruntime:undname.obj
 0002:0000415c       ??_C@_0BL@CLIPGLGB@?$GAdynamic?5initializer?5for?5?8@ 0043c15c     libvcruntime:undname.obj
 0002:00004178       ??_C@_0CB@PDBIFEP@?$GAdynamic?5atexit?5destructor?5for?5@ 0043c178     libvcruntime:undname.obj
 0002:0000419c       ??_C@_0CD@CGAJBKEJ@?$GAvector?5copy?5constructor?5iterat@ 0043c19c     libvcruntime:undname.obj
 0002:000041c0       ??_C@_0CJ@GJELGAMM@?$GAvector?5vbase?5copy?5constructor?5@ 0043c1c0     libvcruntime:undname.obj
 0002:000041ec       ??_C@_0CL@FGIJHLCE@?$GAmanaged?5vector?5copy?5constructo@ 0043c1ec     libvcruntime:undname.obj
 0002:00004218       ??_C@_0BM@PMGGMLDN@?$GAlocal?5static?5thread?5guard?8@ 0043c218     libvcruntime:undname.obj
 0002:00004234       ??_C@_0N@BDNMDMOL@operator?5?$CC?$CC?5@ 0043c234     libvcruntime:undname.obj
 0002:00004244       ??_C@_0BC@GGEBGALA@operator?5co_await@ 0043c244     libvcruntime:undname.obj
 0002:00004258       ??_C@_0M@GAAIMMOH@operator?$DM?$DN?$DO@ 0043c258     libvcruntime:undname.obj
 0002:00004264       ??_C@_0BC@DAFEJGAK@?5Type?5Descriptor?8@ 0043c264     libvcruntime:undname.obj
 0002:00004278       ??_C@_0BM@LDKODKLH@?5Base?5Class?5Descriptor?5at?5?$CI@ 0043c278     libvcruntime:undname.obj
 0002:00004294       ??_C@_0BD@LGICGFMM@?5Base?5Class?5Array?8@ 0043c294     libvcruntime:undname.obj
 0002:000042a8       ??_C@_0BN@MECKDCOJ@?5Class?5Hierarchy?5Descriptor?8@ 0043c2a8     libvcruntime:undname.obj
 0002:000042c8       ??_C@_0BK@CFCOFLF@?5Complete?5Object?5Locator?8@ 0043c2c8     libvcruntime:undname.obj
 0002:000042e4       ??_C@_0BG@JNJLAMPM@?$GAanonymous?5namespace?8@ 0043c2e4     libvcruntime:undname.obj
 0002:00004308       ??_C@_1DM@KHCHBNEB@?$AAa?$AAp?$AAi?$AA?9?$AAm?$AAs?$AA?9?$AAw?$AAi?$AAn?$AA?9?$AAc?$AAo?$AAr?$AAe@ 0043c308     libvcruntime:winapi_downlevel.obj
 0002:00004344       ??_C@_1DK@LPPGFMPP@?$AAa?$AAp?$AAi?$AA?9?$AAm?$AAs?$AA?9?$AAw?$AAi?$AAn?$AA?9?$AAc?$AAo?$AAr?$AAe@ 0043c344     libvcruntime:winapi_downlevel.obj
 0002:00004380       ??_C@_1BC@GDMECMAK@?$AAk?$AAe?$AAr?$AAn?$AAe?$AAl?$AA3?$AA2@ 0043c380     libvcruntime:winapi_downlevel.obj
 0002:00004394       ??_C@_1BA@PFFKHIOG@?$AAa?$AAp?$AAi?$AA?9?$AAm?$AAs?$AA?9@ 0043c394     libvcruntime:winapi_downlevel.obj
 0002:000043ac       ??_C@_08KNHFBNJ@FlsAlloc@  0043c3ac     libvcruntime:winapi_downlevel.obj
 0002:000043c0       ??_C@_07PEJMOBNF@FlsFree@  0043c3c0     libvcruntime:winapi_downlevel.obj
 0002:000043d0       ??_C@_0M@GDNOONDI@FlsGetValue@ 0043c3d0     libvcruntime:winapi_downlevel.obj
 0002:000043e4       ??_C@_0M@JCPCPOEF@FlsSetValue@ 0043c3e4     libvcruntime:winapi_downlevel.obj
 0002:000043f8       ??_C@_0BM@HCFOFFN@InitializeCriticalSectionEx@ 0043c3f8     libvcruntime:winapi_downlevel.obj
 0002:00004418       ?standard_lookup_table_spectre@__crt_stdio_output@@3V?$spectre_mitigated_lookup_table@Ustate_transition_pair@__crt_stdio_output@@$0IA@@1@B 0043c418     libucrt:output.obj
 0002:00004518       ??_C@_1O@CEDCILHN@?$AA?$CI?$AAn?$AAu?$AAl?$AAl?$AA?$CJ@ 0043c518     libucrt:output.obj
 0002:00004528       ??_C@_06OJHGLDPL@?$CInull?$CJ@ 0043c528     libucrt:output.obj
 0002:00004548       ___newctype                0043c548     libucrt:ctype.obj
 0002:00004848       ___newclmap                0043c848     libucrt:ctype.obj
 0002:000049c8       ___newcumap                0043c9c8     libucrt:ctype.obj
 0002:00004b48       __wctype                   0043cb48     libucrt:ctype.obj
 0002:00004d50       __real@3ff0000000000000    0043cd50     libucrt:frexp.obj
 0002:00004ec0       ?large_power_data@?1??multiply_by_power_of_ten@__crt_strtox@@YA_NAAUbig_integer@2@I@Z@4QBIB 0043cec0     libucrt:strtod.obj
 0002:000057c8       ?large_power_indices@?1??multiply_by_power_of_ten@__crt_strtox@@YA_NAAUbig_integer@2@I@Z@4QBUunpack_index@?1??12@YA_N0I@Z@B 0043d7c8     libucrt:strtod.obj
 0002:00005860       ?small_powers_of_ten@?1??multiply_by_power_of_ten@__crt_strtox@@YA_NAAUbig_integer@2@I@Z@4QBIB 0043d860     libucrt:strtod.obj
 0002:00005888       ___acrt_exception_action_table 0043d888     libucrt:exception_filter.obj
 0002:00005918       ___acrt_signal_action_table_count 0043d918     libucrt:exception_filter.obj
 0002:0000591c       ___acrt_signal_action_first_fpe_index 0043d91c     libucrt:exception_filter.obj
 0002:00005920       ___acrt_signal_action_fpe_count 0043d920     libucrt:exception_filter.obj
 0002:00005924       ??_C@_1BI@BGOHAHKC@?$AAm?$AAs?$AAc?$AAo?$AAr?$AAe?$AAe?$AA?4?$AAd?$AAl?$AAl@ 0043d924     libucrt:exit.obj
 0002:0000593c       ??_C@_0P@MIGLKIOC@CorExitProcess@ 0043d93c     libucrt:exit.obj
 0002:00005a50       ___lc_category             0043da50     libucrt:wsetlocale.obj
 0002:00005a98       ??_C@_1O@GIFLHMA@?$AAL?$AAC?$AA_?$AAA?$AAL?$AAL@ 0043da98     libucrt:wsetlocale.obj
 0002:00005aa8       ??_C@_1BG@PPOMIBNJ@?$AAL?$AAC?$AA_?$AAC?$AAO?$AAL?$AAL?$AAA?$AAT?$AAE@ 0043daa8     libucrt:wsetlocale.obj
 0002:00005ac0       ??_C@_1BC@FFJGAPJM@?$AAL?$AAC?$AA_?$AAC?$AAT?$AAY?$AAP?$AAE@ 0043dac0     libucrt:wsetlocale.obj
 0002:00005ad4       ??_C@_1BI@PCKFNJFB@?$AAL?$AAC?$AA_?$AAM?$AAO?$AAN?$AAE?$AAT?$AAA?$AAR?$AAY@ 0043dad4     libucrt:wsetlocale.obj
 0002:00005aec       ??_C@_1BG@ENIEDKID@?$AAL?$AAC?$AA_?$AAN?$AAU?$AAM?$AAE?$AAR?$AAI?$AAC@ 0043daec     libucrt:wsetlocale.obj
 0002:00005b04       ??_C@_1BA@HAAOMIIG@?$AAL?$AAC?$AA_?$AAT?$AAI?$AAM?$AAE@ 0043db04     libucrt:wsetlocale.obj
 0002:00005b14       ??_C@_15NBPDDFIP@?$AA?$DN?$AA?$DL@ 0043db14     libucrt:wsetlocale.obj
 0002:00005b1c       ??_C@_13PJJBFPED@?$AA?$DL@ 0043db1c     libucrt:wsetlocale.obj
 0002:00005b20       ??_C@_13NMPKAAJP@?$AA?$DN@ 0043db20     libucrt:wsetlocale.obj
 0002:00005b24       ??_C@_17EFJLDFDO@?$AA?9?$AA_?$AA?4@ 0043db24     libucrt:wsetlocale.obj
 0002:00005b2c       ??_C@_13FHBKNHDA@?$AAC@    0043db2c     libucrt:wsetlocale.obj
 0002:00005b30       ??_C@_17MBJJLFDM@?$AA_?$AA?4?$AA?0@ 0043db30     libucrt:wsetlocale.obj
 0002:00005b38       ??_C@_13ENNFDPBH@?$AA_@    0043db38     libucrt:wsetlocale.obj
 0002:00005b3c       ??_C@_13JOFGPIOO@?$AA?4@   0043db3c     libucrt:wsetlocale.obj
 0002:00005b40       ___lc_time_c               0043db40     libucrt:nlsdata.obj
 0002:00005ca4       ??_C@_03KOEHGMDN@Sun@      0043dca4     libucrt:nlsdata.obj
 0002:00005ca8       ??_C@_03PDAGKDH@Mon@       0043dca8     libucrt:nlsdata.obj
 0002:00005cac       ??_C@_03NAGEINEP@Tue@      0043dcac     libucrt:nlsdata.obj
 0002:00005cb0       ??_C@_03MHOMLAJA@Wed@      0043dcb0     libucrt:nlsdata.obj
 0002:00005cb4       ??_C@_03IOFIKPDN@Thu@      0043dcb4     libucrt:nlsdata.obj
 0002:00005cb8       ??_C@_03IDIOELNC@Fri@      0043dcb8     libucrt:nlsdata.obj
 0002:00005cbc       ??_C@_03FEFJNEK@Sat@       0043dcbc     libucrt:nlsdata.obj
 0002:00005cc0       ??_C@_06OOPIFAJ@Sunday@    0043dcc0     libucrt:nlsdata.obj
 0002:00005cc8       ??_C@_06JLEDEDGH@Monday@   0043dcc8     libucrt:nlsdata.obj
 0002:00005cd0       ??_C@_07BAAGCFCM@Tuesday@  0043dcd0     libucrt:nlsdata.obj
 0002:00005cd8       ??_C@_09DLIGFAKA@Wednesday@ 0043dcd8     libucrt:nlsdata.obj
 0002:00005ce4       ??_C@_08HACCIKIA@Thursday@ 0043dce4     libucrt:nlsdata.obj
 0002:00005cf0       ??_C@_06JECMNKMI@Friday@   0043dcf0     libucrt:nlsdata.obj
 0002:00005cf8       ??_C@_08INBOOONO@Saturday@ 0043dcf8     libucrt:nlsdata.obj
 0002:00005d04       ??_C@_03JIHJHPIE@Jan@      0043dd04     libucrt:nlsdata.obj
 0002:00005d08       ??_C@_03HJBDCHOM@Feb@      0043dd08     libucrt:nlsdata.obj
 0002:00005d0c       ??_C@_03ODNJBKGA@Mar@      0043dd0c     libucrt:nlsdata.obj
 0002:00005d10       ??_C@_03LEOLGMJP@Apr@      0043dd10     libucrt:nlsdata.obj
 0002:00005d14       ??_C@_03CNMDKL@May@        0043dd14     libucrt:nlsdata.obj
 0002:00005d18       ??_C@_03IDFGHECI@Jun@      0043dd18     libucrt:nlsdata.obj
 0002:00005d1c       ??_C@_03LBGABGKK@Jul@      0043dd1c     libucrt:nlsdata.obj
 0002:00005d20       ??_C@_03IFJFEIGA@Aug@      0043dd20     libucrt:nlsdata.obj
 0002:00005d24       ??_C@_03GGCAPAJC@Sep@      0043dd24     libucrt:nlsdata.obj
 0002:00005d28       ??_C@_03BMAOKBAD@Oct@      0043dd28     libucrt:nlsdata.obj
 0002:00005d2c       ??_C@_03JPJOFNIA@Nov@      0043dd2c     libucrt:nlsdata.obj
 0002:00005d30       ??_C@_03MKABNOCG@Dec@      0043dd30     libucrt:nlsdata.obj
 0002:00005d34       ??_C@_07CGJPFGJA@January@  0043dd34     libucrt:nlsdata.obj
 0002:00005d3c       ??_C@_08GNJGEPFN@February@ 0043dd3c     libucrt:nlsdata.obj
 0002:00005d48       ??_C@_05HPCKOFNC@March@    0043dd48     libucrt:nlsdata.obj
 0002:00005d50       ??_C@_05DMJDNLEJ@April@    0043dd50     libucrt:nlsdata.obj
 0002:00005d58       ??_C@_04CNLMGBGM@June@     0043dd58     libucrt:nlsdata.obj
 0002:00005d60       ??_C@_04MIEPOIFP@July@     0043dd60     libucrt:nlsdata.obj
 0002:00005d68       ??_C@_06LBBHFDDG@August@   0043dd68     libucrt:nlsdata.obj
 0002:00005d70       ??_C@_09BHHEALKD@September@ 0043dd70     libucrt:nlsdata.obj
 0002:00005d7c       ??_C@_07JJNFCEND@October@  0043dd7c     libucrt:nlsdata.obj
 0002:00005d84       ??_C@_08HCHEGEOA@November@ 0043dd84     libucrt:nlsdata.obj
 0002:00005d90       ??_C@_08EDHMEBNP@December@ 0043dd90     libucrt:nlsdata.obj
 0002:00005d9c       ??_C@_02DEDBPAFC@AM@       0043dd9c     libucrt:nlsdata.obj
 0002:00005da0       ??_C@_02CJNFDJBF@PM@       0043dda0     libucrt:nlsdata.obj
 0002:00005da4       ??_C@_08BPBNCDIB@MM?1dd?1yy@ 0043dda4     libucrt:nlsdata.obj
 0002:00005db0       ??_C@_0BE@CKGJFCPC@dddd?0?5MMMM?5dd?0?5yyyy@ 0043ddb0     libucrt:nlsdata.obj
 0002:00005dc4       ??_C@_08JCCMCCIL@HH?3mm?3ss@ 0043ddc4     libucrt:nlsdata.obj
 0002:00005dd0       ??_C@_17MBGCMIPB@?$AAS?$AAu?$AAn@ 0043ddd0     libucrt:nlsdata.obj
 0002:00005dd8       ??_C@_17KBOMKBF@?$AAM?$AAo?$AAn@ 0043ddd8     libucrt:nlsdata.obj
 0002:00005de0       ??_C@_17BMKGEGOJ@?$AAT?$AAu?$AAe@ 0043dde0     libucrt:nlsdata.obj
 0002:00005de8       ??_C@_17CJEDCEPE@?$AAW?$AAe?$AAd@ 0043dde8     libucrt:nlsdata.obj
 0002:00005df0       ??_C@_17PDPHAADD@?$AAT?$AAh?$AAu@ 0043ddf0     libucrt:nlsdata.obj
 0002:00005df8       ??_C@_17HFOLPPLP@?$AAF?$AAr?$AAi@ 0043ddf8     libucrt:nlsdata.obj
 0002:00005e00       ??_C@_17GGIBDPIH@?$AAS?$AAa?$AAt@ 0043de00     libucrt:nlsdata.obj
 0002:00005e08       ??_C@_1O@IHNHDHPB@?$AAS?$AAu?$AAn?$AAd?$AAa?$AAy@ 0043de08     libucrt:nlsdata.obj
 0002:00005e18       ??_C@_1O@MMNBFLIA@?$AAM?$AAo?$AAn?$AAd?$AAa?$AAy@ 0043de18     libucrt:nlsdata.obj
 0002:00005e28       ??_C@_1BA@ENFBFFEK@?$AAT?$AAu?$AAe?$AAs?$AAd?$AAa?$AAy@ 0043de28     libucrt:nlsdata.obj
 0002:00005e38       ??_C@_1BE@EBOGMDOH@?$AAW?$AAe?$AAd?$AAn?$AAe?$AAs?$AAd?$AAa?$AAy@ 0043de38     libucrt:nlsdata.obj
 0002:00005e4c       ??_C@_1BC@HHMNLIHE@?$AAT?$AAh?$AAu?$AAr?$AAs?$AAd?$AAa?$AAy@ 0043de4c     libucrt:nlsdata.obj
 0002:00005e60       ??_C@_1O@PDICJHAG@?$AAF?$AAr?$AAi?$AAd?$AAa?$AAy@ 0043de60     libucrt:nlsdata.obj
 0002:00005e70       ??_C@_1BC@ENMNNPAJ@?$AAS?$AAa?$AAt?$AAu?$AAr?$AAd?$AAa?$AAy@ 0043de70     libucrt:nlsdata.obj
 0002:00005e84       ??_C@_17DKNBKCHM@?$AAJ?$AAa?$AAn@ 0043de84     libucrt:nlsdata.obj
 0002:00005e8c       ??_C@_17LMDJEKJN@?$AAF?$AAe?$AAb@ 0043de8c     libucrt:nlsdata.obj
 0002:00005e94       ??_C@_17CKNLEDEC@?$AAM?$AAa?$AAr@ 0043de94     libucrt:nlsdata.obj
 0002:00005e9c       ??_C@_17LFPOIHDD@?$AAA?$AAp?$AAr@ 0043de9c     libucrt:nlsdata.obj
 0002:00005ea4       ??_C@_17PNNKMEED@?$AAM?$AAa?$AAy@ 0043dea4     libucrt:nlsdata.obj
 0002:00005eac       ??_C@_17KCJGOCPB@?$AAJ?$AAu?$AAn@ 0043deac     libucrt:nlsdata.obj
 0002:00005eb4       ??_C@_17IJPCKHK@?$AAJ?$AAu?$AAl@ 0043deb4     libucrt:nlsdata.obj
 0002:00005ebc       ??_C@_17ICPELBCN@?$AAA?$AAu?$AAg@ 0043debc     libucrt:nlsdata.obj
 0002:00005ec4       ??_C@_17HCHCOKMG@?$AAS?$AAe?$AAp@ 0043dec4     libucrt:nlsdata.obj
 0002:00005ecc       ??_C@_17FNLKOI@?$AAO?$AAc?$AAt@ 0043decc     libucrt:nlsdata.obj
 0002:00005ed4       ??_C@_17BBDMLCIG@?$AAN?$AAo?$AAv@ 0043ded4     libucrt:nlsdata.obj
 0002:00005edc       ??_C@_17EGKACKIF@?$AAD?$AAe?$AAc@ 0043dedc     libucrt:nlsdata.obj
 0002:00005ee4       ??_C@_1BA@EFMEIEBA@?$AAJ?$AAa?$AAn?$AAu?$AAa?$AAr?$AAy@ 0043dee4     libucrt:nlsdata.obj
 0002:00005ef4       ??_C@_1BC@JGDDFFAM@?$AAF?$AAe?$AAb?$AAr?$AAu?$AAa?$AAr?$AAy@ 0043def4     libucrt:nlsdata.obj
 0002:00005f08       ??_C@_1M@IKEENEDF@?$AAM?$AAa?$AAr?$AAc?$AAh@ 0043df08     libucrt:nlsdata.obj
 0002:00005f14       ??_C@_1M@GJNLMHFD@?$AAA?$AAp?$AAr?$AAi?$AAl@ 0043df14     libucrt:nlsdata.obj
 0002:00005f20       ??_C@_19EPFLPGAP@?$AAJ?$AAu?$AAn?$AAe@ 0043df20     libucrt:nlsdata.obj
 0002:00005f2c       ??_C@_19BIFMLPCD@?$AAJ?$AAu?$AAl?$AAy@ 0043df2c     libucrt:nlsdata.obj
 0002:00005f38       ??_C@_1O@PAHLKOAC@?$AAA?$AAu?$AAg?$AAu?$AAs?$AAt@ 0043df38     libucrt:nlsdata.obj
 0002:00005f48       ??_C@_1BE@DKAAMBJL@?$AAS?$AAe?$AAp?$AAt?$AAe?$AAm?$AAb?$AAe?$AAr@ 0043df48     libucrt:nlsdata.obj
 0002:00005f5c       ??_C@_1BA@EPANDLNG@?$AAO?$AAc?$AAt?$AAo?$AAb?$AAe?$AAr@ 0043df5c     libucrt:nlsdata.obj
 0002:00005f6c       ??_C@_1BC@BGLIFPF@?$AAN?$AAo?$AAv?$AAe?$AAm?$AAb?$AAe?$AAr@ 0043df6c     libucrt:nlsdata.obj
 0002:00005f80       ??_C@_1BC@FEMKIFH@?$AAD?$AAe?$AAc?$AAe?$AAm?$AAb?$AAe?$AAr@ 0043df80     libucrt:nlsdata.obj
 0002:00005f94       ??_C@_15ODEHAHHF@?$AAA?$AAM@ 0043df94     libucrt:nlsdata.obj
 0002:00005f9c       ??_C@_15CLMNNGEL@?$AAP?$AAM@ 0043df9c     libucrt:nlsdata.obj
 0002:00005fa4       ??_C@_1BC@IEBCMHCM@?$AAM?$AAM?$AA?1?$AAd?$AAd?$AA?1?$AAy?$AAy@ 0043dfa4     libucrt:nlsdata.obj
 0002:00005fb8       ??_C@_1CI@KNAKOEBC@?$AAd?$AAd?$AAd?$AAd?$AA?0?$AA?5?$AAM?$AAM?$AAM?$AAM?$AA?5?$AAd?$AAd?$AA?0?$AA?5@ 0043dfb8     libucrt:nlsdata.obj
 0002:00005fe0       ??_C@_1BC@GDGBMEMK@?$AAH?$AAH?$AA?3?$AAm?$AAm?$AA?3?$AAs?$AAs@ 0043dfe0     libucrt:nlsdata.obj
 0002:00005ff4       ??_C@_1M@BMHNFIME@?$AAe?$AAn?$AA?9?$AAU?$AAS@ 0043dff4     libucrt:nlsdata.obj
 0002:00006040       ??_C@_03OEIAHPBN@INF@      0043e040     libucrt:cvt.obj
 0002:00006044       ??_C@_03OJHLLCGB@inf@      0043e044     libucrt:cvt.obj
 0002:00006048       ??_C@_03LKNCIKJB@NAN@      0043e048     libucrt:cvt.obj
 0002:0000604c       ??_C@_03LHCJEHON@nan@      0043e04c     libucrt:cvt.obj
 0002:00006050       ??_C@_09OFJJIMPC@NAN?$CISNAN?$CJ@ 0043e050     libucrt:cvt.obj
 0002:0000605c       ??_C@_09IPFBKMDL@nan?$CIsnan?$CJ@ 0043e05c     libucrt:cvt.obj
 0002:00006068       ??_C@_08IKHNHAJ@NAN?$CIIND?$CJ@ 0043e068     libucrt:cvt.obj
 0002:00006074       ??_C@_08OFCDMILK@nan?$CIind?$CJ@ 0043e074     libucrt:cvt.obj
 0002:00006080       ??_C@_05KLBDPFGC@e?$CL000@ 0043e080     libucrt:cvt.obj
 0002:000060e0       ??_C@_1EA@JGEFHKEI@?$AAa?$AAp?$AAi?$AA?9?$AAm?$AAs?$AA?9?$AAw?$AAi?$AAn?$AA?9?$AAc?$AAo?$AAr?$AAe@ 0043e0e0     libucrt:winapi_thunks.obj
 0002:00006120       ??_C@_1DI@KMEPCBPN@?$AAa?$AAp?$AAi?$AA?9?$AAm?$AAs?$AA?9?$AAw?$AAi?$AAn?$AA?9?$AAc?$AAo?$AAr?$AAe@ 0043e120     libucrt:winapi_thunks.obj
 0002:00006158       ??_C@_1DI@IJCEHOCB@?$AAa?$AAp?$AAi?$AA?9?$AAm?$AAs?$AA?9?$AAw?$AAi?$AAn?$AA?9?$AAc?$AAo?$AAr?$AAe@ 0043e158     libucrt:winapi_thunks.obj
 0002:00006190       ??_C@_1EI@MPIAOHOC@?$AAa?$AAp?$AAi?$AA?9?$AAm?$AAs?$AA?9?$AAw?$AAi?$AAn?$AA?9?$AAc?$AAo?$AAr?$AAe@ 0043e190     libucrt:winapi_thunks.obj
 0002:000061d8       ??_C@_1FK@FPHCKFIE@?$AAa?$AAp?$AAi?$AA?9?$AAm?$AAs?$AA?9?$AAw?$AAi?$AAn?$AA?9?$AAc?$AAo?$AAr?$AAe@ 0043e1d8     libucrt:winapi_thunks.obj
 0002:00006238       ??_C@_1EM@DILCGIIO@?$AAa?$AAp?$AAi?$AA?9?$AAm?$AAs?$AA?9?$AAw?$AAi?$AAn?$AA?9?$AAc?$AAo?$AAr?$AAe@ 0043e238     libucrt:winapi_thunks.obj
 0002:00006284       ??_C@_1DM@LNCGDDPN@?$AAa?$AAp?$AAi?$AA?9?$AAm?$AAs?$AA?9?$AAw?$AAi?$AAn?$AA?9?$AAc?$AAo?$AAr?$AAe@ 0043e284     libucrt:winapi_thunks.obj
 0002:000062c0       ??_C@_1DO@FPAPJEMD@?$AAa?$AAp?$AAi?$AA?9?$AAm?$AAs?$AA?9?$AAw?$AAi?$AAn?$AA?9?$AAc?$AAo?$AAr?$AAe@ 0043e2c0     libucrt:winapi_thunks.obj
 0002:00006300       ??_C@_1DK@NDHNAHIO@?$AAa?$AAp?$AAi?$AA?9?$AAm?$AAs?$AA?9?$AAw?$AAi?$AAn?$AA?9?$AAc?$AAo?$AAr?$AAe@ 0043e300     libucrt:winapi_thunks.obj
 0002:0000633c       ??_C@_1DM@KGHDGBCM@?$AAa?$AAp?$AAi?$AA?9?$AAm?$AAs?$AA?9?$AAw?$AAi?$AAn?$AA?9?$AAc?$AAo?$AAr?$AAe@ 0043e33c     libucrt:winapi_thunks.obj
 0002:00006378       ??_C@_1EO@IJIOEFOH@?$AAa?$AAp?$AAi?$AA?9?$AAm?$AAs?$AA?9?$AAw?$AAi?$AAn?$AA?9?$AAr?$AAt?$AAc?$AAo@ 0043e378     libucrt:winapi_thunks.obj
 0002:000063c8       ??_C@_1FG@HHGEKANL@?$AAa?$AAp?$AAi?$AA?9?$AAm?$AAs?$AA?9?$AAw?$AAi?$AAn?$AA?9?$AAs?$AAe?$AAc?$AAu@ 0043e3c8     libucrt:winapi_thunks.obj
 0002:00006420       ??_C@_1EG@DBIOJECG@?$AAe?$AAx?$AAt?$AA?9?$AAm?$AAs?$AA?9?$AAw?$AAi?$AAn?$AA?9?$AAn?$AAt?$AAu?$AAs@ 0043e420     libucrt:winapi_thunks.obj
 0002:00006468       ??_C@_1EO@FIHMJCLF@?$AAe?$AAx?$AAt?$AA?9?$AAm?$AAs?$AA?9?$AAw?$AAi?$AAn?$AA?9?$AAn?$AAt?$AAu?$AAs@ 0043e468     libucrt:winapi_thunks.obj
 0002:000064b8       ??_C@_1BC@DNHGCMLG@?$AAa?$AAd?$AAv?$AAa?$AAp?$AAi?$AA3?$AA2@ 0043e4b8     libucrt:winapi_thunks.obj
 0002:000064cc       ??_C@_1BG@CJPGBMEF@?$AAk?$AAe?$AAr?$AAn?$AAe?$AAl?$AAb?$AAa?$AAs?$AAe@ 0043e4cc     libucrt:winapi_thunks.obj
 0002:000064e4       ??_C@_1M@OAIMIKLP@?$AAn?$AAt?$AAd?$AAl?$AAl@ 0043e4e4     libucrt:winapi_thunks.obj
 0002:000064f0       ??_C@_1EG@DPGNFKGC@?$AAa?$AAp?$AAi?$AA?9?$AAm?$AAs?$AA?9?$AAw?$AAi?$AAn?$AA?9?$AAa?$AAp?$AAp?$AAm@ 0043e4f0     libucrt:winapi_thunks.obj
 0002:00006538       ??_C@_1O@BCCLBEOE@?$AAu?$AAs?$AAe?$AAr?$AA3?$AA2@ 0043e538     libucrt:winapi_thunks.obj
 0002:00006548       ??_C@_1DM@BPJLHKCE@?$AAa?$AAp?$AAi?$AA?9?$AAm?$AAs?$AA?9?$AAw?$AAi?$AAn?$AA?9?$AAc?$AAo?$AAr?$AAe@ 0043e548     libucrt:winapi_thunks.obj
 0002:00006584       ??_C@_1BA@IAIFMGEF@?$AAe?$AAx?$AAt?$AA?9?$AAm?$AAs?$AA?9@ 0043e584     libucrt:winapi_thunks.obj
 0002:00006598       ??_C@_0BA@FHFNEAED@AreFileApisANSI@ 0043e598     libucrt:winapi_thunks.obj
 0002:000065b0       ??_C@_0BA@IHGNDAEB@CompareStringEx@ 0043e5b0     libucrt:winapi_thunks.obj
 0002:000065c8       ??_C@_0BE@LJANKFHF@EnumSystemLocalesEx@ 0043e5c8     libucrt:winapi_thunks.obj
 0002:000065e4       ??_C@_0BA@EPCJIIPD@GetDateFormatEx@ 0043e5e4     libucrt:winapi_thunks.obj
 0002:000065fc       ??_C@_0BA@ONOKGCMP@GetLocaleInfoEx@ 0043e5fc     libucrt:winapi_thunks.obj
 0002:00006614       ??_C@_0BA@CIJJKCJJ@GetTimeFormatEx@ 0043e614     libucrt:winapi_thunks.obj
 0002:0000662c       ??_C@_0BJ@PBCCBIPI@GetUserDefaultLocaleName@ 0043e62c     libucrt:winapi_thunks.obj
 0002:00006658       ??_C@_0BC@CELBKLLA@IsValidLocaleName@ 0043e658     libucrt:winapi_thunks.obj
 0002:00006674       ??_C@_0O@KKBNKAPF@LCMapStringEx@ 0043e674     libucrt:winapi_thunks.obj
 0002:0000668c       ??_C@_0BB@CDHDDLLP@LCIDToLocaleName@ 0043e68c     libucrt:winapi_thunks.obj
 0002:000066a8       ??_C@_0BB@HBDEELFH@LocaleNameToLCID@ 0043e6a8     libucrt:winapi_thunks.obj
 0002:000066c0       ??_C@_0CF@OJOFEIGO@AppPolicyGetProcessTerminationM@ 0043e6c0     libucrt:winapi_thunks.obj
 0002:00006808       ??_C@_03KHJOGHMM@exp@      0043e808     libucrt:fpexcept.obj
 0002:0000680c       ??_C@_03JGHBODFD@pow@      0043e80c     libucrt:fpexcept.obj
 0002:00006810       ??_C@_03MGHMBJCF@log@      0043e810     libucrt:fpexcept.obj
 0002:00006814       ??_C@_05HGHHAHAP@log10@    0043e814     libucrt:fpexcept.obj
 0002:0000681c       ??_C@_04COOMCNPB@sinh@     0043e81c     libucrt:fpexcept.obj
 0002:00006824       ??_C@_04HPJJNFIM@cosh@     0043e824     libucrt:fpexcept.obj
 0002:0000682c       ??_C@_04FJHINJAO@tanh@     0043e82c     libucrt:fpexcept.obj
 0002:00006834       ??_C@_04FIHNOPOL@asin@     0043e834     libucrt:fpexcept.obj
 0002:0000683c       ??_C@_04PDIFKINK@acos@     0043e83c     libucrt:fpexcept.obj
 0002:00006844       ??_C@_04MLLJIGOK@atan@     0043e844     libucrt:fpexcept.obj
 0002:0000684c       ??_C@_05KNGEOGJB@atan2@    0043e84c     libucrt:fpexcept.obj
 0002:00006854       ??_C@_04EIAKFFMI@sqrt@     0043e854     libucrt:fpexcept.obj
 0002:0000685c       ??_C@_03BLEJJJBH@sin@      0043e85c     libucrt:fpexcept.obj
 0002:00006860       ??_C@_03LALBNOCG@cos@      0043e860     libucrt:fpexcept.obj
 0002:00006864       ??_C@_03IIINPABG@tan@      0043e864     libucrt:fpexcept.obj
 0002:00006868       ??_C@_04GFPJNGEK@ceil@     0043e868     libucrt:fpexcept.obj
 0002:00006870       ??_C@_05PBJFFIGL@floor@    0043e870     libucrt:fpexcept.obj
 0002:00006878       ??_C@_04ODHECPBC@fabs@     0043e878     libucrt:fpexcept.obj
 0002:00006880       ??_C@_04EHEDPDJG@modf@     0043e880     libucrt:fpexcept.obj
 0002:00006888       ??_C@_05CEJMAHNP@ldexp@    0043e888     libucrt:fpexcept.obj
 0002:00006890       ??_C@_05KBKMEMPO@_cabs@    0043e890     libucrt:fpexcept.obj
 0002:00006898       ??_C@_06MEIMCGCF@_hypot@   0043e898     libucrt:fpexcept.obj
 0002:000068a0       ??_C@_04KEPJIHGP@fmod@     0043e8a0     libucrt:fpexcept.obj
 0002:000068a8       ??_C@_05GKKHEGJL@frexp@    0043e8a8     libucrt:fpexcept.obj
 0002:000068b0       ??_C@_03MJLDFKDL@_y0@      0043e8b0     libucrt:fpexcept.obj
 0002:000068b4       ??_C@_03NAKIGLHK@_y1@      0043e8b4     libucrt:fpexcept.obj
 0002:000068b8       ??_C@_03ONILCKOB@_yn@      0043e8b8     libucrt:fpexcept.obj
 0002:000068bc       ??_C@_05JGDBENOH@_logb@    0043e8bc     libucrt:fpexcept.obj
 0002:000068c4       ??_C@_0L@KDOEJCKC@_nextafter@ 0043e8c4     libucrt:fpexcept.obj
 0002:000068d0       __d_inf                    0043e8d0     libucrt:util.obj
 0002:000068d8       __d_max                    0043e8d8     libucrt:util.obj
 0002:000068e0       __d_mzero                  0043e8e0     libucrt:util.obj
 0002:00006910       ??_C@_1M@HPNHIDJI@?$AAj?$AAa?$AA?9?$AAJ?$AAP@ 0043e910     libucrt:mbctype.obj
 0002:0000691c       ??_C@_1M@BIBDDEMK@?$AAz?$AAh?$AA?9?$AAC?$AAN@ 0043e91c     libucrt:mbctype.obj
 0002:00006928       ??_C@_1M@JLOOOEGK@?$AAk?$AAo?$AA?9?$AAK?$AAR@ 0043e928     libucrt:mbctype.obj
 0002:00006934       ??_C@_1M@CLNBBOPM@?$AAz?$AAh?$AA?9?$AAT?$AAW@ 0043e934     libucrt:mbctype.obj
 0002:00006940       ___acrt_rg_language        0043e940     libucrt:get_qualified_locale.obj
 0002:00006c4c       ___acrt_rg_language_count  0043ec4c     libucrt:get_qualified_locale.obj
 0002:00006c50       ___acrt_rg_country         0043ec50     libucrt:get_qualified_locale.obj
 0002:00006d64       ___acrt_rg_country_count   0043ed64     libucrt:get_qualified_locale.obj
 0002:00006d68       ??_C@_1BC@LLOKLNP@?$AAa?$AAm?$AAe?$AAr?$AAi?$AAc?$AAa?$AAn@ 0043ed68     libucrt:get_qualified_locale.obj
 0002:00006d7c       ??_C@_1CC@HEIGCDGG@?$AAa?$AAm?$AAe?$AAr?$AAi?$AAc?$AAa?$AAn?$AA?5?$AAe?$AAn?$AAg?$AAl?$AAi?$AAs@ 0043ed7c     libucrt:get_qualified_locale.obj
 0002:00006da0       ??_C@_1CC@IHCNOMIN@?$AAa?$AAm?$AAe?$AAr?$AAi?$AAc?$AAa?$AAn?$AA?9?$AAe?$AAn?$AAg?$AAl?$AAi?$AAs@ 0043eda0     libucrt:get_qualified_locale.obj
 0002:00006dc4       ??_C@_1BG@GKAGPCGG@?$AAa?$AAu?$AAs?$AAt?$AAr?$AAa?$AAl?$AAi?$AAa?$AAn@ 0043edc4     libucrt:get_qualified_locale.obj
 0002:00006ddc       ??_C@_1BA@GMENCENF@?$AAb?$AAe?$AAl?$AAg?$AAi?$AAa?$AAn@ 0043eddc     libucrt:get_qualified_locale.obj
 0002:00006dec       ??_C@_1BC@PJMIIAAN@?$AAc?$AAa?$AAn?$AAa?$AAd?$AAi?$AAa?$AAn@ 0043edec     libucrt:get_qualified_locale.obj
 0002:00006e00       ??_C@_17NOIMNFBF@?$AAc?$AAh?$AAh@ 0043ee00     libucrt:get_qualified_locale.obj
 0002:00006e08       ??_C@_17GGDALCHA@?$AAc?$AAh?$AAi@ 0043ee08     libucrt:get_qualified_locale.obj
 0002:00006e10       ??_C@_1BA@NPNJKIBL@?$AAc?$AAh?$AAi?$AAn?$AAe?$AAs?$AAe@ 0043ee10     libucrt:get_qualified_locale.obj
 0002:00006e20       ??_C@_1CC@DINBAMMJ@?$AAc?$AAh?$AAi?$AAn?$AAe?$AAs?$AAe?$AA?9?$AAh?$AAo?$AAn?$AAg?$AAk?$AAo?$AAn@ 0043ee20     libucrt:get_qualified_locale.obj
 0002:00006e44       ??_C@_1CG@IOBJPACO@?$AAc?$AAh?$AAi?$AAn?$AAe?$AAs?$AAe?$AA?9?$AAs?$AAi?$AAm?$AAp?$AAl?$AAi?$AAf@ 0043ee44     libucrt:get_qualified_locale.obj
 0002:00006e6c       ??_C@_1CE@GAJNDCKG@?$AAc?$AAh?$AAi?$AAn?$AAe?$AAs?$AAe?$AA?9?$AAs?$AAi?$AAn?$AAg?$AAa?$AAp?$AAo@ 0043ee6c     libucrt:get_qualified_locale.obj
 0002:00006e90       ??_C@_1CI@PAJPIOOD@?$AAc?$AAh?$AAi?$AAn?$AAe?$AAs?$AAe?$AA?9?$AAt?$AAr?$AAa?$AAd?$AAi?$AAt?$AAi@ 0043ee90     libucrt:get_qualified_locale.obj
 0002:00006eb8       ??_C@_1BM@NILJBMMD@?$AAd?$AAu?$AAt?$AAc?$AAh?$AA?9?$AAb?$AAe?$AAl?$AAg?$AAi?$AAa?$AAn@ 0043eeb8     libucrt:get_qualified_locale.obj
 0002:00006ed4       ??_C@_1CC@OOJPJNEJ@?$AAe?$AAn?$AAg?$AAl?$AAi?$AAs?$AAh?$AA?9?$AAa?$AAm?$AAe?$AAr?$AAi?$AAc?$AAa@ 0043eed4     libucrt:get_qualified_locale.obj
 0002:00006ef8       ??_C@_1BI@IOLFEEM@?$AAe?$AAn?$AAg?$AAl?$AAi?$AAs?$AAh?$AA?9?$AAa?$AAu?$AAs@ 0043eef8     libucrt:get_qualified_locale.obj
 0002:00006f10       ??_C@_1BO@HFFNLENJ@?$AAe?$AAn?$AAg?$AAl?$AAi?$AAs?$AAh?$AA?9?$AAb?$AAe?$AAl?$AAi?$AAz?$AAe@ 0043ef10     libucrt:get_qualified_locale.obj
 0002:00006f30       ??_C@_1BI@HAPKJMPO@?$AAe?$AAn?$AAg?$AAl?$AAi?$AAs?$AAh?$AA?9?$AAc?$AAa?$AAn@ 0043ef30     libucrt:get_qualified_locale.obj
 0002:00006f48       ??_C@_1CE@HLNDMIOJ@?$AAe?$AAn?$AAg?$AAl?$AAi?$AAs?$AAh?$AA?9?$AAc?$AAa?$AAr?$AAi?$AAb?$AAb?$AAe@ 0043ef48     libucrt:get_qualified_locale.obj
 0002:00006f6c       ??_C@_1BI@LDHJHHAC@?$AAe?$AAn?$AAg?$AAl?$AAi?$AAs?$AAh?$AA?9?$AAi?$AAr?$AAe@ 0043ef6c     libucrt:get_qualified_locale.obj
 0002:00006f84       ??_C@_1CA@NJMMCFOC@?$AAe?$AAn?$AAg?$AAl?$AAi?$AAs?$AAh?$AA?9?$AAj?$AAa?$AAm?$AAa?$AAi?$AAc?$AAa@ 0043ef84     libucrt:get_qualified_locale.obj
 0002:00006fa4       ??_C@_1BG@BHJEBBGG@?$AAe?$AAn?$AAg?$AAl?$AAi?$AAs?$AAh?$AA?9?$AAn?$AAz@ 0043efa4     libucrt:get_qualified_locale.obj
 0002:00006fbc       ??_C@_1CK@FGOEJJCO@?$AAe?$AAn?$AAg?$AAl?$AAi?$AAs?$AAh?$AA?9?$AAs?$AAo?$AAu?$AAt?$AAh?$AA?5?$AAa@ 0043efbc     libucrt:get_qualified_locale.obj
 0002:00006fe8       ??_C@_1DE@PDBJPCJ@?$AAe?$AAn?$AAg?$AAl?$AAi?$AAs?$AAh?$AA?9?$AAt?$AAr?$AAi?$AAn?$AAi?$AAd?$AAa@ 0043efe8     libucrt:get_qualified_locale.obj
 0002:0000701c       ??_C@_1BG@JGCANDME@?$AAe?$AAn?$AAg?$AAl?$AAi?$AAs?$AAh?$AA?9?$AAu?$AAk@ 0043f01c     libucrt:get_qualified_locale.obj
 0002:00007034       ??_C@_1BG@DINKMLE@?$AAe?$AAn?$AAg?$AAl?$AAi?$AAs?$AAh?$AA?9?$AAu?$AAs@ 0043f034     libucrt:get_qualified_locale.obj
 0002:0000704c       ??_C@_1BI@NMFDBHJE@?$AAe?$AAn?$AAg?$AAl?$AAi?$AAs?$AAh?$AA?9?$AAu?$AAs?$AAa@ 0043f04c     libucrt:get_qualified_locale.obj
 0002:00007064       ??_C@_1BO@OIHKJKII@?$AAf?$AAr?$AAe?$AAn?$AAc?$AAh?$AA?9?$AAb?$AAe?$AAl?$AAg?$AAi?$AAa?$AAn@ 0043f064     libucrt:get_qualified_locale.obj
 0002:00007084       ??_C@_1CA@NKAELJKI@?$AAf?$AAr?$AAe?$AAn?$AAc?$AAh?$AA?9?$AAc?$AAa?$AAn?$AAa?$AAd?$AAi?$AAa?$AAn@ 0043f084     libucrt:get_qualified_locale.obj
 0002:000070a4       ??_C@_1CE@MGKCNLGN@?$AAf?$AAr?$AAe?$AAn?$AAc?$AAh?$AA?9?$AAl?$AAu?$AAx?$AAe?$AAm?$AAb?$AAo?$AAu@ 0043f0a4     libucrt:get_qualified_locale.obj
 0002:000070c8       ??_C@_1BK@CEGEAILM@?$AAf?$AAr?$AAe?$AAn?$AAc?$AAh?$AA?9?$AAs?$AAw?$AAi?$AAs?$AAs@ 0043f0c8     libucrt:get_qualified_locale.obj
 0002:000070e4       ??_C@_1CA@PAFKEOCC@?$AAg?$AAe?$AAr?$AAm?$AAa?$AAn?$AA?9?$AAa?$AAu?$AAs?$AAt?$AAr?$AAi?$AAa?$AAn@ 0043f0e4     libucrt:get_qualified_locale.obj
 0002:00007104       ??_C@_1CI@HCFHGOFD@?$AAg?$AAe?$AAr?$AAm?$AAa?$AAn?$AA?9?$AAl?$AAi?$AAc?$AAh?$AAt?$AAe?$AAn?$AAs@ 0043f104     libucrt:get_qualified_locale.obj
 0002:0000712c       ??_C@_1CE@FEDDNPDG@?$AAg?$AAe?$AAr?$AAm?$AAa?$AAn?$AA?9?$AAl?$AAu?$AAx?$AAe?$AAm?$AAb?$AAo?$AAu@ 0043f12c     libucrt:get_qualified_locale.obj
 0002:00007150       ??_C@_1BK@LIMINNMN@?$AAg?$AAe?$AAr?$AAm?$AAa?$AAn?$AA?9?$AAs?$AAw?$AAi?$AAs?$AAs@ 0043f150     libucrt:get_qualified_locale.obj
 0002:0000716c       ??_C@_1BM@LGMDBEPD@?$AAi?$AAr?$AAi?$AAs?$AAh?$AA?9?$AAe?$AAn?$AAg?$AAl?$AAi?$AAs?$AAh@ 0043f16c     libucrt:get_qualified_locale.obj
 0002:00007188       ??_C@_1BM@NNCFBAEE@?$AAi?$AAt?$AAa?$AAl?$AAi?$AAa?$AAn?$AA?9?$AAs?$AAw?$AAi?$AAs?$AAs@ 0043f188     libucrt:get_qualified_locale.obj
 0002:000071a4       ??_C@_1BE@FEDJNPIB@?$AAn?$AAo?$AAr?$AAw?$AAe?$AAg?$AAi?$AAa?$AAn@ 0043f1a4     libucrt:get_qualified_locale.obj
 0002:000071b8       ??_C@_1CC@CILKDEIE@?$AAn?$AAo?$AAr?$AAw?$AAe?$AAg?$AAi?$AAa?$AAn?$AA?9?$AAb?$AAo?$AAk?$AAm?$AAa@ 0043f1b8     libucrt:get_qualified_locale.obj
 0002:000071dc       ??_C@_1CE@DHMMHEPL@?$AAn?$AAo?$AAr?$AAw?$AAe?$AAg?$AAi?$AAa?$AAn?$AA?9?$AAn?$AAy?$AAn?$AAo?$AAr@ 0043f1dc     libucrt:get_qualified_locale.obj
 0002:00007200       ??_C@_1CK@OPNMHECD@?$AAp?$AAo?$AAr?$AAt?$AAu?$AAg?$AAu?$AAe?$AAs?$AAe?$AA?9?$AAb?$AAr?$AAa?$AAz@ 0043f200     libucrt:get_qualified_locale.obj
 0002:0000722c       ??_C@_1CE@KEEHCDB@?$AAs?$AAp?$AAa?$AAn?$AAi?$AAs?$AAh?$AA?9?$AAa?$AAr?$AAg?$AAe?$AAn?$AAt?$AAi@ 0043f22c     libucrt:get_qualified_locale.obj
 0002:00007250       ??_C@_1CA@GIAOLHJD@?$AAs?$AAp?$AAa?$AAn?$AAi?$AAs?$AAh?$AA?9?$AAb?$AAo?$AAl?$AAi?$AAv?$AAi?$AAa@ 0043f250     libucrt:get_qualified_locale.obj
 0002:00007270       ??_C@_1BM@OJNDFNPD@?$AAs?$AAp?$AAa?$AAn?$AAi?$AAs?$AAh?$AA?9?$AAc?$AAh?$AAi?$AAl?$AAe@ 0043f270     libucrt:get_qualified_locale.obj
 0002:0000728c       ??_C@_1CC@OCOLPALL@?$AAs?$AAp?$AAa?$AAn?$AAi?$AAs?$AAh?$AA?9?$AAc?$AAo?$AAl?$AAo?$AAm?$AAb?$AAi@ 0043f28c     libucrt:get_qualified_locale.obj
 0002:000072b0       ??_C@_1CG@BPOFMKBB@?$AAs?$AAp?$AAa?$AAn?$AAi?$AAs?$AAh?$AA?9?$AAc?$AAo?$AAs?$AAt?$AAa?$AA?5?$AAr@ 0043f2b0     libucrt:get_qualified_locale.obj
 0002:000072d8       ??_C@_1DG@IGOBAPBB@?$AAs?$AAp?$AAa?$AAn?$AAi?$AAs?$AAh?$AA?9?$AAd?$AAo?$AAm?$AAi?$AAn?$AAi?$AAc@ 0043f2d8     libucrt:get_qualified_locale.obj
 0002:00007310       ??_C@_1CA@JHAPGEGI@?$AAs?$AAp?$AAa?$AAn?$AAi?$AAs?$AAh?$AA?9?$AAe?$AAc?$AAu?$AAa?$AAd?$AAo?$AAr@ 0043f310     libucrt:get_qualified_locale.obj
 0002:00007330       ??_C@_1CI@LAPALJPP@?$AAs?$AAp?$AAa?$AAn?$AAi?$AAs?$AAh?$AA?9?$AAe?$AAl?$AA?5?$AAs?$AAa?$AAl?$AAv@ 0043f330     libucrt:get_qualified_locale.obj
 0002:00007358       ??_C@_1CE@PDGBOFOM@?$AAs?$AAp?$AAa?$AAn?$AAi?$AAs?$AAh?$AA?9?$AAg?$AAu?$AAa?$AAt?$AAe?$AAm?$AAa@ 0043f358     libucrt:get_qualified_locale.obj
 0002:0000737c       ??_C@_1CC@NBEBAODI@?$AAs?$AAp?$AAa?$AAn?$AAi?$AAs?$AAh?$AA?9?$AAh?$AAo?$AAn?$AAd?$AAu?$AAr?$AAa@ 0043f37c     libucrt:get_qualified_locale.obj
 0002:000073a0       ??_C@_1CA@LLKGHBMF@?$AAs?$AAp?$AAa?$AAn?$AAi?$AAs?$AAh?$AA?9?$AAm?$AAe?$AAx?$AAi?$AAc?$AAa?$AAn@ 0043f3a0     libucrt:get_qualified_locale.obj
 0002:000073c0       ??_C@_1BO@LKNDOIGD@?$AAs?$AAp?$AAa?$AAn?$AAi?$AAs?$AAh?$AA?9?$AAm?$AAo?$AAd?$AAe?$AAr?$AAn@ 0043f3c0     libucrt:get_qualified_locale.obj
 0002:000073e0       ??_C@_1CE@NMDMOEEB@?$AAs?$AAp?$AAa?$AAn?$AAi?$AAs?$AAh?$AA?9?$AAn?$AAi?$AAc?$AAa?$AAr?$AAa?$AAg@ 0043f3e0     libucrt:get_qualified_locale.obj
 0002:00007404       ??_C@_1BO@LLCBEJGB@?$AAs?$AAp?$AAa?$AAn?$AAi?$AAs?$AAh?$AA?9?$AAp?$AAa?$AAn?$AAa?$AAm?$AAa@ 0043f404     libucrt:get_qualified_locale.obj
 0002:00007424       ??_C@_1CC@FKPGGIHO@?$AAs?$AAp?$AAa?$AAn?$AAi?$AAs?$AAh?$AA?9?$AAp?$AAa?$AAr?$AAa?$AAg?$AAu?$AAa@ 0043f424     libucrt:get_qualified_locale.obj
 0002:00007448       ??_C@_1BK@CDEIHOOP@?$AAs?$AAp?$AAa?$AAn?$AAi?$AAs?$AAh?$AA?9?$AAp?$AAe?$AAr?$AAu@ 0043f448     libucrt:get_qualified_locale.obj
 0002:00007464       ??_C@_1CI@GAHAKKGP@?$AAs?$AAp?$AAa?$AAn?$AAi?$AAs?$AAh?$AA?9?$AAp?$AAu?$AAe?$AAr?$AAt?$AAo?$AA?5@ 0043f464     libucrt:get_qualified_locale.obj
 0002:0000748c       ??_C@_1CA@NKJBCAGP@?$AAs?$AAp?$AAa?$AAn?$AAi?$AAs?$AAh?$AA?9?$AAu?$AAr?$AAu?$AAg?$AAu?$AAa?$AAy@ 0043f48c     libucrt:get_qualified_locale.obj
 0002:000074ac       ??_C@_1CE@ODILCONM@?$AAs?$AAp?$AAa?$AAn?$AAi?$AAs?$AAh?$AA?9?$AAv?$AAe?$AAn?$AAe?$AAz?$AAu?$AAe@ 0043f4ac     libucrt:get_qualified_locale.obj
 0002:000074d0       ??_C@_1CA@OBNMCGFO@?$AAs?$AAw?$AAe?$AAd?$AAi?$AAs?$AAh?$AA?9?$AAf?$AAi?$AAn?$AAl?$AAa?$AAn?$AAd@ 0043f4d0     libucrt:get_qualified_locale.obj
 0002:000074f0       ??_C@_1M@PIPDDPPI@?$AAs?$AAw?$AAi?$AAs?$AAs@ 0043f4f0     libucrt:get_qualified_locale.obj
 0002:000074fc       ??_C@_15PJPFLCCM@?$AAu?$AAk@ 0043f4fc     libucrt:get_qualified_locale.obj
 0002:00007504       ??_C@_15GMFIMNFM@?$AAu?$AAs@ 0043f504     libucrt:get_qualified_locale.obj
 0002:0000750c       ??_C@_17HAEBFAGL@?$AAu?$AAs?$AAa@ 0043f50c     libucrt:get_qualified_locale.obj
 0002:00007514       ??_C@_1BA@DPFJEPHB@?$AAa?$AAm?$AAe?$AAr?$AAi?$AAc?$AAa@ 0043f514     libucrt:get_qualified_locale.obj
 0002:00007524       ??_C@_1BA@ELOGGFK@?$AAb?$AAr?$AAi?$AAt?$AAa?$AAi?$AAn@ 0043f524     libucrt:get_qualified_locale.obj
 0002:00007534       ??_C@_1M@GHBGIGDA@?$AAc?$AAh?$AAi?$AAn?$AAa@ 0043f534     libucrt:get_qualified_locale.obj
 0002:00007540       ??_C@_1M@NCHEJOPO@?$AAc?$AAz?$AAe?$AAc?$AAh@ 0043f540     libucrt:get_qualified_locale.obj
 0002:0000754c       ??_C@_1BA@BKPAPBLA@?$AAe?$AAn?$AAg?$AAl?$AAa?$AAn?$AAd@ 0043f54c     libucrt:get_qualified_locale.obj
 0002:0000755c       ??_C@_1BM@HKBCKIPC@?$AAg?$AAr?$AAe?$AAa?$AAt?$AA?5?$AAb?$AAr?$AAi?$AAt?$AAa?$AAi?$AAn@ 0043f55c     libucrt:get_qualified_locale.obj
 0002:00007578       ??_C@_1BA@PPCHPGJB@?$AAh?$AAo?$AAl?$AAl?$AAa?$AAn?$AAd@ 0043f578     libucrt:get_qualified_locale.obj
 0002:00007588       ??_C@_1BE@JBMPEGDG@?$AAh?$AAo?$AAn?$AAg?$AA?9?$AAk?$AAo?$AAn?$AAg@ 0043f588     libucrt:get_qualified_locale.obj
 0002:0000759c       ??_C@_1BI@KOELBBPJ@?$AAn?$AAe?$AAw?$AA?9?$AAz?$AAe?$AAa?$AAl?$AAa?$AAn?$AAd@ 0043f59c     libucrt:get_qualified_locale.obj
 0002:000075b4       ??_C@_15HIEBHAIO@?$AAn?$AAz@ 0043f5b4     libucrt:get_qualified_locale.obj
 0002:000075bc       ??_C@_1BC@CHBCPFPI@?$AAp?$AAr?$AA?5?$AAc?$AAh?$AAi?$AAn?$AAa@ 0043f5bc     libucrt:get_qualified_locale.obj
 0002:000075d0       ??_C@_1BC@JAOIIFKD@?$AAp?$AAr?$AA?9?$AAc?$AAh?$AAi?$AAn?$AAa@ 0043f5d0     libucrt:get_qualified_locale.obj
 0002:000075e4       ??_C@_1BI@BEHPPHKC@?$AAp?$AAu?$AAe?$AAr?$AAt?$AAo?$AA?9?$AAr?$AAi?$AAc?$AAo@ 0043f5e4     libucrt:get_qualified_locale.obj
 0002:000075fc       ??_C@_1O@PAEOFKDI@?$AAs?$AAl?$AAo?$AAv?$AAa?$AAk@ 0043f5fc     libucrt:get_qualified_locale.obj
 0002:0000760c       ??_C@_1BK@FIHMCKAM@?$AAs?$AAo?$AAu?$AAt?$AAh?$AA?5?$AAa?$AAf?$AAr?$AAi?$AAc?$AAa@ 0043f60c     libucrt:get_qualified_locale.obj
 0002:00007628       ??_C@_1BI@NAEOODKB@?$AAs?$AAo?$AAu?$AAt?$AAh?$AA?5?$AAk?$AAo?$AAr?$AAe?$AAa@ 0043f628     libucrt:get_qualified_locale.obj
 0002:00007640       ??_C@_1BK@FBDGGIFF@?$AAs?$AAo?$AAu?$AAt?$AAh?$AA?9?$AAa?$AAf?$AAr?$AAi?$AAc?$AAa@ 0043f640     libucrt:get_qualified_locale.obj
 0002:0000765c       ??_C@_1BI@GHLEJDPK@?$AAs?$AAo?$AAu?$AAt?$AAh?$AA?9?$AAk?$AAo?$AAr?$AAe?$AAa@ 0043f65c     libucrt:get_qualified_locale.obj
 0002:00007674       ??_C@_1CE@PLHLOMJF@?$AAt?$AAr?$AAi?$AAn?$AAi?$AAd?$AAa?$AAd?$AA?5?$AA?$CG?$AA?5?$AAt?$AAo?$AAb?$AAa@ 0043f674     libucrt:get_qualified_locale.obj
 0002:00007698       ??_C@_1BO@MODIMHHI@?$AAu?$AAn?$AAi?$AAt?$AAe?$AAd?$AA?9?$AAk?$AAi?$AAn?$AAg?$AAd?$AAo?$AAm@ 0043f698     libucrt:get_qualified_locale.obj
 0002:000076b8       ??_C@_1BM@FFHJONBJ@?$AAu?$AAn?$AAi?$AAt?$AAe?$AAd?$AA?9?$AAs?$AAt?$AAa?$AAt?$AAe?$AAs@ 0043f6b8     libucrt:get_qualified_locale.obj
 0002:000076d4       ??_C@_19MPDNHKDG@?$AAu?$AAt?$AAf?$AA8@ 0043f6d4     libucrt:get_qualified_locale.obj
 0002:000076e0       ??_C@_17DNCLJFIF@?$AAA?$AAC?$AAP@ 0043f6e0     libucrt:get_qualified_locale.obj
 0002:000076e8       ??_C@_1M@FPEIIFAM@?$AAu?$AAt?$AAf?$AA?9?$AA8@ 0043f6e8     libucrt:get_qualified_locale.obj
 0002:000076f4       ??_C@_17CIKBIHLH@?$AAO?$AAC?$AAP@ 0043f6f4     libucrt:get_qualified_locale.obj
 0002:000076fc       ___rglangidNotDefault      0043f6fc     libucrt:getqloc_downlevel.obj
 0002:00007710       ??_C@_01GBGANLPD@0@        0043f710     libucrt:cfout.obj
 0002:00007714       ??_C@_05DNEBIAHO@1?$CDINF@ 0043f714     libucrt:cfout.obj
 0002:0000771c       ??_C@_06IMKFLFPG@1?$CDQNAN@ 0043f71c     libucrt:cfout.obj
 0002:00007724       ??_C@_06PGGFOGJG@1?$CDSNAN@ 0043f724     libucrt:cfout.obj
 0002:0000772c       ??_C@_05PHHOCPM@1?$CDIND@  0043f72c     libucrt:cfout.obj
 0002:00007e58       ??_C@_15EMKDOKLE@?$AAa?$AAr@ 0043fe58     libucrt:lcidtoname_downlevel.obj
 0002:00007e60       ??_C@_15KNPADPLH@?$AAb?$AAg@ 0043fe60     libucrt:lcidtoname_downlevel.obj
 0002:00007e68       ??_C@_15EDMHLDMO@?$AAc?$AAa@ 0043fe68     libucrt:lcidtoname_downlevel.obj
 0002:00007e70       ??_C@_1O@BPEAJADD@?$AAz?$AAh?$AA?9?$AAC?$AAH?$AAS@ 0043fe70     libucrt:lcidtoname_downlevel.obj
 0002:00007e80       ??_C@_15LJNHCMNK@?$AAc?$AAs@ 0043fe80     libucrt:lcidtoname_downlevel.obj
 0002:00007e88       ??_C@_15FOMCIDHG@?$AAd?$AAa@ 0043fe88     libucrt:lcidtoname_downlevel.obj
 0002:00007e90       ??_C@_15NBKABECB@?$AAd?$AAe@ 0043fe90     libucrt:lcidtoname_downlevel.obj
 0002:00007e98       ??_C@_15GHPEIIAO@?$AAe?$AAl@ 0043fe98     libucrt:lcidtoname_downlevel.obj
 0002:00007ea0       ??_C@_15MNPNEAIF@?$AAe?$AAn@ 0043fea0     libucrt:lcidtoname_downlevel.obj
 0002:00007ea8       ??_C@_15GPIOMPMH@?$AAe?$AAs@ 0043fea8     libucrt:lcidtoname_downlevel.obj
 0002:00007eb0       ??_C@_15NGLOAKJC@?$AAf?$AAi@ 0043feb0     libucrt:lcidtoname_downlevel.obj
 0002:00007eb8       ??_C@_15FBKGNKAM@?$AAf?$AAr@ 0043feb8     libucrt:lcidtoname_downlevel.obj
 0002:00007ec0       ??_C@_15KGGCNEFK@?$AAh?$AAe@ 0043fec0     libucrt:lcidtoname_downlevel.obj
 0002:00007ec8       ??_C@_15PGHLIDMF@?$AAh?$AAu@ 0043fec8     libucrt:lcidtoname_downlevel.obj
 0002:00007ed0       ??_C@_15BIEMAPLM@?$AAi?$AAs@ 0043fed0     libucrt:lcidtoname_downlevel.obj
 0002:00007ed8       ??_C@_15IFJLDHAF@?$AAi?$AAt@ 0043fed8     libucrt:lcidtoname_downlevel.obj
 0002:00007ee0       ??_C@_15GEMIOCAG@?$AAj?$AAa@ 0043fee0     libucrt:lcidtoname_downlevel.obj
 0002:00007ee8       ??_C@_15EPELEGJA@?$AAk?$AAo@ 0043fee8     libucrt:lcidtoname_downlevel.obj
 0002:00007ef0       ??_C@_15NDDHIMN@?$AAn?$AAl@ 0043fef0     libucrt:lcidtoname_downlevel.obj
 0002:00007ef8       ??_C@_15BPIGNHCD@?$AAn?$AAo@ 0043fef8     libucrt:lcidtoname_downlevel.obj
 0002:00007f00       ??_C@_15DEOPBLCG@?$AAp?$AAl@ 0043ff00     libucrt:lcidtoname_downlevel.obj
 0002:00007f08       ??_C@_15KBECGEFG@?$AAp?$AAt@ 0043ff08     libucrt:lcidtoname_downlevel.obj
 0002:00007f10       ??_C@_15GLJCBFMD@?$AAr?$AAo@ 0043ff10     libucrt:lcidtoname_downlevel.obj
 0002:00007f18       ??_C@_15FEDGKCDI@?$AAr?$AAu@ 0043ff18     libucrt:lcidtoname_downlevel.obj
 0002:00007f20       ??_C@_15GLKMLLHM@?$AAh?$AAr@ 0043ff20     libucrt:lcidtoname_downlevel.obj
 0002:00007f28       ??_C@_15CPKMFBDB@?$AAs?$AAk@ 0043ff28     libucrt:lcidtoname_downlevel.obj
 0002:00007f30       ??_C@_15BAAIOGMK@?$AAs?$AAq@ 0043ff30     libucrt:lcidtoname_downlevel.obj
 0002:00007f38       ??_C@_15INNPNOHD@?$AAs?$AAv@ 0043ff38     libucrt:lcidtoname_downlevel.obj
 0002:00007f40       ??_C@_15CABMMOGH@?$AAt?$AAh@ 0043ff40     libucrt:lcidtoname_downlevel.obj
 0002:00007f48       ??_C@_15BPLIHJJM@?$AAt?$AAr@ 0043ff48     libucrt:lcidtoname_downlevel.obj
 0002:00007f50       ??_C@_15NEOEKKDJ@?$AAu?$AAr@ 0043ff50     libucrt:lcidtoname_downlevel.obj
 0002:00007f58       ??_C@_15NFICGAJK@?$AAi?$AAd@ 0043ff58     libucrt:lcidtoname_downlevel.obj
 0002:00007f60       ??_C@_15HPJPHDM@?$AAb?$AAe@ 0043ff60     libucrt:lcidtoname_downlevel.obj
 0002:00007f68       ??_C@_15LCHLGJII@?$AAs?$AAl@ 0043ff68     libucrt:lcidtoname_downlevel.obj
 0002:00007f70       ??_C@_15PCFJPHHO@?$AAe?$AAt@ 0043ff70     libucrt:lcidtoname_downlevel.obj
 0002:00007f78       ??_C@_15HPFPGODN@?$AAl?$AAv@ 0043ff78     libucrt:lcidtoname_downlevel.obj
 0002:00007f80       ??_C@_15NFFGKGLG@?$AAl?$AAt@ 0043ff80     libucrt:lcidtoname_downlevel.obj
 0002:00007f88       ??_C@_15BDAKCCHN@?$AAf?$AAa@ 0043ff88     libucrt:lcidtoname_downlevel.obj
 0002:00007f90       ??_C@_15NFGIAIAJ@?$AAv?$AAi@ 0043ff90     libucrt:lcidtoname_downlevel.obj
 0002:00007f98       ??_C@_15LMKNDMHN@?$AAh?$AAy@ 0043ff98     libucrt:lcidtoname_downlevel.obj
 0002:00007fa0       ??_C@_15IJBHMCFL@?$AAa?$AAz@ 0043ffa0     libucrt:lcidtoname_downlevel.obj
 0002:00007fa8       ??_C@_15EKOFJABL@?$AAe?$AAu@ 0043ffa8     libucrt:lcidtoname_downlevel.obj
 0002:00007fb0       ??_C@_15BGHADCNK@?$AAm?$AAk@ 0043ffb0     libucrt:lcidtoname_downlevel.obj
 0002:00007fb8       ??_C@_15JDNICKHM@?$AAa?$AAf@ 0043ffb8     libucrt:lcidtoname_downlevel.obj
 0002:00007fc0       ??_C@_15KPJEDBKD@?$AAk?$AAa@ 0043ffc0     libucrt:lcidtoname_downlevel.obj
 0002:00007fc8       ??_C@_15PDNFFFEO@?$AAf?$AAo@ 0043ffc8     libucrt:lcidtoname_downlevel.obj
 0002:00007fd0       ??_C@_15OMLEGLOC@?$AAh?$AAi@ 0043ffd0     libucrt:lcidtoname_downlevel.obj
 0002:00007fd8       ??_C@_15IDNNENKK@?$AAm?$AAs@ 0043ffd8     libucrt:lcidtoname_downlevel.obj
 0002:00007fe0       ??_C@_15MACJNBMH@?$AAk?$AAk@ 0043ffe0     libucrt:lcidtoname_downlevel.obj
 0002:00007fe8       ??_C@_15DKDJEOND@?$AAk?$AAy@ 0043ffe8     libucrt:lcidtoname_downlevel.obj
 0002:00007ff0       ??_C@_15DFGDLJBG@?$AAs?$AAw@ 0043fff0     libucrt:lcidtoname_downlevel.obj
 0002:00007ff8       ??_C@_15BBFAICNG@?$AAu?$AAz@ 0043fff8     libucrt:lcidtoname_downlevel.obj
 0002:00008000       ??_C@_15DKNDCGEA@?$AAt?$AAt@ 00440000     libucrt:lcidtoname_downlevel.obj
 0002:00008008       ??_C@_15MGIFMDPL@?$AAp?$AAa@ 00440008     libucrt:lcidtoname_downlevel.obj
 0002:00008010       ??_C@_15HCNDBBA@?$AAg?$AAu@ 00440010     libucrt:lcidtoname_downlevel.obj
 0002:00008018       ??_C@_15FNBEIBON@?$AAt?$AAa@ 00440018     libucrt:lcidtoname_downlevel.obj
 0002:00008020       ??_C@_15NCHGBGLK@?$AAt?$AAe@ 00440020     libucrt:lcidtoname_downlevel.obj
 0002:00008028       ??_C@_15PHPHCBPF@?$AAk?$AAn@ 00440028     libucrt:lcidtoname_downlevel.obj
 0002:00008030       ??_C@_15DLGBCKMP@?$AAm?$AAr@ 00440030     libucrt:lcidtoname_downlevel.obj
 0002:00008038       ??_C@_15EABBLBFF@?$AAs?$AAa@ 00440038     libucrt:lcidtoname_downlevel.obj
 0002:00008040       ??_C@_15CBKOMCOI@?$AAm?$AAn@ 00440040     libucrt:lcidtoname_downlevel.obj
 0002:00008048       ??_C@_15CKDMCJAF@?$AAg?$AAl@ 00440048     libucrt:lcidtoname_downlevel.obj
 0002:00008050       ??_C@_17CNJFBPG@?$AAk?$AAo?$AAk@ 00440050     libucrt:lcidtoname_downlevel.obj
 0002:00008058       ??_C@_17FFBJICPL@?$AAs?$AAy?$AAr@ 00440058     libucrt:lcidtoname_downlevel.obj
 0002:00008060       ??_C@_17KPNDCPAF@?$AAd?$AAi?$AAv@ 00440060     libucrt:lcidtoname_downlevel.obj
 0002:00008068       ??_C@_1M@OKAHONE@?$AAa?$AAr?$AA?9?$AAS?$AAA@ 00440068     libucrt:lcidtoname_downlevel.obj
 0002:00008074       ??_C@_1M@FFFIGIGK@?$AAb?$AAg?$AA?9?$AAB?$AAG@ 00440074     libucrt:lcidtoname_downlevel.obj
 0002:00008080       ??_C@_1M@BJNKEDC@?$AAc?$AAa?$AA?9?$AAE?$AAS@ 00440080     libucrt:lcidtoname_downlevel.obj
 0002:0000808c       ??_C@_1M@IJJHFJHA@?$AAc?$AAs?$AA?9?$AAC?$AAZ@ 0044008c     libucrt:lcidtoname_downlevel.obj
 0002:00008098       ??_C@_1M@CLPEOBGI@?$AAd?$AAa?$AA?9?$AAD?$AAK@ 00440098     libucrt:lcidtoname_downlevel.obj
 0002:000080a4       ??_C@_1M@MCMADGCB@?$AAd?$AAe?$AA?9?$AAD?$AAE@ 004400a4     libucrt:lcidtoname_downlevel.obj
 0002:000080b0       ??_C@_1M@OOCKEMAM@?$AAe?$AAl?$AA?9?$AAG?$AAR@ 004400b0     libucrt:lcidtoname_downlevel.obj
 0002:000080bc       ??_C@_1M@DDNJFGID@?$AAf?$AAi?$AA?9?$AAF?$AAI@ 004400bc     libucrt:lcidtoname_downlevel.obj
 0002:000080c8       ??_C@_1M@GLIPPMAC@?$AAf?$AAr?$AA?9?$AAF?$AAR@ 004400c8     libucrt:lcidtoname_downlevel.obj
 0002:000080d4       ??_C@_1M@GFMCHPE@?$AAh?$AAe?$AA?9?$AAI?$AAL@ 004400d4     libucrt:lcidtoname_downlevel.obj
 0002:000080e0       ??_C@_1M@MHLPGNKM@?$AAh?$AAu?$AA?9?$AAH?$AAU@ 004400e0     libucrt:lcidtoname_downlevel.obj
 0002:000080ec       ??_C@_1M@LPDDNNPN@?$AAi?$AAs?$AA?9?$AAI?$AAS@ 004400ec     libucrt:lcidtoname_downlevel.obj
 0002:000080f8       ??_C@_1M@MADIPODN@?$AAi?$AAt?$AA?9?$AAI?$AAT@ 004400f8     libucrt:lcidtoname_downlevel.obj
 0002:00008104       ??_C@_1M@IHBJJGG@?$AAn?$AAl?$AA?9?$AAN?$AAL@ 00440104     libucrt:lcidtoname_downlevel.obj
 0002:00008110       ??_C@_1M@EANAGDL@?$AAn?$AAb?$AA?9?$AAN?$AAO@ 00440110     libucrt:lcidtoname_downlevel.obj
 0002:0000811c       ??_C@_1M@NEIEMEGP@?$AAp?$AAl?$AA?9?$AAP?$AAL@ 0044011c     libucrt:lcidtoname_downlevel.obj
 0002:00008128       ??_C@_1M@BOCFIGEP@?$AAp?$AAt?$AA?9?$AAB?$AAR@ 00440128     libucrt:lcidtoname_downlevel.obj
 0002:00008134       ??_C@_1M@IMPFOPBG@?$AAr?$AAo?$AA?9?$AAR?$AAO@ 00440134     libucrt:lcidtoname_downlevel.obj
 0002:00008140       ??_C@_1M@IDNNEJMM@?$AAr?$AAu?$AA?9?$AAR?$AAU@ 00440140     libucrt:lcidtoname_downlevel.obj
 0002:0000814c       ??_C@_1M@LILEEOGM@?$AAh?$AAr?$AA?9?$AAH?$AAR@ 0044014c     libucrt:lcidtoname_downlevel.obj
 0002:00008158       ??_C@_1M@FKIFEHPB@?$AAs?$AAk?$AA?9?$AAS?$AAK@ 00440158     libucrt:lcidtoname_downlevel.obj
 0002:00008164       ??_C@_1M@LJMAMNPJ@?$AAs?$AAq?$AA?9?$AAA?$AAL@ 00440164     libucrt:lcidtoname_downlevel.obj
 0002:00008170       ??_C@_1M@GIAKDKJK@?$AAs?$AAv?$AA?9?$AAS?$AAE@ 00440170     libucrt:lcidtoname_downlevel.obj
 0002:0000817c       ??_C@_1M@MKJKIKCL@?$AAt?$AAh?$AA?9?$AAT?$AAH@ 0044017c     libucrt:lcidtoname_downlevel.obj
 0002:00008188       ??_C@_1M@MFLCCMPB@?$AAt?$AAr?$AA?9?$AAT?$AAR@ 00440188     libucrt:lcidtoname_downlevel.obj
 0002:00008194       ??_C@_1M@OIJHDKJN@?$AAu?$AAr?$AA?9?$AAP?$AAK@ 00440194     libucrt:lcidtoname_downlevel.obj
 0002:000081a0       ??_C@_1M@LHIPCIEK@?$AAi?$AAd?$AA?9?$AAI?$AAD@ 004401a0     libucrt:lcidtoname_downlevel.obj
 0002:000081ac       ??_C@_1M@MFMOBGI@?$AAu?$AAk?$AA?9?$AAU?$AAA@ 004401ac     libucrt:lcidtoname_downlevel.obj
 0002:000081b8       ??_C@_1M@OBGLJIPL@?$AAb?$AAe?$AA?9?$AAB?$AAY@ 004401b8     libucrt:lcidtoname_downlevel.obj
 0002:000081c4       ??_C@_1M@BCFAJEAD@?$AAs?$AAl?$AA?9?$AAS?$AAI@ 004401c4     libucrt:lcidtoname_downlevel.obj
 0002:000081d0       ??_C@_1M@FKFFEDDN@?$AAe?$AAt?$AA?9?$AAE?$AAE@ 004401d0     libucrt:lcidtoname_downlevel.obj
 0002:000081dc       ??_C@_1M@KGKKAACI@?$AAl?$AAv?$AA?9?$AAL?$AAV@ 004401dc     libucrt:lcidtoname_downlevel.obj
 0002:000081e8       ??_C@_1M@IFGBIJO@?$AAl?$AAt?$AA?9?$AAL?$AAT@ 004401e8     libucrt:lcidtoname_downlevel.obj
 0002:000081f4       ??_C@_1M@FGEAHEDM@?$AAf?$AAa?$AA?9?$AAI?$AAR@ 004401f4     libucrt:lcidtoname_downlevel.obj
 0002:00008200       ??_C@_1M@KBMAIBFN@?$AAv?$AAi?$AA?9?$AAV?$AAN@ 00440200     libucrt:lcidtoname_downlevel.obj
 0002:0000820c       ??_C@_1M@GPCBKDJK@?$AAh?$AAy?$AA?9?$AAA?$AAM@ 0044020c     libucrt:lcidtoname_downlevel.obj
 0002:00008218       ??_C@_1BG@BECMDDJB@?$AAa?$AAz?$AA?9?$AAA?$AAZ?$AA?9?$AAL?$AAa?$AAt?$AAn@ 00440218     libucrt:lcidtoname_downlevel.obj
 0002:00008230       ??_C@_1M@MAOFCAEA@?$AAe?$AAu?$AA?9?$AAE?$AAS@ 00440230     libucrt:lcidtoname_downlevel.obj
 0002:0000823c       ??_C@_1M@IGHABKPI@?$AAm?$AAk?$AA?9?$AAM?$AAK@ 0044023c     libucrt:lcidtoname_downlevel.obj
 0002:00008248       ??_C@_1M@IAIGNEJG@?$AAt?$AAn?$AA?9?$AAZ?$AAA@ 00440248     libucrt:lcidtoname_downlevel.obj
 0002:00008254       ??_C@_1M@IIJCOJFA@?$AAx?$AAh?$AA?9?$AAZ?$AAA@ 00440254     libucrt:lcidtoname_downlevel.obj
 0002:00008260       ??_C@_1M@LGPJHNJH@?$AAz?$AAu?$AA?9?$AAZ?$AAA@ 00440260     libucrt:lcidtoname_downlevel.obj
 0002:0000826c       ??_C@_1M@HOKAOIO@?$AAa?$AAf?$AA?9?$AAZ?$AAA@ 0044026c     libucrt:lcidtoname_downlevel.obj
 0002:00008278       ??_C@_1M@DPCLHLIE@?$AAk?$AAa?$AA?9?$AAG?$AAE@ 00440278     libucrt:lcidtoname_downlevel.obj
 0002:00008284       ??_C@_1M@BLKMHJBI@?$AAf?$AAo?$AA?9?$AAF?$AAO@ 00440284     libucrt:lcidtoname_downlevel.obj
 0002:00008290       ??_C@_1M@LGGJAPPB@?$AAh?$AAi?$AA?9?$AAI?$AAN@ 00440290     libucrt:lcidtoname_downlevel.obj
 0002:0000829c       ??_C@_1M@FIKPIHFE@?$AAm?$AAt?$AA?9?$AAM?$AAT@ 0044029c     libucrt:lcidtoname_downlevel.obj
 0002:000082a8       ??_C@_1M@HEGGPBFA@?$AAs?$AAe?$AA?9?$AAN?$AAO@ 004402a8     libucrt:lcidtoname_downlevel.obj
 0002:000082b4       ??_C@_1M@EIBJEEPA@?$AAm?$AAs?$AA?9?$AAM?$AAY@ 004402b4     libucrt:lcidtoname_downlevel.obj
 0002:000082c0       ??_C@_1M@FHLBGMPP@?$AAk?$AAk?$AA?9?$AAK?$AAZ@ 004402c0     libucrt:lcidtoname_downlevel.obj
 0002:000082cc       ??_C@_1M@NGJJLCGI@?$AAk?$AAy?$AA?9?$AAK?$AAG@ 004402cc     libucrt:lcidtoname_downlevel.obj
 0002:000082d8       ??_C@_1M@GIENNBFC@?$AAs?$AAw?$AA?9?$AAK?$AAE@ 004402d8     libucrt:lcidtoname_downlevel.obj
 0002:000082e4       ??_C@_1BG@NDGMJIMJ@?$AAu?$AAz?$AA?9?$AAU?$AAZ?$AA?9?$AAL?$AAa?$AAt?$AAn@ 004402e4     libucrt:lcidtoname_downlevel.obj
 0002:000082fc       ??_C@_1M@IDCCIHBC@?$AAt?$AAt?$AA?9?$AAR?$AAU@ 004402fc     libucrt:lcidtoname_downlevel.obj
 0002:00008308       ??_C@_1M@LOICPMOJ@?$AAb?$AAn?$AA?9?$AAI?$AAN@ 00440308     libucrt:lcidtoname_downlevel.obj
 0002:00008314       ??_C@_1M@KPKKNEAH@?$AAp?$AAa?$AA?9?$AAI?$AAN@ 00440314     libucrt:lcidtoname_downlevel.obj
 0002:00008320       ??_C@_1M@PJGPPBOG@?$AAg?$AAu?$AA?9?$AAI?$AAN@ 00440320     libucrt:lcidtoname_downlevel.obj
 0002:0000832c       ??_C@_1M@KMKMOPHI@?$AAt?$AAa?$AA?9?$AAI?$AAN@ 0044032c     libucrt:lcidtoname_downlevel.obj
 0002:00008338       ??_C@_1M@KFEHEPAC@?$AAt?$AAe?$AA?9?$AAI?$AAN@ 00440338     libucrt:lcidtoname_downlevel.obj
 0002:00008344       ??_C@_1M@CDCLMGHI@?$AAk?$AAn?$AA?9?$AAI?$AAN@ 00440344     libucrt:lcidtoname_downlevel.obj
 0002:00008350       ??_C@_1M@MIODLDKF@?$AAm?$AAl?$AA?9?$AAI?$AAN@ 00440350     libucrt:lcidtoname_downlevel.obj
 0002:0000835c       ??_C@_1M@PBIEACPO@?$AAm?$AAr?$AA?9?$AAI?$AAN@ 0044035c     libucrt:lcidtoname_downlevel.obj
 0002:00008368       ??_C@_1M@NIDEAGPH@?$AAs?$AAa?$AA?9?$AAI?$AAN@ 00440368     libucrt:lcidtoname_downlevel.obj
 0002:00008374       ??_C@_1M@FHIHCBIO@?$AAm?$AAn?$AA?9?$AAM?$AAN@ 00440374     libucrt:lcidtoname_downlevel.obj
 0002:00008380       ??_C@_1M@JAIJPENP@?$AAc?$AAy?$AA?9?$AAG?$AAB@ 00440380     libucrt:lcidtoname_downlevel.obj
 0002:0000838c       ??_C@_1M@PHGFBEPN@?$AAg?$AAl?$AA?9?$AAE?$AAS@ 0044038c     libucrt:lcidtoname_downlevel.obj
 0002:00008398       ??_C@_1O@KPIPDNCP@?$AAk?$AAo?$AAk?$AA?9?$AAI?$AAN@ 00440398     libucrt:lcidtoname_downlevel.obj
 0002:000083a8       ??_C@_1O@KNHJLDJA@?$AAs?$AAy?$AAr?$AA?9?$AAS?$AAY@ 004403a8     libucrt:lcidtoname_downlevel.obj
 0002:000083b8       ??_C@_1O@MKEKBLAH@?$AAd?$AAi?$AAv?$AA?9?$AAM?$AAV@ 004403b8     libucrt:lcidtoname_downlevel.obj
 0002:000083c8       ??_C@_1O@OHDCKDDF@?$AAq?$AAu?$AAz?$AA?9?$AAB?$AAO@ 004403c8     libucrt:lcidtoname_downlevel.obj
 0002:000083d8       ??_C@_1M@LEPJNLFD@?$AAn?$AAs?$AA?9?$AAZ?$AAA@ 004403d8     libucrt:lcidtoname_downlevel.obj
 0002:000083e4       ??_C@_1M@OMLEIIJB@?$AAm?$AAi?$AA?9?$AAN?$AAZ@ 004403e4     libucrt:lcidtoname_downlevel.obj
 0002:000083f0       ??_C@_1M@PMPEAILG@?$AAa?$AAr?$AA?9?$AAI?$AAQ@ 004403f0     libucrt:lcidtoname_downlevel.obj
 0002:000083fc       ??_C@_1M@CNKPNOEE@?$AAd?$AAe?$AA?9?$AAC?$AAH@ 004403fc     libucrt:lcidtoname_downlevel.obj
 0002:00008408       ??_C@_1M@LKMGMLKO@?$AAe?$AAn?$AA?9?$AAG?$AAB@ 00440408     libucrt:lcidtoname_downlevel.obj
 0002:00008414       ??_C@_1M@PGKJFFGL@?$AAe?$AAs?$AA?9?$AAM?$AAX@ 00440414     libucrt:lcidtoname_downlevel.obj
 0002:00008420       ??_C@_1M@DNNANBDC@?$AAf?$AAr?$AA?9?$AAB?$AAE@ 00440420     libucrt:lcidtoname_downlevel.obj
 0002:0000842c       ??_C@_1M@HLGMDFHM@?$AAi?$AAt?$AA?9?$AAC?$AAH@ 0044042c     libucrt:lcidtoname_downlevel.obj
 0002:00008438       ??_C@_1M@CLLBGJH@?$AAn?$AAl?$AA?9?$AAB?$AAE@ 00440438     libucrt:lcidtoname_downlevel.obj
 0002:00008444       ??_C@_1M@BODBOGLF@?$AAn?$AAn?$AA?9?$AAN?$AAO@ 00440444     libucrt:lcidtoname_downlevel.obj
 0002:00008450       ??_C@_1M@HFFAHKAD@?$AAp?$AAt?$AA?9?$AAP?$AAT@ 00440450     libucrt:lcidtoname_downlevel.obj
 0002:0000845c       ??_C@_1BG@LNOAKHIE@?$AAs?$AAr?$AA?9?$AAS?$AAP?$AA?9?$AAL?$AAa?$AAt?$AAn@ 0044045c     libucrt:lcidtoname_downlevel.obj
 0002:00008474       ??_C@_1M@HBMHBGAK@?$AAs?$AAv?$AA?9?$AAF?$AAI@ 00440474     libucrt:lcidtoname_downlevel.obj
 0002:00008480       ??_C@_1BG@DGCJGJBE@?$AAa?$AAz?$AA?9?$AAA?$AAZ?$AA?9?$AAC?$AAy?$AAr?$AAl@ 00440480     libucrt:lcidtoname_downlevel.obj
 0002:00008498       ??_C@_1M@KEJDAAHB@?$AAs?$AAe?$AA?9?$AAS?$AAE@ 00440498     libucrt:lcidtoname_downlevel.obj
 0002:000084a4       ??_C@_1M@HEIBJJAD@?$AAm?$AAs?$AA?9?$AAB?$AAN@ 004404a4     libucrt:lcidtoname_downlevel.obj
 0002:000084b0       ??_C@_1BG@PBGJMCEM@?$AAu?$AAz?$AA?9?$AAU?$AAZ?$AA?9?$AAC?$AAy?$AAr?$AAl@ 004404b0     libucrt:lcidtoname_downlevel.obj
 0002:000084c8       ??_C@_1O@LAOBCMDF@?$AAq?$AAu?$AAz?$AA?9?$AAE?$AAC@ 004404c8     libucrt:lcidtoname_downlevel.obj
 0002:000084d8       ??_C@_1M@POEEMAIO@?$AAa?$AAr?$AA?9?$AAE?$AAG@ 004404d8     libucrt:lcidtoname_downlevel.obj
 0002:000084e4       ??_C@_1M@EFAKDEDL@?$AAz?$AAh?$AA?9?$AAH?$AAK@ 004404e4     libucrt:lcidtoname_downlevel.obj
 0002:000084f0       ??_C@_1M@HKKIJHGI@?$AAd?$AAe?$AA?9?$AAA?$AAT@ 004404f0     libucrt:lcidtoname_downlevel.obj
 0002:000084fc       ??_C@_1M@KBFBEHJF@?$AAe?$AAn?$AA?9?$AAA?$AAU@ 004404fc     libucrt:lcidtoname_downlevel.obj
 0002:00008508       ??_C@_1M@MNPLFAAH@?$AAe?$AAs?$AA?9?$AAE?$AAS@ 00440508     libucrt:lcidtoname_downlevel.obj
 0002:00008514       ??_C@_1M@HJOOJFMA@?$AAf?$AAr?$AA?9?$AAC?$AAA@ 00440514     libucrt:lcidtoname_downlevel.obj
 0002:00008520       ??_C@_1BG@JPOFPNAB@?$AAs?$AAr?$AA?9?$AAS?$AAP?$AA?9?$AAC?$AAy?$AAr?$AAl@ 00440520     libucrt:lcidtoname_downlevel.obj
 0002:00008538       ??_C@_1M@LNFOCMOB@?$AAs?$AAe?$AA?9?$AAF?$AAI@ 00440538     libucrt:lcidtoname_downlevel.obj
 0002:00008544       ??_C@_1O@MGJBOAMB@?$AAq?$AAu?$AAz?$AA?9?$AAP?$AAE@ 00440544     libucrt:lcidtoname_downlevel.obj
 0002:00008554       ??_C@_1M@GJINLBOK@?$AAa?$AAr?$AA?9?$AAL?$AAY@ 00440554     libucrt:lcidtoname_downlevel.obj
 0002:00008560       ??_C@_1M@GGMNHJNL@?$AAz?$AAh?$AA?9?$AAS?$AAG@ 00440560     libucrt:lcidtoname_downlevel.obj
 0002:0000856c       ??_C@_1M@HOIKODND@?$AAd?$AAe?$AA?9?$AAL?$AAU@ 0044056c     libucrt:lcidtoname_downlevel.obj
 0002:00008578       ??_C@_1M@DDOCCGFG@?$AAe?$AAn?$AA?9?$AAC?$AAA@ 00440578     libucrt:lcidtoname_downlevel.obj
 0002:00008584       ??_C@_1M@BNOEMJLF@?$AAe?$AAs?$AA?9?$AAG?$AAT@ 00440584     libucrt:lcidtoname_downlevel.obj
 0002:00008590       ??_C@_1M@EOGNKEK@?$AAf?$AAr?$AA?9?$AAC?$AAH@ 00440590     libucrt:lcidtoname_downlevel.obj
 0002:0000859c       ??_C@_1M@FLIDJFHL@?$AAh?$AAr?$AA?9?$AAB?$AAA@ 0044059c     libucrt:lcidtoname_downlevel.obj
 0002:000085a8       ??_C@_1O@FMCELNAJ@?$AAs?$AAm?$AAj?$AA?9?$AAN?$AAO@ 004405a8     libucrt:lcidtoname_downlevel.obj
 0002:000085b8       ??_C@_1M@JHGLJMGJ@?$AAa?$AAr?$AA?9?$AAD?$AAZ@ 004405b8     libucrt:lcidtoname_downlevel.obj
 0002:000085c4       ??_C@_1M@JKKFDCNP@?$AAz?$AAh?$AA?9?$AAM?$AAO@ 004405c4     libucrt:lcidtoname_downlevel.obj
 0002:000085d0       ??_C@_1M@GEEFALPE@?$AAd?$AAe?$AA?9?$AAL?$AAI@ 004405d0     libucrt:lcidtoname_downlevel.obj
 0002:000085dc       ??_C@_1M@IGEOFBG@?$AAe?$AAn?$AA?9?$AAN?$AAZ@ 004405dc     libucrt:lcidtoname_downlevel.obj
 0002:000085e8       ??_C@_1M@KDBONEHP@?$AAe?$AAs?$AA?9?$AAC?$AAR@ 004405e8     libucrt:lcidtoname_downlevel.obj
 0002:000085f4       ??_C@_1M@FHMDOHNN@?$AAf?$AAr?$AA?9?$AAL?$AAU@ 004405f4     libucrt:lcidtoname_downlevel.obj
 0002:00008600       ??_C@_1BG@NFKKMAFG@?$AAb?$AAs?$AA?9?$AAB?$AAA?$AA?9?$AAL?$AAa?$AAt?$AAn@ 00440600     libucrt:lcidtoname_downlevel.obj
 0002:00008618       ??_C@_1O@IMNBEMCI@?$AAs?$AAm?$AAj?$AA?9?$AAS?$AAE@ 00440618     libucrt:lcidtoname_downlevel.obj
 0002:00008628       ??_C@_1M@DHHMBNDP@?$AAa?$AAr?$AA?9?$AAM?$AAA@ 00440628     libucrt:lcidtoname_downlevel.obj
 0002:00008634       ??_C@_1M@BNBLJCGH@?$AAe?$AAn?$AA?9?$AAI?$AAE@ 00440634     libucrt:lcidtoname_downlevel.obj
 0002:00008640       ??_C@_1M@GEPAFMDL@?$AAe?$AAs?$AA?9?$AAP?$AAA@ 00440640     libucrt:lcidtoname_downlevel.obj
 0002:0000864c       ??_C@_1M@OJONDMDL@?$AAf?$AAr?$AA?9?$AAM?$AAC@ 0044064c     libucrt:lcidtoname_downlevel.obj
 0002:00008658       ??_C@_1BG@OBCNFJB@?$AAs?$AAr?$AA?9?$AAB?$AAA?$AA?9?$AAL?$AAa?$AAt?$AAn@ 00440658     libucrt:lcidtoname_downlevel.obj
 0002:00008670       ??_C@_1O@KEMEEGPO@?$AAs?$AAm?$AAa?$AA?9?$AAN?$AAO@ 00440670     libucrt:lcidtoname_downlevel.obj
 0002:00008680       ??_C@_1M@ELMGFODK@?$AAa?$AAr?$AA?9?$AAT?$AAN@ 00440680     libucrt:lcidtoname_downlevel.obj
 0002:0000868c       ??_C@_1M@BHDLHFAF@?$AAe?$AAn?$AA?9?$AAZ?$AAA@ 0044068c     libucrt:lcidtoname_downlevel.obj
 0002:00008698       ??_C@_1M@BMGIGLIF@?$AAe?$AAs?$AA?9?$AAD?$AAO@ 00440698     libucrt:lcidtoname_downlevel.obj
 0002:000086a4       ??_C@_1BG@CMBHIPBE@?$AAs?$AAr?$AA?9?$AAB?$AAA?$AA?9?$AAC?$AAy?$AAr?$AAl@ 004406a4     libucrt:lcidtoname_downlevel.obj
 0002:000086bc       ??_C@_1O@HEDBLHNP@?$AAs?$AAm?$AAa?$AA?9?$AAS?$AAE@ 004406bc     libucrt:lcidtoname_downlevel.obj
 0002:000086cc       ??_C@_1M@DAGCADIM@?$AAa?$AAr?$AA?9?$AAO?$AAM@ 004406cc     libucrt:lcidtoname_downlevel.obj
 0002:000086d8       ??_C@_1M@FODLMICG@?$AAe?$AAn?$AA?9?$AAJ?$AAM@ 004406d8     libucrt:lcidtoname_downlevel.obj
 0002:000086e4       ??_C@_1M@DNMLCIHB@?$AAe?$AAs?$AA?9?$AAV?$AAE@ 004406e4     libucrt:lcidtoname_downlevel.obj
 0002:000086f0       ??_C@_1O@EOKHMKJK@?$AAs?$AAm?$AAs?$AA?9?$AAF?$AAI@ 004406f0     libucrt:lcidtoname_downlevel.obj
 0002:00008700       ??_C@_1M@CAFJMKOF@?$AAa?$AAr?$AA?9?$AAY?$AAE@ 00440700     libucrt:lcidtoname_downlevel.obj
 0002:0000870c       ??_C@_1M@CBFHIJLI@?$AAe?$AAn?$AA?9?$AAC?$AAB@ 0044070c     libucrt:lcidtoname_downlevel.obj
 0002:00008718       ??_C@_1M@BGNFLDN@?$AAe?$AAs?$AA?9?$AAC?$AAO@ 00440718     libucrt:lcidtoname_downlevel.obj
 0002:00008724       ??_C@_1O@JMPHMAMC@?$AAs?$AAm?$AAn?$AA?9?$AAF?$AAI@ 00440724     libucrt:lcidtoname_downlevel.obj
 0002:00008734       ??_C@_1M@JLANABKE@?$AAa?$AAr?$AA?9?$AAS?$AAY@ 00440734     libucrt:lcidtoname_downlevel.obj
 0002:00008740       ??_C@_1M@HPKGCFGN@?$AAe?$AAn?$AA?9?$AAB?$AAZ@ 00440740     libucrt:lcidtoname_downlevel.obj
 0002:0000874c       ??_C@_1M@OLJCMLGM@?$AAe?$AAs?$AA?9?$AAP?$AAE@ 0044074c     libucrt:lcidtoname_downlevel.obj
 0002:00008758       ??_C@_1M@MKKGFKLE@?$AAa?$AAr?$AA?9?$AAJ?$AAO@ 00440758     libucrt:lcidtoname_downlevel.obj
 0002:00008764       ??_C@_1M@EKPGLDNI@?$AAe?$AAn?$AA?9?$AAT?$AAT@ 00440764     libucrt:lcidtoname_downlevel.obj
 0002:00008770       ??_C@_1M@OONGHFHE@?$AAe?$AAs?$AA?9?$AAA?$AAR@ 00440770     libucrt:lcidtoname_downlevel.obj
 0002:0000877c       ??_C@_1M@OOJFGBHE@?$AAa?$AAr?$AA?9?$AAL?$AAB@ 0044077c     libucrt:lcidtoname_downlevel.obj
 0002:00008788       ??_C@_1M@GCEJHNEG@?$AAe?$AAn?$AA?9?$AAZ?$AAW@ 00440788     libucrt:lcidtoname_downlevel.obj
 0002:00008794       ??_C@_1M@JNOCAHJI@?$AAe?$AAs?$AA?9?$AAE?$AAC@ 00440794     libucrt:lcidtoname_downlevel.obj
 0002:000087a0       ??_C@_1M@JEFHPGGB@?$AAa?$AAr?$AA?9?$AAK?$AAW@ 004407a0     libucrt:lcidtoname_downlevel.obj
 0002:000087ac       ??_C@_1M@MLKIBJOJ@?$AAe?$AAn?$AA?9?$AAP?$AAH@ 004407ac     libucrt:lcidtoname_downlevel.obj
 0002:000087b8       ??_C@_1M@BDNIPEND@?$AAe?$AAs?$AA?9?$AAC?$AAL@ 004407b8     libucrt:lcidtoname_downlevel.obj
 0002:000087c4       ??_C@_1M@MPNMEKBD@?$AAa?$AAr?$AA?9?$AAA?$AAE@ 004407c4     libucrt:lcidtoname_downlevel.obj
 0002:000087d0       ??_C@_1M@KBJALCPI@?$AAe?$AAs?$AA?9?$AAU?$AAY@ 004407d0     libucrt:lcidtoname_downlevel.obj
 0002:000087dc       ??_C@_1M@LLCCOAGA@?$AAa?$AAr?$AA?9?$AAB?$AAH@ 004407dc     libucrt:lcidtoname_downlevel.obj
 0002:000087e8       ??_C@_1M@PBFNCDEL@?$AAe?$AAs?$AA?9?$AAP?$AAY@ 004407e8     libucrt:lcidtoname_downlevel.obj
 0002:000087f4       ??_C@_1M@EDGINPNP@?$AAa?$AAr?$AA?9?$AAQ?$AAA@ 004407f4     libucrt:lcidtoname_downlevel.obj
 0002:00008800       ??_C@_1M@MKDBIIJI@?$AAe?$AAs?$AA?9?$AAB?$AAO@ 00440800     libucrt:lcidtoname_downlevel.obj
 0002:0000880c       ??_C@_1M@CPKKEBLD@?$AAe?$AAs?$AA?9?$AAS?$AAV@ 0044080c     libucrt:lcidtoname_downlevel.obj
 0002:00008818       ??_C@_1M@NDBGMMJL@?$AAe?$AAs?$AA?9?$AAH?$AAN@ 00440818     libucrt:lcidtoname_downlevel.obj
 0002:00008824       ??_C@_1M@JIJIBHDP@?$AAe?$AAs?$AA?9?$AAN?$AAI@ 00440824     libucrt:lcidtoname_downlevel.obj
 0002:00008830       ??_C@_1M@CGFMKEEK@?$AAe?$AAs?$AA?9?$AAP?$AAR@ 00440830     libucrt:lcidtoname_downlevel.obj
 0002:0000883c       ??_C@_1O@ICJHKIIK@?$AAz?$AAh?$AA?9?$AAC?$AAH?$AAT@ 0044083c     libucrt:lcidtoname_downlevel.obj
 0002:0000884c       ??_C@_15CLNEJCE@?$AAs?$AAr@ 0044084c     libucrt:lcidtoname_downlevel.obj
 0002:00008f78       ??_C@_1M@KAHEKEIG@?$AAa?$AAf?$AA?9?$AAz?$AAa@ 00440f78     libucrt:lcidtoname_downlevel.obj
 0002:00008f84       ??_C@_1M@GIECOABL@?$AAa?$AAr?$AA?9?$AAa?$AAe@ 00440f84     libucrt:lcidtoname_downlevel.obj
 0002:00008f90       ??_C@_1M@BMLMEKGI@?$AAa?$AAr?$AA?9?$AAb?$AAh@ 00440f90     libucrt:lcidtoname_downlevel.obj
 0002:00008f9c       ??_C@_1M@DAPFDGGB@?$AAa?$AAr?$AA?9?$AAd?$AAz@ 00440f9c     libucrt:lcidtoname_downlevel.obj
 0002:00008fa8       ??_C@_1M@FJNKGKIG@?$AAa?$AAr?$AA?9?$AAe?$AAg@ 00440fa8     libucrt:lcidtoname_downlevel.obj
 0002:00008fb4       ??_C@_1M@FLGKKCLO@?$AAa?$AAr?$AA?9?$AAi?$AAq@ 00440fb4     libucrt:lcidtoname_downlevel.obj
 0002:00008fc0       ??_C@_1M@GNDIPALM@?$AAa?$AAr?$AA?9?$AAj?$AAo@ 00440fc0     libucrt:lcidtoname_downlevel.obj
 0002:00008fcc       ??_C@_1M@DDMJFMGJ@?$AAa?$AAr?$AA?9?$AAk?$AAw@ 00440fcc     libucrt:lcidtoname_downlevel.obj
 0002:00008fd8       ??_C@_1M@EJALMLHM@?$AAa?$AAr?$AA?9?$AAl?$AAb@ 00440fd8     libucrt:lcidtoname_downlevel.obj
 0002:00008fe4       ??_C@_1M@MOBDBLOC@?$AAa?$AAr?$AA?9?$AAl?$AAy@ 00440fe4     libucrt:lcidtoname_downlevel.obj
 0002:00008ff0       ??_C@_1M@JAOCLHDH@?$AAa?$AAr?$AA?9?$AAm?$AAa@ 00440ff0     libucrt:lcidtoname_downlevel.obj
 0002:00008ffc       ??_C@_1M@JHPMKJIE@?$AAa?$AAr?$AA?9?$AAo?$AAm@ 00440ffc     libucrt:lcidtoname_downlevel.obj
 0002:00009008       ??_C@_1M@OEPGHFNH@?$AAa?$AAr?$AA?9?$AAq?$AAa@ 00441008     libucrt:lcidtoname_downlevel.obj
 0002:00009014       ??_C@_1M@KJDONENM@?$AAa?$AAr?$AA?9?$AAs?$AAa@ 00441014     libucrt:lcidtoname_downlevel.obj
 0002:00009020       ??_C@_1M@DMJDKLKM@?$AAa?$AAr?$AA?9?$AAs?$AAy@ 00441020     libucrt:lcidtoname_downlevel.obj
 0002:0000902c       ??_C@_1M@OMFIPEDC@?$AAa?$AAr?$AA?9?$AAt?$AAn@ 0044102c     libucrt:lcidtoname_downlevel.obj
 0002:00009038       ??_C@_1M@IHMHGAON@?$AAa?$AAr?$AA?9?$AAy?$AAe@ 00441038     libucrt:lcidtoname_downlevel.obj
 0002:00009044       ??_C@_1BG@KDCPGJGB@?$AAa?$AAz?$AA?9?$AAa?$AAz?$AA?9?$AAc?$AAy?$AAr?$AAl@ 00441044     libucrt:lcidtoname_downlevel.obj
 0002:0000905c       ??_C@_1BG@IBCKDDOE@?$AAa?$AAz?$AA?9?$AAa?$AAz?$AA?9?$AAl?$AAa?$AAt?$AAn@ 0044105c     libucrt:lcidtoname_downlevel.obj
 0002:00009074       ??_C@_1M@EGPFDCPD@?$AAb?$AAe?$AA?9?$AAb?$AAy@ 00441074     libucrt:lcidtoname_downlevel.obj
 0002:00009080       ??_C@_1M@PCMGMCGC@?$AAb?$AAg?$AA?9?$AAb?$AAg@ 00441080     libucrt:lcidtoname_downlevel.obj
 0002:0000908c       ??_C@_1M@BJBMFGOB@?$AAb?$AAn?$AA?9?$AAi?$AAn@ 0044108c     libucrt:lcidtoname_downlevel.obj
 0002:00009098       ??_C@_1BG@EAKMMACD@?$AAb?$AAs?$AA?9?$AAb?$AAa?$AA?9?$AAl?$AAa?$AAt?$AAn@ 00441098     libucrt:lcidtoname_downlevel.obj
 0002:000090b0       ??_C@_1M@KGADAODK@?$AAc?$AAa?$AA?9?$AAe?$AAs@ 004410b0     libucrt:lcidtoname_downlevel.obj
 0002:000090bc       ??_C@_1M@COAJPDHI@?$AAc?$AAs?$AA?9?$AAc?$AAz@ 004410bc     libucrt:lcidtoname_downlevel.obj
 0002:000090c8       ??_C@_1M@DHBHFONH@?$AAc?$AAy?$AA?9?$AAg?$AAb@ 004410c8     libucrt:lcidtoname_downlevel.obj
 0002:000090d4       ??_C@_1M@IMGKELGA@?$AAd?$AAa?$AA?9?$AAd?$AAk@ 004410d4     libucrt:lcidtoname_downlevel.obj
 0002:000090e0       ??_C@_1M@NNDGDNGA@?$AAd?$AAe?$AA?9?$AAa?$AAt@ 004410e0     libucrt:lcidtoname_downlevel.obj
 0002:000090ec       ??_C@_1M@IKDBHEEM@?$AAd?$AAe?$AA?9?$AAc?$AAh@ 004410ec     libucrt:lcidtoname_downlevel.obj
 0002:000090f8       ??_C@_1M@GFFOJMCJ@?$AAd?$AAe?$AA?9?$AAd?$AAe@ 004410f8     libucrt:lcidtoname_downlevel.obj
 0002:00009104       ??_C@_1M@MDNLKBPM@?$AAd?$AAe?$AA?9?$AAl?$AAi@ 00441104     libucrt:lcidtoname_downlevel.obj
 0002:00009110       ??_C@_1M@NJBEEJNL@?$AAd?$AAe?$AA?9?$AAl?$AAu@ 00441110     libucrt:lcidtoname_downlevel.obj
 0002:0000911c       ??_C@_1O@GNNELBAP@?$AAd?$AAi?$AAv?$AA?9?$AAm?$AAv@ 0044111c     libucrt:lcidtoname_downlevel.obj
 0002:0000912c       ??_C@_1M@EJLEOGAE@?$AAe?$AAl?$AA?9?$AAg?$AAr@ 0044112c     libucrt:lcidtoname_downlevel.obj
 0002:00009138       ??_C@_1M@GMPONJN@?$AAe?$AAn?$AA?9?$AAa?$AAu@ 00441138     libucrt:lcidtoname_downlevel.obj
 0002:00009144       ??_C@_1M@NIDIIPGF@?$AAe?$AAn?$AA?9?$AAb?$AAz@ 00441144     libucrt:lcidtoname_downlevel.obj
 0002:00009150       ??_C@_1M@JEHMIMFO@?$AAe?$AAn?$AA?9?$AAc?$AAa@ 00441150     libucrt:lcidtoname_downlevel.obj
 0002:0000915c       ??_C@_1M@IGMJCDLA@?$AAe?$AAn?$AA?9?$AAc?$AAb@ 0044115c     libucrt:lcidtoname_downlevel.obj
 0002:00009168       ??_C@_1M@BNFIGBKG@?$AAe?$AAn?$AA?9?$AAg?$AAb@ 00441168     libucrt:lcidtoname_downlevel.obj
 0002:00009174       ??_C@_1M@LKIFDIGP@?$AAe?$AAn?$AA?9?$AAi?$AAe@ 00441174     libucrt:lcidtoname_downlevel.obj
 0002:00009180       ??_C@_1M@PJKFGCCO@?$AAe?$AAn?$AA?9?$AAj?$AAm@ 00441180     libucrt:lcidtoname_downlevel.obj
 0002:0000918c       ??_C@_1M@KPPKEPBO@?$AAe?$AAn?$AA?9?$AAn?$AAz@ 0044118c     libucrt:lcidtoname_downlevel.obj
 0002:00009198       ??_C@_1M@GMDGLDOB@?$AAe?$AAn?$AA?9?$AAp?$AAh@ 00441198     libucrt:lcidtoname_downlevel.obj
 0002:000091a4       ??_C@_1M@ONGIBJNA@?$AAe?$AAn?$AA?9?$AAt?$AAt@ 004411a4     libucrt:lcidtoname_downlevel.obj
 0002:000091b0       ??_C@_1M@LLODPCMM@?$AAe?$AAn?$AA?9?$AAu?$AAs@ 004411b0     libucrt:lcidtoname_downlevel.obj
 0002:000091bc       ??_C@_1M@LAKFNPAN@?$AAe?$AAn?$AA?9?$AAz?$AAa@ 004411bc     libucrt:lcidtoname_downlevel.obj
 0002:000091c8       ??_C@_1M@MFNHNHEO@?$AAe?$AAn?$AA?9?$AAz?$AAw@ 004411c8     libucrt:lcidtoname_downlevel.obj
 0002:000091d4       ??_C@_1M@EJEINPHM@?$AAe?$AAs?$AA?9?$AAa?$AAr@ 004411d4     libucrt:lcidtoname_downlevel.obj
 0002:000091e0       ??_C@_1M@GNKPCCJA@?$AAe?$AAs?$AA?9?$AAb?$AAo@ 004411e0     libucrt:lcidtoname_downlevel.obj
 0002:000091ec       ??_C@_1M@LEEGFONL@?$AAe?$AAs?$AA?9?$AAc?$AAl@ 004411ec     libucrt:lcidtoname_downlevel.obj
 0002:000091f8       ??_C@_1M@KGPDPBDF@?$AAe?$AAs?$AA?9?$AAc?$AAo@ 004411f8     libucrt:lcidtoname_downlevel.obj
 0002:00009204       ??_C@_1M@EIAHOHH@?$AAe?$AAs?$AA?9?$AAc?$AAr@ 00441204     libucrt:lcidtoname_downlevel.obj
 0002:00009210       ??_C@_1M@LLPGMBIN@?$AAe?$AAs?$AA?9?$AAd?$AAo@ 00441210     libucrt:lcidtoname_downlevel.obj
 0002:0000921c       ??_C@_1M@DKHMKNJA@?$AAe?$AAs?$AA?9?$AAe?$AAc@ 0044121c     libucrt:lcidtoname_downlevel.obj
 0002:00009228       ??_C@_1M@GKGFPKAP@?$AAe?$AAs?$AA?9?$AAe?$AAs@ 00441228     libucrt:lcidtoname_downlevel.obj
 0002:00009234       ??_C@_1M@LKHKGDLN@?$AAe?$AAs?$AA?9?$AAg?$AAt@ 00441234     libucrt:lcidtoname_downlevel.obj
 0002:00009240       ??_C@_1M@HEIIGGJD@?$AAe?$AAs?$AA?9?$AAh?$AAn@ 00441240     libucrt:lcidtoname_downlevel.obj
 0002:0000924c       ??_C@_1M@FBDHPPGD@?$AAe?$AAs?$AA?9?$AAm?$AAx@ 0044124c     libucrt:lcidtoname_downlevel.obj
 0002:00009258       ??_C@_1M@DPAGLNDH@?$AAe?$AAs?$AA?9?$AAn?$AAi@ 00441258     libucrt:lcidtoname_downlevel.obj
 0002:00009264       ??_C@_1M@MDGOPGDD@?$AAe?$AAs?$AA?9?$AAp?$AAa@ 00441264     libucrt:lcidtoname_downlevel.obj
 0002:00009270       ??_C@_1M@EMAMGBGE@?$AAe?$AAs?$AA?9?$AAp?$AAe@ 00441270     libucrt:lcidtoname_downlevel.obj
 0002:0000927c       ??_C@_1M@IBMCAOEC@?$AAe?$AAs?$AA?9?$AAp?$AAr@ 0044127c     libucrt:lcidtoname_downlevel.obj
 0002:00009288       ??_C@_1M@FGMDIJED@?$AAe?$AAs?$AA?9?$AAp?$AAy@ 00441288     libucrt:lcidtoname_downlevel.obj
 0002:00009294       ??_C@_1M@IIDEOLLL@?$AAe?$AAs?$AA?9?$AAs?$AAv@ 00441294     libucrt:lcidtoname_downlevel.obj
 0002:000092a0       ??_C@_1M@GAOBIPA@?$AAe?$AAs?$AA?9?$AAu?$AAy@ 004412a0     libucrt:lcidtoname_downlevel.obj
 0002:000092ac       ??_C@_1M@JKFFICHJ@?$AAe?$AAs?$AA?9?$AAv?$AAe@ 004412ac     libucrt:lcidtoname_downlevel.obj
 0002:000092b8       ??_C@_1M@PNMLOJDF@?$AAe?$AAt?$AA?9?$AAe?$AAe@ 004412b8     libucrt:lcidtoname_downlevel.obj
 0002:000092c4       ??_C@_1M@GHHLIKEI@?$AAe?$AAu?$AA?9?$AAe?$AAs@ 004412c4     libucrt:lcidtoname_downlevel.obj
 0002:000092d0       ??_C@_1M@PBNONODE@?$AAf?$AAa?$AA?9?$AAi?$AAr@ 004412d0     libucrt:lcidtoname_downlevel.obj
 0002:000092dc       ??_C@_1M@JEEHPMIL@?$AAf?$AAi?$AA?9?$AAf?$AAi@ 004412dc     libucrt:lcidtoname_downlevel.obj
 0002:000092e8       ??_C@_1M@LMDCNDBA@?$AAf?$AAo?$AA?9?$AAf?$AAo@ 004412e8     libucrt:lcidtoname_downlevel.obj
 0002:000092f4       ??_C@_1M@JKEOHLDK@?$AAf?$AAr?$AA?9?$AAb?$AAe@ 004412f4     libucrt:lcidtoname_downlevel.obj
 0002:00009300       ??_C@_1M@NOHADPMI@?$AAf?$AAr?$AA?9?$AAc?$AAa@ 00441300     libucrt:lcidtoname_downlevel.obj
 0002:0000930c       ??_C@_1M@KDHIHAEC@?$AAf?$AAr?$AA?9?$AAc?$AAh@ 0044130c     libucrt:lcidtoname_downlevel.obj
 0002:00009318       ??_C@_1M@MMBBFGAK@?$AAf?$AAr?$AA?9?$AAf?$AAr@ 00441318     libucrt:lcidtoname_downlevel.obj
 0002:00009324       ??_C@_1M@PAFNENNF@?$AAf?$AAr?$AA?9?$AAl?$AAu@ 00441324     libucrt:lcidtoname_downlevel.obj
 0002:00009330       ??_C@_1M@EOHDJGDD@?$AAf?$AAr?$AA?9?$AAm?$AAc@ 00441330     libucrt:lcidtoname_downlevel.obj
 0002:0000933c       ??_C@_1M@FAPLLOPF@?$AAg?$AAl?$AA?9?$AAe?$AAs@ 0044133c     libucrt:lcidtoname_downlevel.obj
 0002:00009348       ??_C@_1M@FOPBFLOO@?$AAg?$AAu?$AA?9?$AAi?$AAn@ 00441348     libucrt:lcidtoname_downlevel.obj
 0002:00009354       ??_C@_1M@KBMCINPM@?$AAh?$AAe?$AA?9?$AAi?$AAl@ 00441354     libucrt:lcidtoname_downlevel.obj
 0002:00009360       ??_C@_1M@BBPHKFPJ@?$AAh?$AAi?$AA?9?$AAi?$AAn@ 00441360     libucrt:lcidtoname_downlevel.obj
 0002:0000936c       ??_C@_1M@PMBNDPHD@?$AAh?$AAr?$AA?9?$AAb?$AAa@ 0044136c     libucrt:lcidtoname_downlevel.obj
 0002:00009378       ??_C@_1M@BPCKOEGE@?$AAh?$AAr?$AA?9?$AAh?$AAr@ 00441378     libucrt:lcidtoname_downlevel.obj
 0002:00009384       ??_C@_1M@GACBMHKE@?$AAh?$AAu?$AA?9?$AAh?$AAu@ 00441384     libucrt:lcidtoname_downlevel.obj
 0002:00009390       ??_C@_1M@MILPAJJC@?$AAh?$AAy?$AA?9?$AAa?$AAm@ 00441390     libucrt:lcidtoname_downlevel.obj
 0002:0000939c       ??_C@_1M@BABBICEC@?$AAi?$AAd?$AA?9?$AAi?$AAd@ 0044139c     libucrt:lcidtoname_downlevel.obj
 0002:000093a8       ??_C@_1M@BIKNHHPF@?$AAi?$AAs?$AA?9?$AAi?$AAs@ 004413a8     libucrt:lcidtoname_downlevel.obj
 0002:000093b4       ??_C@_1M@NMPCJPHE@?$AAi?$AAt?$AA?9?$AAc?$AAh@ 004413b4     libucrt:lcidtoname_downlevel.obj
 0002:000093c0       ??_C@_1M@GHKGFEDF@?$AAi?$AAt?$AA?9?$AAi?$AAt@ 004413c0     libucrt:lcidtoname_downlevel.obj
 0002:000093cc       ??_C@_1M@NIEJCJJA@?$AAj?$AAa?$AA?9?$AAj?$AAp@ 004413cc     libucrt:lcidtoname_downlevel.obj
 0002:000093d8       ??_C@_1M@JILFNBIM@?$AAk?$AAa?$AA?9?$AAg?$AAe@ 004413d8     libucrt:lcidtoname_downlevel.obj
 0002:000093e4       ??_C@_1M@PACPMGPH@?$AAk?$AAk?$AA?9?$AAk?$AAz@ 004413e4     libucrt:lcidtoname_downlevel.obj
 0002:000093f0       ??_C@_1M@IELFGMHA@?$AAk?$AAn?$AA?9?$AAi?$AAn@ 004413f0     libucrt:lcidtoname_downlevel.obj
 0002:000093fc       ??_C@_1O@IBBJHCH@?$AAk?$AAo?$AAk?$AA?9?$AAi?$AAn@ 004413fc     libucrt:lcidtoname_downlevel.obj
 0002:0000940c       ??_C@_1M@DMHAEOGC@?$AAk?$AAo?$AA?9?$AAk?$AAr@ 0044140c     libucrt:lcidtoname_downlevel.obj
 0002:00009418       ??_C@_1M@HBAHBIGA@?$AAk?$AAy?$AA?9?$AAk?$AAg@ 00441418     libucrt:lcidtoname_downlevel.obj
 0002:00009424       ??_C@_1M@KPMILCJG@?$AAl?$AAt?$AA?9?$AAl?$AAt@ 00441424     libucrt:lcidtoname_downlevel.obj
 0002:00009430       ??_C@_1M@BDEKKCA@?$AAl?$AAv?$AA?9?$AAl?$AAv@ 00441430     libucrt:lcidtoname_downlevel.obj
 0002:0000943c       ??_C@_1M@ELCKCCJJ@?$AAm?$AAi?$AA?9?$AAn?$AAz@ 0044143c     libucrt:lcidtoname_downlevel.obj
 0002:00009448       ??_C@_1M@CBOOLAPA@?$AAm?$AAk?$AA?9?$AAm?$AAk@ 00441448     libucrt:lcidtoname_downlevel.obj
 0002:00009454       ??_C@_1M@GPHNBJKN@?$AAm?$AAl?$AA?9?$AAi?$AAn@ 00441454     libucrt:lcidtoname_downlevel.obj
 0002:00009460       ??_C@_1M@PABJILIG@?$AAm?$AAn?$AA?9?$AAm?$AAn@ 00441460     libucrt:lcidtoname_downlevel.obj
 0002:0000946c       ??_C@_1M@FGBKKIPG@?$AAm?$AAr?$AA?9?$AAi?$AAn@ 0044146c     libucrt:lcidtoname_downlevel.obj
 0002:00009478       ??_C@_1M@NDBPDDAL@?$AAm?$AAs?$AA?9?$AAb?$AAn@ 00441478     libucrt:lcidtoname_downlevel.obj
 0002:00009484       ??_C@_1M@OPIHOOPI@?$AAm?$AAs?$AA?9?$AAm?$AAy@ 00441484     libucrt:lcidtoname_downlevel.obj
 0002:00009490       ??_C@_1M@PPDBCNFM@?$AAm?$AAt?$AA?9?$AAm?$AAt@ 00441490     libucrt:lcidtoname_downlevel.obj
 0002:0000949c       ??_C@_1M@KDJDKMDD@?$AAn?$AAb?$AA?9?$AAn?$AAo@ 0044149c     libucrt:lcidtoname_downlevel.obj
 0002:000094a8       ??_C@_1M@KFCFLMJP@?$AAn?$AAl?$AA?9?$AAb?$AAe@ 004414a8     libucrt:lcidtoname_downlevel.obj
 0002:000094b4       ??_C@_1M@KPOPDDGO@?$AAn?$AAl?$AA?9?$AAn?$AAl@ 004414b4     libucrt:lcidtoname_downlevel.obj
 0002:000094c0       ??_C@_1M@LJKPEMLN@?$AAn?$AAn?$AA?9?$AAn?$AAo@ 004414c0     libucrt:lcidtoname_downlevel.obj
 0002:000094cc       ??_C@_1M@BDGHHBFL@?$AAn?$AAs?$AA?9?$AAz?$AAa@ 004414cc     libucrt:lcidtoname_downlevel.obj
 0002:000094d8       ??_C@_1M@IDEHOAP@?$AAp?$AAa?$AA?9?$AAi?$AAn@ 004414d8     libucrt:lcidtoname_downlevel.obj
 0002:000094e4       ??_C@_1M@HDBKGOGH@?$AAp?$AAl?$AA?9?$AAp?$AAl@ 004414e4     libucrt:lcidtoname_downlevel.obj
 0002:000094f0       ??_C@_1M@LJLLCMEH@?$AAp?$AAt?$AA?9?$AAb?$AAr@ 004414f0     libucrt:lcidtoname_downlevel.obj
 0002:000094fc       ??_C@_1M@NCMONAAL@?$AAp?$AAt?$AA?9?$AAp?$AAt@ 004414fc     libucrt:lcidtoname_downlevel.obj
 0002:00009508       ??_C@_1O@EAKMAJDN@?$AAq?$AAu?$AAz?$AA?9?$AAb?$AAo@ 00441508     libucrt:lcidtoname_downlevel.obj
 0002:00009518       ??_C@_1O@BHHPIGDN@?$AAq?$AAu?$AAz?$AA?9?$AAe?$AAc@ 00441518     libucrt:lcidtoname_downlevel.obj
 0002:00009528       ??_C@_1O@GBAPEKMJ@?$AAq?$AAu?$AAz?$AA?9?$AAp?$AAe@ 00441528     libucrt:lcidtoname_downlevel.obj
 0002:00009538       ??_C@_1M@CLGLEFBO@?$AAr?$AAo?$AA?9?$AAr?$AAo@ 00441538     libucrt:lcidtoname_downlevel.obj
 0002:00009544       ??_C@_1M@CEEDODME@?$AAr?$AAu?$AA?9?$AAr?$AAu@ 00441544     libucrt:lcidtoname_downlevel.obj
 0002:00009550       ??_C@_1M@HPKKKMPP@?$AAs?$AAa?$AA?9?$AAi?$AAn@ 00441550     libucrt:lcidtoname_downlevel.obj
 0002:0000955c       ??_C@_1M@BKMAIGOJ@?$AAs?$AAe?$AA?9?$AAf?$AAi@ 0044155c     libucrt:lcidtoname_downlevel.obj
 0002:00009568       ??_C@_1M@NDPIFLFI@?$AAs?$AAe?$AA?9?$AAn?$AAo@ 00441568     libucrt:lcidtoname_downlevel.obj
 0002:00009574       ??_C@_1M@DANKKHJ@?$AAs?$AAe?$AA?9?$AAs?$AAe@ 00441574     libucrt:lcidtoname_downlevel.obj
 0002:00009580       ??_C@_1M@PNBLONPJ@?$AAs?$AAk?$AA?9?$AAs?$AAk@ 00441580     libucrt:lcidtoname_downlevel.obj
 0002:0000958c       ??_C@_1M@LFMODOAL@?$AAs?$AAl?$AA?9?$AAs?$AAi@ 0044158c     libucrt:lcidtoname_downlevel.obj
 0002:00009598       ??_C@_1O@DFKOMPG@?$AAs?$AAm?$AAa?$AA?9?$AAn?$AAo@ 00441598     libucrt:lcidtoname_downlevel.obj
 0002:000095a8       ??_C@_1O@NDKPBNNH@?$AAs?$AAm?$AAa?$AA?9?$AAs?$AAe@ 004415a8     libucrt:lcidtoname_downlevel.obj
 0002:000095b8       ??_C@_1O@PLLKBHAB@?$AAs?$AAm?$AAj?$AA?9?$AAn?$AAo@ 004415b8     libucrt:lcidtoname_downlevel.obj
 0002:000095c8       ??_C@_1O@CLEPOGCA@?$AAs?$AAm?$AAj?$AA?9?$AAs?$AAe@ 004415c8     libucrt:lcidtoname_downlevel.obj
 0002:000095d8       ??_C@_1O@DLGJGKMK@?$AAs?$AAm?$AAn?$AA?9?$AAf?$AAi@ 004415d8     libucrt:lcidtoname_downlevel.obj
 0002:000095e8       ??_C@_1O@OJDJGAJC@?$AAs?$AAm?$AAs?$AA?9?$AAf?$AAi@ 004415e8     libucrt:lcidtoname_downlevel.obj
 0002:000095f8       ??_C@_1M@BOFOGHPB@?$AAs?$AAq?$AA?9?$AAa?$AAl@ 004415f8     libucrt:lcidtoname_downlevel.obj
 0002:00009604       ??_C@_1BG@LJBBIPGB@?$AAs?$AAr?$AA?9?$AAb?$AAa?$AA?9?$AAc?$AAy?$AAr?$AAl@ 00441604     libucrt:lcidtoname_downlevel.obj
 0002:0000961c       ??_C@_1BG@JLBENFOE@?$AAs?$AAr?$AA?9?$AAb?$AAa?$AA?9?$AAl?$AAa?$AAt?$AAn@ 0044161c     libucrt:lcidtoname_downlevel.obj
 0002:00009634       ??_C@_1BG@KODPNHE@?$AAs?$AAr?$AA?9?$AAs?$AAp?$AA?9?$AAc?$AAy?$AAr?$AAl@ 00441634     libucrt:lcidtoname_downlevel.obj
 0002:0000964c       ??_C@_1BG@CIOGKHPB@?$AAs?$AAr?$AA?9?$AAs?$AAp?$AA?9?$AAl?$AAa?$AAt?$AAn@ 0044164c     libucrt:lcidtoname_downlevel.obj
 0002:00009664       ??_C@_1M@NGFJLMAC@?$AAs?$AAv?$AA?9?$AAf?$AAi@ 00441664     libucrt:lcidtoname_downlevel.obj
 0002:00009670       ??_C@_1M@MPJEJAJC@?$AAs?$AAv?$AA?9?$AAs?$AAe@ 00441670     libucrt:lcidtoname_downlevel.obj
 0002:0000967c       ??_C@_1M@MPNDHLFK@?$AAs?$AAw?$AA?9?$AAk?$AAe@ 0044167c     libucrt:lcidtoname_downlevel.obj
 0002:00009688       ??_C@_1O@KOHBJJI@?$AAs?$AAy?$AAr?$AA?9?$AAs?$AAy@ 00441688     libucrt:lcidtoname_downlevel.obj
 0002:00009698       ??_C@_1M@LDCEFHA@?$AAt?$AAa?$AA?9?$AAi?$AAn@ 00441698     libucrt:lcidtoname_downlevel.obj
 0002:000096a4       ??_C@_1M@CNJOFAK@?$AAt?$AAe?$AA?9?$AAi?$AAn@ 004416a4     libucrt:lcidtoname_downlevel.obj
 0002:000096b0       ??_C@_1M@GNAECACD@?$AAt?$AAh?$AA?9?$AAt?$AAh@ 004416b0     libucrt:lcidtoname_downlevel.obj
 0002:000096bc       ??_C@_1M@CHBIHOJO@?$AAt?$AAn?$AA?9?$AAz?$AAa@ 004416bc     libucrt:lcidtoname_downlevel.obj
 0002:000096c8       ??_C@_1M@GCCMIGPJ@?$AAt?$AAr?$AA?9?$AAt?$AAr@ 004416c8     libucrt:lcidtoname_downlevel.obj
 0002:000096d4       ??_C@_1M@CELMCNBK@?$AAt?$AAt?$AA?9?$AAr?$AAu@ 004416d4     libucrt:lcidtoname_downlevel.obj
 0002:000096e0       ??_C@_1M@KLMCELGA@?$AAu?$AAk?$AA?9?$AAu?$AAa@ 004416e0     libucrt:lcidtoname_downlevel.obj
 0002:000096ec       ??_C@_1M@EPAJJAJF@?$AAu?$AAr?$AA?9?$AAp?$AAk@ 004416ec     libucrt:lcidtoname_downlevel.obj
 0002:000096f8       ??_C@_1BG@GEGPMCDJ@?$AAu?$AAz?$AA?9?$AAu?$AAz?$AA?9?$AAc?$AAy?$AAr?$AAl@ 004416f8     libucrt:lcidtoname_downlevel.obj
 0002:00009710       ??_C@_1BG@EGGKJILM@?$AAu?$AAz?$AA?9?$AAu?$AAz?$AA?9?$AAl?$AAa?$AAt?$AAn@ 00441710     libucrt:lcidtoname_downlevel.obj
 0002:00009728       ??_C@_1M@GFOCLFF@?$AAv?$AAi?$AA?9?$AAv?$AAn@ 00441728     libucrt:lcidtoname_downlevel.obj
 0002:00009734       ??_C@_1M@CPAMEDFI@?$AAx?$AAh?$AA?9?$AAz?$AAa@ 00441734     libucrt:lcidtoname_downlevel.obj
 0002:00009740       ??_C@_1O@EBKIFIGN@?$AAz?$AAh?$AA?9?$AAc?$AAh?$AAs@ 00441740     libucrt:lcidtoname_downlevel.obj
 0002:00009750       ??_C@_1O@NMHPGANE@?$AAz?$AAh?$AA?9?$AAc?$AAh?$AAt@ 00441750     libucrt:lcidtoname_downlevel.obj
 0002:00009760       ??_C@_1M@LPINJOMC@?$AAz?$AAh?$AA?9?$AAc?$AAn@ 00441760     libucrt:lcidtoname_downlevel.obj
 0002:0000976c       ??_C@_1M@OCJEJODD@?$AAz?$AAh?$AA?9?$AAh?$AAk@ 0044176c     libucrt:lcidtoname_downlevel.obj
 0002:00009778       ??_C@_1M@DNDLJINH@?$AAz?$AAh?$AA?9?$AAm?$AAo@ 00441778     libucrt:lcidtoname_downlevel.obj
 0002:00009784       ??_C@_1M@MBFDNDND@?$AAz?$AAh?$AA?9?$AAs?$AAg@ 00441784     libucrt:lcidtoname_downlevel.obj
 0002:00009790       ??_C@_1M@IMEPLEPE@?$AAz?$AAh?$AA?9?$AAt?$AAw@ 00441790     libucrt:lcidtoname_downlevel.obj
 0002:0000979c       ??_C@_1M@BBGHNHJP@?$AAz?$AAu?$AA?9?$AAz?$AAa@ 0044179c     libucrt:lcidtoname_downlevel.obj
 0002:00009808       ??_C@_1BA@BALFACEM@?$AAC?$AAO?$AAN?$AAO?$AAU?$AAT?$AA$@ 00441808     libucrt:initcon.obj
 0002:00009920       __infinity                 00441920     libucrt:87tran.obj
 0002:0000992a       __minfinity                0044192a     libucrt:87tran.obj
 0002:00009934       __logemax                  00441934     libucrt:87tran.obj
 0002:0000995a       __OP_EXPjmptab             0044195a     libucrt:87tran.obj
 0002:00009980       __indefinite               00441980     libucrt:87disp.obj
 0002:0000998a       __piby2                    0044198a     libucrt:87disp.obj
 0002:00009994       __piby4                    00441994     libucrt:87disp.obj
 0002:000099c8       __DEFAULT_CW_in_mem        004419c8     libucrt:common.obj
 0002:000099ca       __pi_by_2_to_61            004419ca     libucrt:common.obj
 0002:00009a10       ___acrt_log10_table_t      00441a10     libucrt:log10_tables.obj
 0002:00009e20       ___acrt_log10_table_cb     00441e20     libucrt:log10_tables.obj
 0002:0000a230       __real@3fe0000000000000    00442230     libucrt:powhlp.obj
 0002:0000a250       __xmm@00000000000000000000000000000000 00442250     libvcruntime:wcschr.obj
 0002:0000a260       __Asan_string_should_annotate 00442260     libcpmt:asan_noop.obj
 0002:0000a260       __Asan_string_should_annotate_default 00442260     libcpmt:asan_noop.obj
 0002:0000a261       __Asan_vector_should_annotate_default 00442261     libcpmt:asan_noop.obj
 0002:0000a268       __load_config_used         00442268     LIBCMT:loadcfg.obj
 0002:0000a380       __tls_used                 00442380     LIBCMT:tlssup.obj
 0002:0000a398       ??_R4exception@std@@6B@    00442398     cts_mysql.obj
 0002:0000a3ac       ??_R3exception@std@@8      004423ac     cts_mysql.obj
 0002:0000a3bc       ??_R2exception@std@@8      004423bc     cts_mysql.obj
 0002:0000a3c4       ??_R1A@?0A@EA@exception@std@@8 004423c4     cts_mysql.obj
 0002:0000a3e0       ??_R4bad_alloc@std@@6B@    004423e0     cts_mysql.obj
 0002:0000a3f4       ??_R3bad_alloc@std@@8      004423f4     cts_mysql.obj
 0002:0000a404       ??_R2bad_alloc@std@@8      00442404     cts_mysql.obj
 0002:0000a410       ??_R1A@?0A@EA@bad_alloc@std@@8 00442410     cts_mysql.obj
 0002:0000a42c       ??_R4bad_array_new_length@std@@6B@ 0044242c     cts_mysql.obj
 0002:0000a440       ??_R3bad_array_new_length@std@@8 00442440     cts_mysql.obj
 0002:0000a450       ??_R2bad_array_new_length@std@@8 00442450     cts_mysql.obj
 0002:0000a460       ??_R1A@?0A@EA@bad_array_new_length@std@@8 00442460     cts_mysql.obj
 0002:0000a47c       ??_R4runtime_error@std@@6B@ 0044247c     TimeLog.obj
 0002:0000a490       ??_R3runtime_error@std@@8  00442490     TimeLog.obj
 0002:0000a4a0       ??_R2runtime_error@std@@8  004424a0     TimeLog.obj
 0002:0000a4ac       ??_R1A@?0A@EA@runtime_error@std@@8 004424ac     TimeLog.obj
 0002:0000a4c8       ??_R3error_category@std@@8 004424c8     TimeLog.obj
 0002:0000a4d8       ??_R2error_category@std@@8 004424d8     TimeLog.obj
 0002:0000a4e0       ??_R1A@?0A@EA@error_category@std@@8 004424e0     TimeLog.obj
 0002:0000a4fc       ??_R4_System_error@std@@6B@ 004424fc     TimeLog.obj
 0002:0000a510       ??_R3_System_error@std@@8  00442510     TimeLog.obj
 0002:0000a520       ??_R2_System_error@std@@8  00442520     TimeLog.obj
 0002:0000a530       ??_R1A@?0A@EA@_System_error@std@@8 00442530     TimeLog.obj
 0002:0000a54c       ??_R4system_error@std@@6B@ 0044254c     TimeLog.obj
 0002:0000a560       ??_R3system_error@std@@8   00442560     TimeLog.obj
 0002:0000a570       ??_R2system_error@std@@8   00442570     TimeLog.obj
 0002:0000a584       ??_R1A@?0A@EA@system_error@std@@8 00442584     TimeLog.obj
 0002:0000a5a0       ??_R4_Iostream_error_category2@std@@6B@ 004425a0     TimeLog.obj
 0002:0000a5b4       ??_R3_Iostream_error_category2@std@@8 004425b4     TimeLog.obj
 0002:0000a5c4       ??_R2_Iostream_error_category2@std@@8 004425c4     TimeLog.obj
 0002:0000a5d0       ??_R1A@?0A@EA@_Iostream_error_category2@std@@8 004425d0     TimeLog.obj
 0002:0000a5ec       ??_R4failure@ios_base@std@@6B@ 004425ec     TimeLog.obj
 0002:0000a600       ??_R3failure@ios_base@std@@8 00442600     TimeLog.obj
 0002:0000a610       ??_R2failure@ios_base@std@@8 00442610     TimeLog.obj
 0002:0000a628       ??_R1A@?0A@EA@failure@ios_base@std@@8 00442628     TimeLog.obj
 0002:0000a644       ??_R4logic_error@std@@6B@  00442644     libcpmt:xthrow.obj
 0002:0000a658       ??_R3logic_error@std@@8    00442658     libcpmt:xthrow.obj
 0002:0000a668       ??_R2logic_error@std@@8    00442668     libcpmt:xthrow.obj
 0002:0000a674       ??_R1A@?0A@EA@logic_error@std@@8 00442674     libcpmt:xthrow.obj
 0002:0000a690       ??_R4length_error@std@@6B@ 00442690     libcpmt:xthrow.obj
 0002:0000a6a4       ??_R3length_error@std@@8   004426a4     libcpmt:xthrow.obj
 0002:0000a6b4       ??_R2length_error@std@@8   004426b4     libcpmt:xthrow.obj
 0002:0000a6c4       ??_R1A@?0A@EA@length_error@std@@8 004426c4     libcpmt:xthrow.obj
 0002:0000a6e0       ??_R4ios_base@std@@6B@     004426e0     libcpmt:cout.obj
 0002:0000a6f4       ??_R3ios_base@std@@8       004426f4     libcpmt:cout.obj
 0002:0000a704       ??_R2ios_base@std@@8       00442704     libcpmt:cout.obj
 0002:0000a710       ??_R1A@?0A@EA@ios_base@std@@8 00442710     libcpmt:cout.obj
 0002:0000a72c       ??_R17?0A@EA@?$_Iosb@H@std@@8 0044272c     libcpmt:cout.obj
 0002:0000a748       ??_R3?$_Iosb@H@std@@8      00442748     libcpmt:cout.obj
 0002:0000a758       ??_R2?$_Iosb@H@std@@8      00442758     libcpmt:cout.obj
 0002:0000a760       ??_R1A@?0A@EA@?$_Iosb@H@std@@8 00442760     libcpmt:cout.obj
 0002:0000a77c       ??_R4?$basic_ios@DU?$char_traits@D@std@@@std@@6B@ 0044277c     libcpmt:cout.obj
 0002:0000a790       ??_R3?$basic_ios@DU?$char_traits@D@std@@@std@@8 00442790     libcpmt:cout.obj
 0002:0000a7a0       ??_R2?$basic_ios@DU?$char_traits@D@std@@@std@@8 004427a0     libcpmt:cout.obj
 0002:0000a7b0       ??_R1A@?0A@EA@?$basic_ios@DU?$char_traits@D@std@@@std@@8 004427b0     libcpmt:cout.obj
 0002:0000a7cc       ??_R4?$basic_streambuf@DU?$char_traits@D@std@@@std@@6B@ 004427cc     libcpmt:cout.obj
 0002:0000a7e0       ??_R3?$basic_streambuf@DU?$char_traits@D@std@@@std@@8 004427e0     libcpmt:cout.obj
 0002:0000a7f0       ??_R2?$basic_streambuf@DU?$char_traits@D@std@@@std@@8 004427f0     libcpmt:cout.obj
 0002:0000a7f8       ??_R1A@?0A@EA@?$basic_streambuf@DU?$char_traits@D@std@@@std@@8 004427f8     libcpmt:cout.obj
 0002:0000a814       ??_R1A@A@3FA@?$basic_ios@DU?$char_traits@D@std@@@std@@8 00442814     libcpmt:cout.obj
 0002:0000a830       ??_R1A@A@3EA@ios_base@std@@8 00442830     libcpmt:cout.obj
 0002:0000a84c       ??_R17A@3EA@?$_Iosb@H@std@@8 0044284c     libcpmt:cout.obj
 0002:0000a868       ??_R4?$basic_ostream@DU?$char_traits@D@std@@@std@@6B@ 00442868     libcpmt:cout.obj
 0002:0000a87c       ??_R3?$basic_ostream@DU?$char_traits@D@std@@@std@@8 0044287c     libcpmt:cout.obj
 0002:0000a88c       ??_R2?$basic_ostream@DU?$char_traits@D@std@@@std@@8 0044288c     libcpmt:cout.obj
 0002:0000a8a0       ??_R1A@?0A@EA@?$basic_ostream@DU?$char_traits@D@std@@@std@@8 004428a0     libcpmt:cout.obj
 0002:0000a8bc       ??_R4?$basic_filebuf@DU?$char_traits@D@std@@@std@@6B@ 004428bc     libcpmt:cout.obj
 0002:0000a8d0       ??_R3?$basic_filebuf@DU?$char_traits@D@std@@@std@@8 004428d0     libcpmt:cout.obj
 0002:0000a8e0       ??_R2?$basic_filebuf@DU?$char_traits@D@std@@@std@@8 004428e0     libcpmt:cout.obj
 0002:0000a8ec       ??_R1A@?0A@EA@?$basic_filebuf@DU?$char_traits@D@std@@@std@@8 004428ec     libcpmt:cout.obj
 0002:0000a908       ??_R4bad_cast@std@@6B@     00442908     libcpmt:cout.obj
 0002:0000a91c       ??_R3bad_cast@std@@8       0044291c     libcpmt:cout.obj
 0002:0000a92c       ??_R2bad_cast@std@@8       0044292c     libcpmt:cout.obj
 0002:0000a938       ??_R1A@?0A@EA@bad_cast@std@@8 00442938     libcpmt:cout.obj
 0002:0000a954       ??_R4_Facet_base@std@@6B@  00442954     libcpmt:cout.obj
 0002:0000a968       ??_R3_Facet_base@std@@8    00442968     libcpmt:cout.obj
 0002:0000a978       ??_R2_Facet_base@std@@8    00442978     libcpmt:cout.obj
 0002:0000a980       ??_R1A@?0A@EA@_Facet_base@std@@8 00442980     libcpmt:cout.obj
 0002:0000a99c       ??_R3facet@locale@std@@8   0044299c     libcpmt:cout.obj
 0002:0000a9ac       ??_R2facet@locale@std@@8   004429ac     libcpmt:cout.obj
 0002:0000a9bc       ??_R1A@?0A@EA@facet@locale@std@@8 004429bc     libcpmt:cout.obj
 0002:0000a9d8       ??_R13?0A@EA@_Crt_new_delete@std@@8 004429d8     libcpmt:cout.obj
 0002:0000a9f4       ??_R3_Crt_new_delete@std@@8 004429f4     libcpmt:cout.obj
 0002:0000aa04       ??_R2_Crt_new_delete@std@@8 00442a04     libcpmt:cout.obj
 0002:0000aa0c       ??_R1A@?0A@EA@_Crt_new_delete@std@@8 00442a0c     libcpmt:cout.obj
 0002:0000aa28       ??_R3codecvt_base@std@@8   00442a28     libcpmt:cout.obj
 0002:0000aa38       ??_R2codecvt_base@std@@8   00442a38     libcpmt:cout.obj
 0002:0000aa4c       ??_R1A@?0A@EA@codecvt_base@std@@8 00442a4c     libcpmt:cout.obj
 0002:0000aa68       ??_R3ctype_base@std@@8     00442a68     libcpmt:cout.obj
 0002:0000aa78       ??_R2ctype_base@std@@8     00442a78     libcpmt:cout.obj
 0002:0000aa8c       ??_R1A@?0A@EA@ctype_base@std@@8 00442a8c     libcpmt:cout.obj
 0002:0000aaa8       ??_R4?$ctype@D@std@@6B@    00442aa8     libcpmt:cout.obj
 0002:0000aabc       ??_R3?$ctype@D@std@@8      00442abc     libcpmt:cout.obj
 0002:0000aacc       ??_R2?$ctype@D@std@@8      00442acc     libcpmt:cout.obj
 0002:0000aae4       ??_R1A@?0A@EA@?$ctype@D@std@@8 00442ae4     libcpmt:cout.obj
 0002:0000ab00       ??_R4?$codecvt@DDU_Mbstatet@@@std@@6B@ 00442b00     libcpmt:cout.obj
 0002:0000ab14       ??_R3?$codecvt@DDU_Mbstatet@@@std@@8 00442b14     libcpmt:cout.obj
 0002:0000ab24       ??_R2?$codecvt@DDU_Mbstatet@@@std@@8 00442b24     libcpmt:cout.obj
 0002:0000ab3c       ??_R1A@?0A@EA@?$codecvt@DDU_Mbstatet@@@std@@8 00442b3c     libcpmt:cout.obj
 0002:0000ab58       ??_R4_Locimp@locale@std@@6B@ 00442b58     libcpmt:locale0.obj
 0002:0000ab6c       ??_R3_Locimp@locale@std@@8 00442b6c     libcpmt:locale0.obj
 0002:0000ab7c       ??_R2_Locimp@locale@std@@8 00442b7c     libcpmt:locale0.obj
 0002:0000ab90       ??_R1A@?0A@EA@_Locimp@locale@std@@8 00442b90     libcpmt:locale0.obj
 0002:0000abac       ??_R4type_info@@6B@        00442bac     LIBCMT:std_type_info_static.obj
 0002:0000abc0       ??_R3type_info@@8          00442bc0     LIBCMT:std_type_info_static.obj
 0002:0000abd0       ??_R2type_info@@8          00442bd0     LIBCMT:std_type_info_static.obj
 0002:0000abd8       ??_R1A@?0A@EA@type_info@@8 00442bd8     LIBCMT:std_type_info_static.obj
 0002:0000abf4       ??_R4bad_exception@std@@6B@ 00442bf4     libvcruntime:frame.obj
 0002:0000ac08       ??_R3bad_exception@std@@8  00442c08     libvcruntime:frame.obj
 0002:0000ac18       ??_R2bad_exception@std@@8  00442c18     libvcruntime:frame.obj
 0002:0000ac24       ??_R1A@?0A@EA@bad_exception@std@@8 00442c24     libvcruntime:frame.obj
 0002:0000ac40       ___safe_se_handler_table   00442c40     <linker-defined>
 0002:0000acc0       ___volatile_metadata       00442cc0     <linker-defined>
 0002:0000b428       ___rtc_iaa                 00443428     LIBCMT:initsect.obj
 0002:0000b42c       ___rtc_izz                 0044342c     LIBCMT:initsect.obj
 0002:0000b430       ___rtc_taa                 00443430     LIBCMT:initsect.obj
 0002:0000b434       ___rtc_tzz                 00443434     LIBCMT:initsect.obj
 0002:0000b438       __tls_start                00443438     LIBCMT:tlssup.obj
 0002:0000b43c       __Init_thread_epoch        0044343c     LIBCMT:thread_safe_statics.obj
 0002:0000b440       __tls_end                  00443440     LIBCMT:tlssup.obj
 0002:0000b448       __CT??_R0?AVexception@std@@@8??0exception@std@@QAE@ABV01@@Z12 00443448     cts_mysql.obj
 0002:0000b464       __TI3?AVbad_array_new_length@std@@ 00443464     cts_mysql.obj
 0002:0000b474       __CTA3?AVbad_array_new_length@std@@ 00443474     cts_mysql.obj
 0002:0000b484       __CT??_R0?AVbad_array_new_length@std@@@8??0bad_array_new_length@std@@QAE@ABV01@@Z12 00443484     cts_mysql.obj
 0002:0000b4a0       __CT??_R0?AVbad_alloc@std@@@8??0bad_alloc@std@@QAE@ABV01@@Z12 004434a0     cts_mysql.obj
 0002:0000b6c0       __CT??_R0?AVruntime_error@std@@@8??0runtime_error@std@@QAE@ABV01@@Z12 004436c0     TimeLog.obj
 0002:0000b6dc       __CT??_R0?AVsystem_error@std@@@8??0system_error@std@@QAE@ABV01@@Z20 004436dc     TimeLog.obj
 0002:0000b6f8       __CT??_R0?AV_System_error@std@@@8??0_System_error@std@@QAE@ABV01@@Z20 004436f8     TimeLog.obj
 0002:0000b714       __TI5?AVfailure@ios_base@std@@ 00443714     TimeLog.obj
 0002:0000b724       __CTA5?AVfailure@ios_base@std@@ 00443724     TimeLog.obj
 0002:0000b73c       __CT??_R0?AVfailure@ios_base@std@@@8??0failure@ios_base@std@@QAE@ABV012@@Z20 0044373c     TimeLog.obj
 0002:0000b7c8       __TI2?AVbad_alloc@std@@    004437c8     libcpmt:xthrow.obj
 0002:0000b7d8       __CTA2?AVbad_alloc@std@@   004437d8     libcpmt:xthrow.obj
 0002:0000b7e4       __CT??_R0?AVlogic_error@std@@@8??0logic_error@std@@QAE@ABV01@@Z12 004437e4     libcpmt:xthrow.obj
 0002:0000b800       __TI3?AVlength_error@std@@ 00443800     libcpmt:xthrow.obj
 0002:0000b810       __CTA3?AVlength_error@std@@ 00443810     libcpmt:xthrow.obj
 0002:0000b820       __CT??_R0?AVlength_error@std@@@8??0length_error@std@@QAE@ABV01@@Z12 00443820     libcpmt:xthrow.obj
 0002:0000b83c       __TI2?AVruntime_error@std@@ 0044383c     libcpmt:xthrow.obj
 0002:0000b84c       __CTA2?AVruntime_error@std@@ 0044384c     libcpmt:xthrow.obj
 0002:0000b9f0       __TI2?AVbad_cast@std@@     004439f0     libcpmt:cout.obj
 0002:0000ba00       __CTA2?AVbad_cast@std@@    00443a00     libcpmt:cout.obj
 0002:0000ba0c       __CT??_R0?AVbad_cast@std@@@8??0bad_cast@std@@QAE@ABV01@@Z12 00443a0c     libcpmt:cout.obj
 0002:0000bb9c       __TI2?AVbad_exception@std@@ 00443b9c     libvcruntime:frame.obj
 0002:0000bbac       __CTA2?AVbad_exception@std@@ 00443bac     libvcruntime:frame.obj
 0002:0000bbb8       __CT??_R0?AVbad_exception@std@@@8??0bad_exception@std@@QAE@ABV01@@Z12 00443bb8     libvcruntime:frame.obj
 0002:0000c1a4       __IMPORT_DESCRIPTOR_libmysql 004441a4     libmysql:libmysql.dll
 0002:0000c1b8       __IMPORT_DESCRIPTOR_KERNEL32 004441b8     kernel32:KERNEL32.dll
 0002:0000c1cc       __IMPORT_DESCRIPTOR_USER32 004441cc     user32:USER32.dll
 0002:0000c1e0       __IMPORT_DESCRIPTOR_GDI32  004441e0     gdi32:GDI32.dll
 0002:0000c1f4       __IMPORT_DESCRIPTOR_BugTrap 004441f4     BugTrap:BugTrap.dll
 0002:0000c208       __IMPORT_DESCRIPTOR_WS2_32 00444208     WS2_32:WS2_32.dll
 0002:0000c21c       __NULL_IMPORT_DESCRIPTOR   0044421c     libmysql:libmysql.dll
 0003:00000000       ?_Static@?1???$_Immortalize_memcpy_image@V_Iostream_error_category2@std@@@std@@YAABV_Iostream_error_category2@1@XZ@4U?$_Constexpr_immortalize_impl@V_Iostream_error_category2@std@@@1@A 00445000     TimeLog.obj
 0003:0000000c       ?_Sync@ios_base@std@@0_NA  0044500c     libcpmt:ios.obj
 0003:00000014       ___scrt_native_dllmain_reason 00445014     LIBCMT:utility.obj
 0003:00000018       __Init_global_epoch        00445018     LIBCMT:thread_safe_statics.obj
 0003:00000040       ___security_cookie         00445040     LIBCMT:gs_cookie.obj
 0003:00000080       ___security_cookie_complement 00445080     LIBCMT:gs_cookie.obj
 0003:00000084       __fltused                  00445084     LIBCMT:fltused.obj
 0003:00000090       ___isa_enabled             00445090     LIBCMT:cpu_disp.obj
 0003:000000a0       ___scrt_default_matherr    004450a0     LIBCMT:matherr.obj
 0003:000000c0       __NLG_Destination          004450c0     libvcruntime:exsup.obj
 0003:000000d0       __iob                      004450d0     libucrt:_file.obj
 0003:00000178       __pctype                   00445178     libucrt:ctype.obj
 0003:0000017c       __pwctype                  0044517c     libucrt:ctype.obj
 0003:00000180       ___abort_behavior          00445180     libucrt:abort.obj
 0003:00000190       ___acrt_lconv_c            00445190     libucrt:localeconv.obj
 0003:000001e0       ___acrt_lconv              004451e0     libucrt:localeconv.obj
 0003:000001e4       ___acrt_lconv_static_decimal 004451e4     libucrt:localeconv.obj
 0003:000001e8       ___acrt_lconv_static_W_decimal 004451e8     libucrt:localeconv.obj
 0003:000001f8       ___acrt_initial_locale_data 004451f8     libucrt:nlsdata.obj
 0003:000002b0       ___acrt_initial_locale_pointers 004452b0     libucrt:nlsdata.obj
 0003:000002b8       ___acrt_wide_c_locale_string 004452b8     libucrt:nlsdata.obj
 0003:000002bc       ___mb_cur_max              004452bc     libucrt:nlsdata.obj
 0003:000002c0       ___badioinfo               004452c0     libucrt:ioinit.obj
 0003:00000488       __lookuptrailbytes         00445488     libucrt:read.obj
 0003:00000588       ___globallocalestatus      00445588     libucrt:glstatus.obj
 0003:00000590       ___acrt_initial_multibyte_data 00445590     libucrt:mbctype.obj
 0003:00000ac0       ??_R0?AVexception@std@@@8  00445ac0     cts_mysql.obj
 0003:00000adc       ??_R0?AVbad_array_new_length@std@@@8 00445adc     cts_mysql.obj
 0003:00000b04       ??_R0?AVbad_alloc@std@@@8  00445b04     cts_mysql.obj
 0003:00000b20       ??_R0?AVruntime_error@std@@@8 00445b20     TimeLog.obj
 0003:00000b40       ??_R0?AVsystem_error@std@@@8 00445b40     TimeLog.obj
 0003:00000b60       ??_R0?AV_System_error@std@@@8 00445b60     TimeLog.obj
 0003:00000b80       ??_R0?AVfailure@ios_base@std@@@8 00445b80     TimeLog.obj
 0003:00000ba4       ??_R0?AVlogic_error@std@@@8 00445ba4     libcpmt:xthrow.obj
 0003:00000bc4       ??_R0?AVlength_error@std@@@8 00445bc4     libcpmt:xthrow.obj
 0003:00000be4       ??_R0?AVbad_cast@std@@@8   00445be4     libcpmt:cout.obj
 0003:00000c00       ??_R0?AVbad_exception@std@@@8 00445c00     libvcruntime:frame.obj
 0003:00000c20       ??_R0?AVerror_category@std@@@8 00445c20     TimeLog.obj
 0003:00000c44       ??_R0?AV_Iostream_error_category2@std@@@8 00445c44     TimeLog.obj
 0003:00000c70       ??_R0?AVios_base@std@@@8   00445c70     libcpmt:cout.obj
 0003:00000c8c       ??_R0?AV?$_Iosb@H@std@@@8  00445c8c     libcpmt:cout.obj
 0003:00000ca8       ??_R0?AV?$basic_ios@DU?$char_traits@D@std@@@std@@@8 00445ca8     libcpmt:cout.obj
 0003:00000ce0       ??_R0?AV?$basic_streambuf@DU?$char_traits@D@std@@@std@@@8 00445ce0     libcpmt:cout.obj
 0003:00000d1c       ??_R0?AV?$basic_ostream@DU?$char_traits@D@std@@@std@@@8 00445d1c     libcpmt:cout.obj
 0003:00000d58       ??_R0?AV?$basic_filebuf@DU?$char_traits@D@std@@@std@@@8 00445d58     libcpmt:cout.obj
 0003:00000d94       ??_R0?AV_Facet_base@std@@@8 00445d94     libcpmt:cout.obj
 0003:00000db4       ??_R0?AVfacet@locale@std@@@8 00445db4     libcpmt:cout.obj
 0003:00000dd4       ??_R0?AU_Crt_new_delete@std@@@8 00445dd4     libcpmt:cout.obj
 0003:00000df8       ??_R0?AVcodecvt_base@std@@@8 00445df8     libcpmt:cout.obj
 0003:00000e18       ??_R0?AUctype_base@std@@@8 00445e18     libcpmt:cout.obj
 0003:00000e38       ??_R0?AV?$ctype@D@std@@@8  00445e38     libcpmt:cout.obj
 0003:00000e54       ??_R0?AV?$codecvt@DDU_Mbstatet@@@std@@@8 00445e54     libcpmt:cout.obj
 0003:00000e80       ??_R0?AV_Locimp@locale@std@@@8 00445e80     libcpmt:locale0.obj
 0003:00000ea4       ??_R0?AVtype_info@@@8      00445ea4     LIBCMT:std_type_info_static.obj
 0003:00000ec0       ?_OptionsStorage@?1??__local_stdio_printf_options@@9@4_KA 00445ec0     TimeLog.obj
 0003:000026f0       ?mSERVER@@3VMyServer@@A    004476f0     S02_MyServer.obj
 0003:00002898       ?mUSER@@3PAVMyUser@@A      00447898     S03_MyUser.obj
 0003:000028a0       ?mWORK@@3VMyWork@@A        004478a0     S04_MyWork01.obj
 0003:00002ca0       ?W_FUNCTION@@3PAUWORKER_FUNCTION@@A 00447ca0     S04_MyWork02.obj
 0003:000030a0       ?mTRANSFER@@3VMyTransfer@@A 004480a0     S05_MyTransfer.obj
 0003:00007ec8       ?mGAME@@3VMyGame@@A        0044cec8     S07_MyGame01.obj
 0003:057c11e8       ?mDB@@3VMyDB@@A            05c061e8     S08_MyDB.obj
 0003:057f2f68       ?g_env@@3U__g_env@@A       05c37f68     Server_PLAYUSER.obj
 0003:057f2f6c       ?hMainWindow@@3PAUHWND__@@A 05c37f6c     Server_PLAYUSER.obj
 0003:057f2f70       ?mSERVER_INFO@@3USERVER_INFO@@A 05c37f70     Server_PLAYUSER.obj
 0003:057f3e48       ?cout@std@@3V?$basic_ostream@DU?$char_traits@D@std@@@1@A 05c38e48     libcpmt:cout.obj
 0003:057f3ef0       ?id@?$codecvt@DDU_Mbstatet@@@std@@2V0locale@2@A 05c38ef0     libcpmt:cout.obj
 0003:057f3ef4       ?_Stinit@?1??_Init@?$basic_filebuf@DU?$char_traits@D@std@@@std@@IAEXPAU_iobuf@@W4_Initfl@23@@Z@4U_Mbstatet@@A 05c38ef4     libcpmt:cout.obj
 0003:057f3efc       ?_Psave@?$_Facetptr@V?$ctype@D@std@@@std@@2PBVfacet@locale@2@B 05c38efc     libcpmt:cout.obj
 0003:057f3f00       ?_Psave@?$_Facetptr@V?$codecvt@DDU_Mbstatet@@@std@@@std@@2PBVfacet@locale@2@B 05c38f00     libcpmt:cout.obj
 0003:057f3fd0       ?_Id_cnt@id@locale@std@@0HA 05c38fd0     libcpmt:locale0.obj
 0003:057f3fd4       ?_Clocptr@_Locimp@locale@std@@0PAV123@A 05c38fd4     libcpmt:locale0.obj
 0003:057f3fd8       ?id@?$ctype@G@std@@2V0locale@2@A 05c38fd8     libcpmt:locale0.obj
 0003:057f3fdc       ?id@?$codecvt@_WDU_Mbstatet@@@std@@2V0locale@2@A 05c38fdc     libcpmt:locale0.obj
 0003:057f3fe0       ?id@?$codecvt@GDU_Mbstatet@@@std@@2V0locale@2@A 05c38fe0     libcpmt:locale0.obj
 0003:057f3fe4       ?id@?$ctype@_W@std@@2V0locale@2@A 05c38fe4     libcpmt:locale0.obj
 0003:057f3fe8       ?id@?$ctype@D@std@@2V0locale@2@A 05c38fe8     libcpmt:locale0.obj
 0003:057f4004       ?_Index@ios_base@std@@0HA  05c39004     libcpmt:ios.obj
 0003:057f403c       ?_Ptr_cin@std@@3PAV?$basic_istream@DU?$char_traits@D@std@@@1@A 05c3903c     libcpmt:iosptrs.obj
 0003:057f4040       ?_Ptr_cout@std@@3PAV?$basic_ostream@DU?$char_traits@D@std@@@1@A 05c39040     libcpmt:iosptrs.obj
 0003:057f4044       ?_Ptr_cerr@std@@3PAV?$basic_ostream@DU?$char_traits@D@std@@@1@A 05c39044     libcpmt:iosptrs.obj
 0003:057f4048       ?_Ptr_clog@std@@3PAV?$basic_ostream@DU?$char_traits@D@std@@@1@A 05c39048     libcpmt:iosptrs.obj
 0003:057f404c       ?_Ptr_wcin@std@@3PAV?$basic_istream@_WU?$char_traits@_W@std@@@1@A 05c3904c     libcpmt:iosptrs.obj
 0003:057f4050       ?_Ptr_wcout@std@@3PAV?$basic_ostream@_WU?$char_traits@_W@std@@@1@A 05c39050     libcpmt:iosptrs.obj
 0003:057f4054       ?_Ptr_wcerr@std@@3PAV?$basic_ostream@_WU?$char_traits@_W@std@@@1@A 05c39054     libcpmt:iosptrs.obj
 0003:057f4058       ?_Ptr_wclog@std@@3PAV?$basic_ostream@_WU?$char_traits@_W@std@@@1@A 05c39058     libcpmt:iosptrs.obj
 0003:057f4088       ?id@?$num_get@DV?$istreambuf_iterator@DU?$char_traits@D@std@@@std@@@std@@2V0locale@2@A 05c39088     libcpmt:locale.obj
 0003:057f408c       ?id@?$num_put@DV?$ostreambuf_iterator@DU?$char_traits@D@std@@@std@@@std@@2V0locale@2@A 05c3908c     libcpmt:locale.obj
 0003:057f4090       ?id@?$numpunct@D@std@@2V0locale@2@A 05c39090     libcpmt:locale.obj
 0003:057f4094       ?id@?$time_put@_WV?$ostreambuf_iterator@_WU?$char_traits@_W@std@@@std@@@std@@2V0locale@2@A 05c39094     libcpmt:wlocale.obj
 0003:057f4098       ?id@?$num_get@_WV?$istreambuf_iterator@_WU?$char_traits@_W@std@@@std@@@std@@2V0locale@2@A 05c39098     libcpmt:wlocale.obj
 0003:057f409c       ?id@?$num_put@_WV?$ostreambuf_iterator@_WU?$char_traits@_W@std@@@std@@@std@@2V0locale@2@A 05c3909c     libcpmt:wlocale.obj
 0003:057f40a0       ?id@?$numpunct@_W@std@@2V0locale@2@A 05c390a0     libcpmt:wlocale.obj
 0003:057f40a4       ?id@?$collate@_W@std@@2V0locale@2@A 05c390a4     libcpmt:wlocale.obj
 0003:057f40a8       ?id@?$messages@_W@std@@2V0locale@2@A 05c390a8     libcpmt:wlocale.obj
 0003:057f40ac       ?id@?$money_get@_WV?$istreambuf_iterator@_WU?$char_traits@_W@std@@@std@@@std@@2V0locale@2@A 05c390ac     libcpmt:wlocale.obj
 0003:057f40b0       ?id@?$money_put@_WV?$ostreambuf_iterator@_WU?$char_traits@_W@std@@@std@@@std@@2V0locale@2@A 05c390b0     libcpmt:wlocale.obj
 0003:057f40b4       ?id@?$moneypunct@_W$0A@@std@@2V0locale@2@A 05c390b4     libcpmt:wlocale.obj
 0003:057f40b8       ?id@?$moneypunct@_W$00@std@@2V0locale@2@A 05c390b8     libcpmt:wlocale.obj
 0003:057f40bc       ?id@?$time_get@_WV?$istreambuf_iterator@_WU?$char_traits@_W@std@@@std@@@std@@2V0locale@2@A 05c390bc     libcpmt:wlocale.obj
 0003:057f40c0       ?id@?$num_get@GV?$istreambuf_iterator@GU?$char_traits@G@std@@@std@@@std@@2V0locale@2@A 05c390c0     libcpmt:wlocale.obj
 0003:057f40c4       ?id@?$num_put@GV?$ostreambuf_iterator@GU?$char_traits@G@std@@@std@@@std@@2V0locale@2@A 05c390c4     libcpmt:wlocale.obj
 0003:057f40c8       ?id@?$numpunct@G@std@@2V0locale@2@A 05c390c8     libcpmt:wlocale.obj
 0003:057f40cc       ?id@?$collate@G@std@@2V0locale@2@A 05c390cc     libcpmt:wlocale.obj
 0003:057f40d0       ?id@?$messages@G@std@@2V0locale@2@A 05c390d0     libcpmt:wlocale.obj
 0003:057f40d4       ?id@?$money_get@GV?$istreambuf_iterator@GU?$char_traits@G@std@@@std@@@std@@2V0locale@2@A 05c390d4     libcpmt:wlocale.obj
 0003:057f40d8       ?id@?$money_put@GV?$ostreambuf_iterator@GU?$char_traits@G@std@@@std@@@std@@2V0locale@2@A 05c390d8     libcpmt:wlocale.obj
 0003:057f40dc       ?id@?$moneypunct@G$0A@@std@@2V0locale@2@A 05c390dc     libcpmt:wlocale.obj
 0003:057f40e0       ?id@?$moneypunct@G$00@std@@2V0locale@2@A 05c390e0     libcpmt:wlocale.obj
 0003:057f40e4       ?id@?$time_get@GV?$istreambuf_iterator@GU?$char_traits@G@std@@@std@@@std@@2V0locale@2@A 05c390e4     libcpmt:wlocale.obj
 0003:057f40e8       ?id@?$time_put@GV?$ostreambuf_iterator@GU?$char_traits@G@std@@@std@@@std@@2V0locale@2@A 05c390e8     libcpmt:wlocale.obj
 0003:057f40ec       ?id@?$collate@D@std@@2V0locale@2@A 05c390ec     libcpmt:xlocale.obj
 0003:057f40f0       ?id@?$messages@D@std@@2V0locale@2@A 05c390f0     libcpmt:xlocale.obj
 0003:057f40f4       ?id@?$money_get@DV?$istreambuf_iterator@DU?$char_traits@D@std@@@std@@@std@@2V0locale@2@A 05c390f4     libcpmt:xlocale.obj
 0003:057f40f8       ?id@?$money_put@DV?$ostreambuf_iterator@DU?$char_traits@D@std@@@std@@@std@@2V0locale@2@A 05c390f8     libcpmt:xlocale.obj
 0003:057f40fc       ?id@?$moneypunct@D$0A@@std@@2V0locale@2@A 05c390fc     libcpmt:xlocale.obj
 0003:057f4100       ?id@?$moneypunct@D$00@std@@2V0locale@2@A 05c39100     libcpmt:xlocale.obj
 0003:057f4104       ?id@?$time_get@DV?$istreambuf_iterator@DU?$char_traits@D@std@@@std@@@std@@2V0locale@2@A 05c39104     libcpmt:xlocale.obj
 0003:057f4108       ?id@?$time_put@DV?$ostreambuf_iterator@DU?$char_traits@D@std@@@std@@@std@@2V0locale@2@A 05c39108     libcpmt:xlocale.obj
 0003:057f410c       ___scrt_current_native_startup_state 05c3910c     LIBCMT:utility.obj
 0003:057f4110       ___scrt_native_startup_lock 05c39110     LIBCMT:utility.obj
 0003:057f4454       __tls_index                05c39454     LIBCMT:tlssup.obj
 0003:057f4458       ___isa_available           05c39458     LIBCMT:cpu_disp.obj
 0003:057f445c       ___favor                   05c3945c     LIBCMT:cpu_disp.obj
 0003:057f4460       ___scrt_debugger_hook_flag 05c39460     LIBCMT:utility_desktop.obj
 0003:057f4468       ?__type_info_root_node@@3U__type_info_node@@A 05c39468     LIBCMT:tncleanup.obj
 0003:057f4470       ?_OptionsStorage@?1??__local_stdio_scanf_options@@9@4_KA 05c39470     LIBCMT:default_local_stdio_options.obj
 0003:057f4478       ?__WinRTOutOfMemoryExceptionCallback@@3P6GPAXXZA 05c39478     libvcruntime:ehhelpers.obj
 0003:057f44a4       ___pPurecall               05c394a4     libvcruntime:purevirt_data.obj
 0003:057f44c4       ?pArgList@UnDecorator@@0PAVReplicator@@A 05c394c4     libvcruntime:undname.obj
 0003:057f44c8       ?pZNameList@UnDecorator@@0PAVReplicator@@A 05c394c8     libvcruntime:undname.obj
 0003:057f44cc       ?pTemplateArgList@UnDecorator@@0PAVReplicator@@A 05c394cc     libvcruntime:undname.obj
 0003:057f44d0       ?gName@UnDecorator@@0PBDB  05c394d0     libvcruntime:undname.obj
 0003:057f44d4       ?name@UnDecorator@@0PBDB   05c394d4     libvcruntime:undname.obj
 0003:057f44d8       ?disableFlags@UnDecorator@@0KA 05c394d8     libvcruntime:undname.obj
 0003:057f44dc       ?fExplicitTemplateParams@UnDecorator@@0_NA 05c394dc     libvcruntime:undname.obj
 0003:057f44dd       ?fGetTemplateArgumentList@UnDecorator@@0_NA 05c394dd     libvcruntime:undname.obj
 0003:057f44e0       ?m_pGetParameter@UnDecorator@@0P6APADJ@ZA 05c394e0     libvcruntime:undname.obj
 0003:057f44e4       ?m_CHPENameOffset@UnDecorator@@0KA 05c394e4     libvcruntime:undname.obj
 0003:057f44e8       ?m_recursionLevel@UnDecorator@@0KA 05c394e8     libvcruntime:undname.obj
 0003:057f4524       __nstream                  05c39524     libucrt:_file.obj
 0003:057f4528       ___piob                    05c39528     libucrt:_file.obj
 0003:057f452c       __cflush                   05c3952c     libucrt:_file.obj
 0003:057f4684       ___acrt_lconv_static_null  05c39684     libucrt:localeconv.obj
 0003:057f4688       ___acrt_lconv_static_W_null 05c39688     libucrt:localeconv.obj
 0003:057f47a8       __environ_table            05c397a8     libucrt:environment_initialization.obj
 0003:057f47ac       __wenviron_table           05c397ac     libucrt:environment_initialization.obj
 0003:057f47b0       ___dcrt_initial_wide_environment 05c397b0     libucrt:environment_initialization.obj
 0003:057f47b4       ___dcrt_initial_narrow_environment 05c397b4     libucrt:environment_initialization.obj
 0003:057f47b8       ___acrt_atexit_table       05c397b8     libucrt:onexit.obj
 0003:057f47c4       ___acrt_at_quick_exit_table 05c397c4     libucrt:onexit.obj
 0003:057f47d8       __pgmptr                   05c397d8     libucrt:argv_data.obj
 0003:057f47dc       ___argc                    05c397dc     libucrt:argv_data.obj
 0003:057f47e0       ___argv                    05c397e0     libucrt:argv_data.obj
 0003:057f47e4       ___wargv                   05c397e4     libucrt:argv_data.obj
 0003:057f47e8       __acmdln                   05c397e8     libucrt:argv_data.obj
 0003:057f47ec       __wcmdln                   05c397ec     libucrt:argv_data.obj
 0003:057f47f0       ___acrt_locale_changed_data 05c397f0     libucrt:wsetlocale.obj
 0003:057f47f8       __commode                  05c397f8     libucrt:ncommode.obj
 0003:057f47fc       ___acrt_current_locale_data 05c397fc     libucrt:nlsdata.obj
 0003:057f480c       ___acrt_stdout_buffer      05c3980c     libucrt:_sftbuf.obj
 0003:057f4810       ___acrt_stderr_buffer      05c39810     libucrt:_sftbuf.obj
 0003:057f4818       ___pioinfo                 05c39818     libucrt:ioinit.obj
 0003:057f4a18       __nhandle                  05c39a18     libucrt:ioinit.obj
 0003:057f4a1c       ?_timezone@@3V?$dual_state_global@J@__crt_state_management@@A 05c39a1c     libucrt:timeset.obj
 0003:057f4a20       ?_daylight@@3V?$dual_state_global@H@__crt_state_management@@A 05c39a20     libucrt:timeset.obj
 0003:057f4a24       ?_dstbias@@3V?$dual_state_global@J@__crt_state_management@@A 05c39a24     libucrt:timeset.obj
 0003:057f4be0       __mbctype                  05c39be0     libucrt:mbctype.obj
 0003:057f4be4       __mbcasemap                05c39be4     libucrt:mbctype.obj
 0003:057f4be8       ___acrt_current_multibyte_data 05c39be8     libucrt:mbctype.obj
 0003:057f4bf4       ___acrt_heap               05c39bf4     libucrt:heap_handle.obj
 0003:057f4bf8       __fmode                    05c39bf8     libucrt:txtmode.obj
 0003:057f4c0c       ___fastflag                05c39c0c     libucrt:fp_flags.obj
 0003:057f4c14       ___dyn_tls_dtor_callback   05c39c14     <common>
 0003:057f4c18       ___dyn_tls_init_callback   05c39c18     <common>
 0003:057f4c1c       ___scrt_ucrt_dll_is_in_use 05c39c1c     <common>
 0003:057f4c20       __pmatherr                 05c39c20     <common>
 0003:057f4c24       ___use_sse2_mathfcns       05c39c24     <common>

 entry point at        0001:00018962

 Static symbols

 0000:fa7b7000       .debug$S                   00400000     libmysql:libmysql.dll
 0000:fa7b7000       .debug$S                   00400000     libmysql:libmysql.dll
 0000:fa7b7000       .debug$S                   00400000     libmysql:libmysql.dll
 0000:fa7b7000       .debug$S                   00400000     libmysql:libmysql.dll
 0000:fa7b7000       .debug$S                   00400000     libmysql:libmysql.dll
 0000:fa7b7000       .debug$S                   00400000     libmysql:libmysql.dll
 0000:fa7b7000       .debug$S                   00400000     libmysql:libmysql.dll
 0000:fa7b7000       .debug$S                   00400000     libmysql:libmysql.dll
 0000:fa7b7000       .debug$S                   00400000     libmysql:libmysql.dll
 0000:fa7b7000       .debug$S                   00400000     libmysql:libmysql.dll
 0000:fa7b7000       .debug$S                   00400000     libmysql:libmysql.dll
 0000:fa7b7000       .debug$S                   00400000     libmysql:libmysql.dll
 0000:fa7b7000       .debug$S                   00400000     libmysql:libmysql.dll
 0000:fa7b7000       .debug$S                   00400000     libmysql:libmysql.dll
 0000:fa7b7000       .debug$S                   00400000     libmysql:libmysql.dll
 0000:fa7b7000       .debug$S                   00400000     BugTrap:BugTrap.dll
 0000:fa7b7000       .debug$S                   00400000     BugTrap:BugTrap.dll
 0000:fa7b7000       .debug$S                   00400000     BugTrap:BugTrap.dll
 0000:fa7b7000       .debug$S                   00400000     BugTrap:BugTrap.dll
 0000:fa7b7000       .debug$S                   00400000     WS2_32:WS2_32.dll
 0000:fa7b7000       .debug$S                   00400000     WS2_32:WS2_32.dll
 0000:fa7b7000       .debug$S                   00400000     WS2_32:WS2_32.dll
 0000:fa7b7000       .debug$S                   00400000     WS2_32:WS2_32.dll
 0000:fa7b7000       .debug$S                   00400000     WS2_32:WS2_32.dll
 0000:fa7b7000       .debug$S                   00400000     WS2_32:WS2_32.dll
 0000:fa7b7000       .debug$S                   00400000     WS2_32:WS2_32.dll
 0000:fa7b7000       .debug$S                   00400000     WS2_32:WS2_32.dll
 0000:fa7b7000       .debug$S                   00400000     WS2_32:WS2_32.dll
 0000:fa7b7000       .debug$S                   00400000     WS2_32:WS2_32.dll
 0000:fa7b7000       .debug$S                   00400000     WS2_32:WS2_32.dll
 0000:fa7b7000       .debug$S                   00400000     WS2_32:WS2_32.dll
 0000:fa7b7000       .debug$S                   00400000     WS2_32:WS2_32.dll
 0000:fa7b7000       .debug$S                   00400000     WS2_32:WS2_32.dll
 0000:fa7b7000       .debug$S                   00400000     WS2_32:WS2_32.dll
 0000:fa7b7000       .debug$S                   00400000     gdi32:GDI32.dll
 0000:fa7b7000       .debug$S                   00400000     kernel32:KERNEL32.dll
 0000:fa7b7000       .debug$S                   00400000     kernel32:KERNEL32.dll
 0000:fa7b7000       .debug$S                   00400000     kernel32:KERNEL32.dll
 0000:fa7b7000       .debug$S                   00400000     kernel32:KERNEL32.dll
 0000:fa7b7000       .debug$S                   00400000     kernel32:KERNEL32.dll
 0000:fa7b7000       .debug$S                   00400000     kernel32:KERNEL32.dll
 0000:fa7b7000       .debug$S                   00400000     kernel32:KERNEL32.dll
 0000:fa7b7000       .debug$S                   00400000     kernel32:KERNEL32.dll
 0000:fa7b7000       .debug$S                   00400000     kernel32:KERNEL32.dll
 0000:fa7b7000       .debug$S                   00400000     kernel32:KERNEL32.dll
 0000:fa7b7000       .debug$S                   00400000     kernel32:KERNEL32.dll
 0000:fa7b7000       .debug$S                   00400000     kernel32:KERNEL32.dll
 0000:fa7b7000       .debug$S                   00400000     kernel32:KERNEL32.dll
 0000:fa7b7000       .debug$S                   00400000     kernel32:KERNEL32.dll
 0000:fa7b7000       .debug$S                   00400000     kernel32:KERNEL32.dll
 0000:fa7b7000       .debug$S                   00400000     kernel32:KERNEL32.dll
 0000:fa7b7000       .debug$S                   00400000     kernel32:KERNEL32.dll
 0000:fa7b7000       .debug$S                   00400000     kernel32:KERNEL32.dll
 0000:fa7b7000       .debug$S                   00400000     kernel32:KERNEL32.dll
 0000:fa7b7000       .debug$S                   00400000     kernel32:KERNEL32.dll
 0000:fa7b7000       .debug$S                   00400000     kernel32:KERNEL32.dll
 0000:fa7b7000       .debug$S                   00400000     kernel32:KERNEL32.dll
 0000:fa7b7000       .debug$S                   00400000     kernel32:KERNEL32.dll
 0000:fa7b7000       .debug$S                   00400000     kernel32:KERNEL32.dll
 0000:fa7b7000       .debug$S                   00400000     kernel32:KERNEL32.dll
 0000:fa7b7000       .debug$S                   00400000     kernel32:KERNEL32.dll
 0000:fa7b7000       .debug$S                   00400000     kernel32:KERNEL32.dll
 0000:fa7b7000       .debug$S                   00400000     kernel32:KERNEL32.dll
 0000:fa7b7000       .debug$S                   00400000     kernel32:KERNEL32.dll
 0000:fa7b7000       .debug$S                   00400000     kernel32:KERNEL32.dll
 0000:fa7b7000       .debug$S                   00400000     kernel32:KERNEL32.dll
 0000:fa7b7000       .debug$S                   00400000     kernel32:KERNEL32.dll
 0000:fa7b7000       .debug$S                   00400000     kernel32:KERNEL32.dll
 0000:fa7b7000       .debug$S                   00400000     kernel32:KERNEL32.dll
 0000:fa7b7000       .debug$S                   00400000     kernel32:KERNEL32.dll
 0000:fa7b7000       .debug$S                   00400000     kernel32:KERNEL32.dll
 0000:fa7b7000       .debug$S                   00400000     kernel32:KERNEL32.dll
 0000:fa7b7000       .debug$S                   00400000     kernel32:KERNEL32.dll
 0000:fa7b7000       .debug$S                   00400000     kernel32:KERNEL32.dll
 0000:fa7b7000       .debug$S                   00400000     kernel32:KERNEL32.dll
 0000:fa7b7000       .debug$S                   00400000     kernel32:KERNEL32.dll
 0000:fa7b7000       .debug$S                   00400000     kernel32:KERNEL32.dll
 0000:fa7b7000       .debug$S                   00400000     kernel32:KERNEL32.dll
 0000:fa7b7000       .debug$S                   00400000     kernel32:KERNEL32.dll
 0000:fa7b7000       .debug$S                   00400000     kernel32:KERNEL32.dll
 0000:fa7b7000       .debug$S                   00400000     kernel32:KERNEL32.dll
 0000:fa7b7000       .debug$S                   00400000     kernel32:KERNEL32.dll
 0000:fa7b7000       .debug$S                   00400000     kernel32:KERNEL32.dll
 0000:fa7b7000       .debug$S                   00400000     kernel32:KERNEL32.dll
 0000:fa7b7000       .debug$S                   00400000     kernel32:KERNEL32.dll
 0000:fa7b7000       .debug$S                   00400000     kernel32:KERNEL32.dll
 0000:fa7b7000       .debug$S                   00400000     kernel32:KERNEL32.dll
 0000:fa7b7000       .debug$S                   00400000     kernel32:KERNEL32.dll
 0000:fa7b7000       .debug$S                   00400000     kernel32:KERNEL32.dll
 0000:fa7b7000       .debug$S                   00400000     kernel32:KERNEL32.dll
 0000:fa7b7000       .debug$S                   00400000     kernel32:KERNEL32.dll
 0000:fa7b7000       .debug$S                   00400000     kernel32:KERNEL32.dll
 0000:fa7b7000       .debug$S                   00400000     kernel32:KERNEL32.dll
 0000:fa7b7000       .debug$S                   00400000     kernel32:KERNEL32.dll
 0000:fa7b7000       .debug$S                   00400000     kernel32:KERNEL32.dll
 0000:fa7b7000       .debug$S                   00400000     kernel32:KERNEL32.dll
 0000:fa7b7000       .debug$S                   00400000     kernel32:KERNEL32.dll
 0000:fa7b7000       .debug$S                   00400000     kernel32:KERNEL32.dll
 0000:fa7b7000       .debug$S                   00400000     kernel32:KERNEL32.dll
 0000:fa7b7000       .debug$S                   00400000     kernel32:KERNEL32.dll
 0000:fa7b7000       .debug$S                   00400000     kernel32:KERNEL32.dll
 0000:fa7b7000       .debug$S                   00400000     kernel32:KERNEL32.dll
 0000:fa7b7000       .debug$S                   00400000     kernel32:KERNEL32.dll
 0000:fa7b7000       .debug$S                   00400000     kernel32:KERNEL32.dll
 0000:fa7b7000       .debug$S                   00400000     kernel32:KERNEL32.dll
 0000:fa7b7000       .debug$S                   00400000     kernel32:KERNEL32.dll
 0000:fa7b7000       .debug$S                   00400000     kernel32:KERNEL32.dll
 0000:fa7b7000       .debug$S                   00400000     kernel32:KERNEL32.dll
 0000:fa7b7000       .debug$S                   00400000     kernel32:KERNEL32.dll
 0000:fa7b7000       .debug$S                   00400000     kernel32:KERNEL32.dll
 0000:fa7b7000       .debug$S                   00400000     kernel32:KERNEL32.dll
 0000:fa7b7000       .debug$S                   00400000     kernel32:KERNEL32.dll
 0000:fa7b7000       .debug$S                   00400000     kernel32:KERNEL32.dll
 0000:fa7b7000       .debug$S                   00400000     kernel32:KERNEL32.dll
 0000:fa7b7000       .debug$S                   00400000     kernel32:KERNEL32.dll
 0000:fa7b7000       .debug$S                   00400000     kernel32:KERNEL32.dll
 0000:fa7b7000       .debug$S                   00400000     kernel32:KERNEL32.dll
 0000:fa7b7000       .debug$S                   00400000     kernel32:KERNEL32.dll
 0000:fa7b7000       .debug$S                   00400000     kernel32:KERNEL32.dll
 0000:fa7b7000       .debug$S                   00400000     kernel32:KERNEL32.dll
 0000:fa7b7000       .debug$S                   00400000     kernel32:KERNEL32.dll
 0000:fa7b7000       .debug$S                   00400000     kernel32:KERNEL32.dll
 0000:fa7b7000       .debug$S                   00400000     kernel32:KERNEL32.dll
 0000:fa7b7000       .debug$S                   00400000     kernel32:KERNEL32.dll
 0000:fa7b7000       .debug$S                   00400000     kernel32:KERNEL32.dll
 0000:fa7b7000       .debug$S                   00400000     kernel32:KERNEL32.dll
 0000:fa7b7000       .debug$S                   00400000     kernel32:KERNEL32.dll
 0000:fa7b7000       .debug$S                   00400000     kernel32:KERNEL32.dll
 0000:fa7b7000       .debug$S                   00400000     kernel32:KERNEL32.dll
 0000:fa7b7000       .debug$S                   00400000     kernel32:KERNEL32.dll
 0000:fa7b7000       .debug$S                   00400000     kernel32:KERNEL32.dll
 0000:fa7b7000       .debug$S                   00400000     kernel32:KERNEL32.dll
 0000:fa7b7000       .debug$S                   00400000     kernel32:KERNEL32.dll
 0000:fa7b7000       .debug$S                   00400000     kernel32:KERNEL32.dll
 0000:fa7b7000       .debug$S                   00400000     kernel32:KERNEL32.dll
 0000:fa7b7000       .debug$S                   00400000     kernel32:KERNEL32.dll
 0000:fa7b7000       .debug$S                   00400000     kernel32:KERNEL32.dll
 0000:fa7b7000       .debug$S                   00400000     kernel32:KERNEL32.dll
 0000:fa7b7000       .debug$S                   00400000     kernel32:KERNEL32.dll
 0000:fa7b7000       .debug$S                   00400000     kernel32:KERNEL32.dll
 0000:fa7b7000       .debug$S                   00400000     kernel32:KERNEL32.dll
 0000:fa7b7000       .debug$S                   00400000     kernel32:KERNEL32.dll
 0000:fa7b7000       .debug$S                   00400000     kernel32:KERNEL32.dll
 0000:fa7b7000       .debug$S                   00400000     kernel32:KERNEL32.dll
 0000:fa7b7000       .debug$S                   00400000     user32:USER32.dll
 0000:fa7b7000       .debug$S                   00400000     user32:USER32.dll
 0000:fa7b7000       .debug$S                   00400000     user32:USER32.dll
 0000:fa7b7000       .debug$S                   00400000     user32:USER32.dll
 0000:fa7b7000       .debug$S                   00400000     user32:USER32.dll
 0000:fa7b7000       .debug$S                   00400000     user32:USER32.dll
 0000:fa7b7000       .debug$S                   00400000     user32:USER32.dll
 0000:fa7b7000       .debug$S                   00400000     user32:USER32.dll
 0000:fa7b7000       .debug$S                   00400000     user32:USER32.dll
 0001:00000000       ??__EmDB@@YAXXZ            00401000 f   S08_MyDB.obj
 0001:00000075       ??__Ecout@std@@YAXXZ       00401075 f   libcpmt:cout.obj
 0001:00000094       ??__Efout@std@@YAXXZ       00401094 f   libcpmt:cout.obj
 0001:000000ce       ??__Einit_cout@std@@YAXXZ  004010ce f   libcpmt:cout.obj
 0001:000000d8       ??__Einitlocks@@YAXXZ      004010d8 f   libcpmt:cout.obj
 0001:000000ee       ??__Einitlocks@std@@YAXXZ  004010ee f   libcpmt:xlock.obj
 0001:00000104       ??__Eclassic_locale@std@@YAXXZ 00401104 f   libcpmt:locale0.obj
 0001:00000110       ??__F_Fac_tidy_reg@std@@YAXXZ 00401110 f   libcpmt:locale0.obj
 0001:0000011c       ??__Einitlocks@std@@YAXXZ  0040111c f   libcpmt:iosptrs.obj
 0001:00000132       ??__Finit_atexit@@YAXXZ    00401132 f   libcpmt:iosptrs.obj
 0001:00000b20       __catch$??$?6U?$char_traits@D@std@@@std@@YAAAV?$basic_ostream@DU?$char_traits@D@std@@@0@AAV10@PBD@Z$0 00401b20 f i TimeLog.obj
 0001:000013d2       __catch$?_Osfx@?$basic_ostream@DU?$char_traits@D@std@@@std@@QAEXXZ$0 004023d2 f i TimeLog.obj
 0001:0000179d       __catch$?flush@?$basic_ostream@DU?$char_traits@D@std@@@std@@QAEAAV12@XZ$0 0040279d f i TimeLog.obj
 0001:000020a0       $LN105                     004030a0     S02_MyServer.obj
 0001:000020b4       $LN104                     004030b4     S02_MyServer.obj
 0001:00016b2b       _initialize_environment    00417b2b f i libucrt:initialization.obj
 0001:00016b2b       _initialize_global_state_isolation 00417b2b f i libucrt:initialization.obj
 0001:00016b2b       _report_memory_leaks       00417b2b f i libucrt:initialization.obj
 0001:00016b2b       _uninitialize_c            00417b2b f i libucrt:initialization.obj
 0001:00016b2b       _uninitialize_global_state_isolation 00417b2b f i libucrt:initialization.obj
 0001:000170af       _no_op_initialize          004180af f i libucrt:wsetlocale.obj
 0001:00017ab6       _tidy_global               00418ab6 f   libcpmt:locale0.obj
 0001:000181dd       ?find_pe_section@@YAPAU_IMAGE_SECTION_HEADER@@QAEI@Z 004191dd f   LIBCMT:utility.obj
 0001:000186f0       $$000000                   004196f0     LIBCMT:chkstk.obj
 0001:00018704       cs10                       00419704     LIBCMT:chkstk.obj
 0001:00018712       cs20                       00419712     LIBCMT:chkstk.obj
 0001:0001871b       ?pre_c_initialization@@YAHXZ 0041971b f   LIBCMT:exe_main.obj
 0001:000187c6       ?post_pgo_initialization@@YAHXZ 004197c6 f   LIBCMT:exe_main.obj
 0001:000187ce       ?pre_cpp_initialization@@YAXXZ 004197ce f   LIBCMT:exe_main.obj
 0001:000187e0       ?__scrt_common_main_seh@@YAHXZ 004197e0 f   LIBCMT:exe_main.obj
 0001:00018a40       $$000000                   00419a40     LIBCMT:alloca16.obj
 0001:00018a56       alloca_8                   00419a56     LIBCMT:alloca16.obj
 0001:00018c40       $$000000                   00419c40     LIBCMT:llmul.obj
 0001:00018c59       hard                       00419c59     LIBCMT:llmul.obj
 0001:00018c80       $$000000                   00419c80     LIBCMT:ulldiv.obj
 0001:00018ca2       L1                         00419ca2     LIBCMT:ulldiv.obj
 0001:00018cb0       L3                         00419cb0     LIBCMT:ulldiv.obj
 0001:00018cde       L4                         00419cde     LIBCMT:ulldiv.obj
 0001:00018cdf       L5                         00419cdf     LIBCMT:ulldiv.obj
 0001:00018ce3       L2                         00419ce3     LIBCMT:ulldiv.obj
 0001:00018e30       ?is_managed_app@@YA_NXZ    00419e30 f   libucrt:exit.obj
 0001:00018ee0       $$000000                   00419ee0     LIBCMT:sehprolg4.obj
 0001:00018f25       ___get_entropy             00419f25 f   LIBCMT:gs_support.obj
 0001:00019180       $$000000                   0041a180     libvcruntime:memcpy.obj
 0001:00019180       $$000000                   0041a180     libvcruntime:memmove.obj
 0001:000191a0       CopyUp                     0041a1a0     libvcruntime:memcpy.obj
 0001:000191a0       CopyUp                     0041a1a0     libvcruntime:memmove.obj
 0001:000191c4       CopyUpLargeMov             0041a1c4     libvcruntime:memcpy.obj
 0001:000191c4       CopyUpLargeMov             0041a1c4     libvcruntime:memmove.obj
 0001:000191d7       CopyUpSSE2Check            0041a1d7     libvcruntime:memcpy.obj
 0001:000191d7       CopyUpSSE2Check            0041a1d7     libvcruntime:memmove.obj
 0001:000191f0       AtomChk                    0041a1f0     libvcruntime:memcpy.obj
 0001:000191f0       AtomChk                    0041a1f0     libvcruntime:memmove.obj
 0001:00019216       PalignHead4                0041a216     libvcruntime:memcpy.obj
 0001:00019216       PalignHead4                0041a216     libvcruntime:memmove.obj
 0001:00019229       PalignHead8                0041a229     libvcruntime:memcpy.obj
 0001:00019229       PalignHead8                0041a229     libvcruntime:memmove.obj
 0001:00019240       PalignLoop                 0041a240     libvcruntime:memcpy.obj
 0001:00019240       PalignLoop                 0041a240     libvcruntime:memmove.obj
 0001:00019252       MovPalign12                0041a252     libvcruntime:memcpy.obj
 0001:00019252       MovPalign12                0041a252     libvcruntime:memmove.obj
 0001:0001925c       PalignLoop12               0041a25c     libvcruntime:memcpy.obj
 0001:0001925c       PalignLoop12               0041a25c     libvcruntime:memmove.obj
 0001:000192ad       MovPalign8                 0041a2ad     libvcruntime:memcpy.obj
 0001:000192ad       MovPalign8                 0041a2ad     libvcruntime:memmove.obj
 0001:000192b8       PalignLoop8                0041a2b8     libvcruntime:memcpy.obj
 0001:000192b8       PalignLoop8                0041a2b8     libvcruntime:memmove.obj
 0001:00019306       MovPalign4                 0041a306     libvcruntime:memcpy.obj
 0001:00019306       MovPalign4                 0041a306     libvcruntime:memmove.obj
 0001:00019310       PalignLoop4                0041a310     libvcruntime:memcpy.obj
 0001:00019310       PalignLoop4                0041a310     libvcruntime:memmove.obj
 0001:0001935c       PalignTail                 0041a35c     libvcruntime:memcpy.obj
 0001:0001935c       PalignTail                 0041a35c     libvcruntime:memmove.obj
 0001:00019374       PalignTail4                0041a374     libvcruntime:memcpy.obj
 0001:00019374       PalignTail4                0041a374     libvcruntime:memmove.obj
 0001:00019387       PalignTail8                0041a387     libvcruntime:memcpy.obj
 0001:00019387       PalignTail8                0041a387     libvcruntime:memmove.obj
 0001:0001939e       PalignTailLE3              0041a39e     libvcruntime:memcpy.obj
 0001:0001939e       PalignTailLE3              0041a39e     libvcruntime:memmove.obj
 0001:000193a7       Dword_align                0041a3a7     libvcruntime:memcpy.obj
 0001:000193a7       Dword_align                0041a3a7     libvcruntime:memmove.obj
 0001:000193af       Dword_up_align_loop        0041a3af     libvcruntime:memcpy.obj
 0001:000193af       Dword_up_align_loop        0041a3af     libvcruntime:memmove.obj
 0001:000193c2       Dword_align_Ok             0041a3c2     libvcruntime:memcpy.obj
 0001:000193c2       Dword_align_Ok             0041a3c2     libvcruntime:memmove.obj
 0001:000193dc       ByteCopyUp                 0041a3dc     libvcruntime:memcpy.obj
 0001:000193dc       ByteCopyUp                 0041a3dc     libvcruntime:memmove.obj
 0001:000193e4       TrailingUpVec              0041a3e4     libvcruntime:memcpy.obj
 0001:000193e4       TrailingUpVec              0041a3e4     libvcruntime:memmove.obj
 0001:000193f4       TrailingUp0                0041a3f4     libvcruntime:memcpy.obj
 0001:000193f4       TrailingUp0                0041a3f4     libvcruntime:memmove.obj
 0001:000193fc       TrailingUp1                0041a3fc     libvcruntime:memcpy.obj
 0001:000193fc       TrailingUp1                0041a3fc     libvcruntime:memmove.obj
 0001:00019408       TrailingUp2                0041a408     libvcruntime:memcpy.obj
 0001:00019408       TrailingUp2                0041a408     libvcruntime:memmove.obj
 0001:0001941c       TrailingUp3                0041a41c     libvcruntime:memcpy.obj
 0001:0001941c       TrailingUp3                0041a41c     libvcruntime:memmove.obj
 0001:00019434       CopyDown                   0041a434     libvcruntime:memcpy.obj
 0001:00019434       CopyDown                   0041a434     libvcruntime:memmove.obj
 0001:00019459       CopyDownNotAligned         0041a459     libvcruntime:memcpy.obj
 0001:00019459       CopyDownNotAligned         0041a459     libvcruntime:memmove.obj
 0001:00019460       CopyDownAlignLoop          0041a460     libvcruntime:memcpy.obj
 0001:00019460       CopyDownAlignLoop          0041a460     libvcruntime:memmove.obj
 0001:0001946d       CopyDownAligned            0041a46d     libvcruntime:memcpy.obj
 0001:0001946d       CopyDownAligned            0041a46d     libvcruntime:memmove.obj
 0001:00019490       TrailingDownVec            0041a490     libvcruntime:memcpy.obj
 0001:00019490       TrailingDownVec            0041a490     libvcruntime:memmove.obj
 0001:000194a0       TrailingDown0              0041a4a0     libvcruntime:memcpy.obj
 0001:000194a0       TrailingDown0              0041a4a0     libvcruntime:memmove.obj
 0001:000194a8       TrailingDown1              0041a4a8     libvcruntime:memcpy.obj
 0001:000194a8       TrailingDown1              0041a4a8     libvcruntime:memmove.obj
 0001:000194b8       TrailingDown2              0041a4b8     libvcruntime:memcpy.obj
 0001:000194b8       TrailingDown2              0041a4b8     libvcruntime:memmove.obj
 0001:000194cc       TrailingDown3              0041a4cc     libvcruntime:memcpy.obj
 0001:000194cc       TrailingDown3              0041a4cc     libvcruntime:memmove.obj
 0001:000194e5       XmmMovLargeAlignTest       0041a4e5     libvcruntime:memcpy.obj
 0001:000194e5       XmmMovLargeAlignTest       0041a4e5     libvcruntime:memmove.obj
 0001:000194ed       XmmMovAlignLoop            0041a4ed     libvcruntime:memcpy.obj
 0001:000194ed       XmmMovAlignLoop            0041a4ed     libvcruntime:memmove.obj
 0001:000194fc       XmmMovLargeLoop            0041a4fc     libvcruntime:memcpy.obj
 0001:000194fc       XmmMovLargeLoop            0041a4fc     libvcruntime:memmove.obj
 0001:0001956c       XmmMovSmallTest            0041a56c     libvcruntime:memcpy.obj
 0001:0001956c       XmmMovSmallTest            0041a56c     libvcruntime:memmove.obj
 0001:00019571       XmmMovSmallLoop            0041a571     libvcruntime:memcpy.obj
 0001:00019571       XmmMovSmallLoop            0041a571     libvcruntime:memmove.obj
 0001:00019594       CopyDownSmall              0041a594     libvcruntime:memcpy.obj
 0001:00019594       CopyDownSmall              0041a594     libvcruntime:memmove.obj
 0001:0001959c       CopyDownDwordLoop          0041a59c     libvcruntime:memcpy.obj
 0001:0001959c       CopyDownDwordLoop          0041a59c     libvcruntime:memmove.obj
 0001:000195b1       CopyDownByteTest           0041a5b1     libvcruntime:memcpy.obj
 0001:000195b1       CopyDownByteTest           0041a5b1     libvcruntime:memmove.obj
 0001:000195b5       CopyDownByteLoop           0041a5b5     libvcruntime:memcpy.obj
 0001:000195b5       CopyDownByteLoop           0041a5b5     libvcruntime:memmove.obj
 0001:000195c4       CopyDownReturn             0041a5c4     libvcruntime:memcpy.obj
 0001:000195c4       CopyDownReturn             0041a5c4     libvcruntime:memmove.obj
 0001:000195d0       XmmCopy                    0041a5d0     libvcruntime:memcpy.obj
 0001:000195d0       XmmCopy                    0041a5d0     libvcruntime:memmove.obj
 0001:000195dd       XmmCopyAligned             0041a5dd     libvcruntime:memcpy.obj
 0001:000195dd       XmmCopyAligned             0041a5dd     libvcruntime:memmove.obj
 0001:000195f0       XmmCopyLargeLoop           0041a5f0     libvcruntime:memcpy.obj
 0001:000195f0       XmmCopyLargeLoop           0041a5f0     libvcruntime:memmove.obj
 0001:0001964d       XmmCopySmallTest           0041a64d     libvcruntime:memcpy.obj
 0001:0001964d       XmmCopySmallTest           0041a64d     libvcruntime:memmove.obj
 0001:00019660       XmmCopySmallLoop           0041a660     libvcruntime:memcpy.obj
 0001:00019660       XmmCopySmallLoop           0041a660     libvcruntime:memmove.obj
 0001:0001967b       CopyUpDwordMov             0041a67b     libvcruntime:memcpy.obj
 0001:0001967b       CopyUpDwordMov             0041a67b     libvcruntime:memmove.obj
 0001:00019680       CopyUpDwordTest            0041a680     libvcruntime:memcpy.obj
 0001:00019680       CopyUpDwordTest            0041a680     libvcruntime:memmove.obj
 0001:00019687       CopyUpDwordLoop            0041a687     libvcruntime:memcpy.obj
 0001:00019687       CopyUpDwordLoop            0041a687     libvcruntime:memmove.obj
 0001:00019696       CopyUpByteTest             0041a696     libvcruntime:memcpy.obj
 0001:00019696       CopyUpByteTest             0041a696     libvcruntime:memmove.obj
 0001:0001969d       CopyUpByteLoop             0041a69d     libvcruntime:memcpy.obj
 0001:0001969d       CopyUpByteLoop             0041a69d     libvcruntime:memmove.obj
 0001:000196b0       CopyUpReturn               0041a6b0     libvcruntime:memcpy.obj
 0001:000196b0       CopyUpReturn               0041a6b0     libvcruntime:memmove.obj
 0001:000196c0       XmmCopyUnaligned           0041a6c0     libvcruntime:memcpy.obj
 0001:000196c0       XmmCopyUnaligned           0041a6c0     libvcruntime:memmove.obj
 0001:000196d3       XmmAlignByte               0041a6d3     libvcruntime:memcpy.obj
 0001:000196d3       XmmAlignByte               0041a6d3     libvcruntime:memmove.obj
 0001:000196dc       XmmAlignDwordTest          0041a6dc     libvcruntime:memcpy.obj
 0001:000196dc       XmmAlignDwordTest          0041a6dc     libvcruntime:memmove.obj
 0001:000196e1       XmmAlignDwordLoop          0041a6e1     libvcruntime:memcpy.obj
 0001:000196e1       XmmAlignDwordLoop          0041a6e1     libvcruntime:memmove.obj
 0001:000196ee       XmmAlignAdjustCnt          0041a6ee     libvcruntime:memcpy.obj
 0001:000196ee       XmmAlignAdjustCnt          0041a6ee     libvcruntime:memmove.obj
 0001:000197ae       ?_FilterSetCurrentException@@YAKPAU_EXCEPTION_POINTERS@@E@Z 0041a7ae f   libvcruntime:ehhelpers.obj
 0001:00019c70       $$000000                   0041ac70     libvcruntime:memset.obj
 0001:00019cb5       XMMMov                     0041acb5     libvcruntime:memset.obj
 0001:00019cf0       LargeRangeBytes            0041acf0     libvcruntime:memset.obj
 0001:00019d2d       XmmMovSmall                0041ad2d     libvcruntime:memset.obj
 0001:00019d40       XmmSmallLoop               0041ad40     libvcruntime:memset.obj
 0001:00019d45       MidRangeBytes              0041ad45     libvcruntime:memset.obj
 0001:00019d61       XMMTrailingBytes           0041ad61     libvcruntime:memset.obj
 0001:00019d75       SmallMov                   0041ad75     libvcruntime:memset.obj
 0001:00019d7d       ByteLoop                   0041ad7d     libvcruntime:memset.obj
 0001:00019d8b       DwordTest                  0041ad8b     libvcruntime:memset.obj
 0001:00019d9b       QwordTest                  0041ad9b     libvcruntime:memset.obj
 0001:00019db0       QwordLoop                  0041adb0     libvcruntime:memset.obj
 0001:00019dc3       toend                      0041adc3     libvcruntime:memset.obj
 0001:0001b40c       $LN1250                    0041c40c     libvcruntime:memcmp.obj
 0001:0001b4d0       _ValidateLocalCookies      0041c4d0 f   libvcruntime:chandler4.obj
 0001:0001b7eb       ??$BuildCatchObjectHelperInternal@V__FrameHandler3@@@@YAHPAUEHExceptionRecord@@PAXPBU_s_HandlerType@@PBU_s_CatchableType@@@Z 0041c7eb f   libvcruntime:frame.obj
 0001:0001b929       ??$BuildCatchObjectInternal@V__FrameHandler3@@@@YAXPAUEHExceptionRecord@@PAXPBU_s_HandlerType@@PBU_s_CatchableType@@@Z 0041c929 f   libvcruntime:frame.obj
 0001:0001b9c2       ??$CatchIt@V__FrameHandler3@@@@YAXPAUEHExceptionRecord@@PAUEHRegistrationNode@@PAU_CONTEXT@@PAXPBU_s_FuncInfo@@PBU_s_HandlerType@@PBU_s_CatchableType@@PBU_s_TryBlockMapEntry@@H1EE@Z 0041c9c2 f   libvcruntime:frame.obj
 0001:0001ba42       ??$FindHandler@V__FrameHandler3@@@@YAXPAUEHExceptionRecord@@PAUEHRegistrationNode@@PAU_CONTEXT@@PAXPBU_s_FuncInfo@@EH1@Z 0041ca42 f   libvcruntime:frame.obj
 0001:0001bde7       ??$FindHandlerForForeignException@V__FrameHandler3@@@@YAXPAUEHExceptionRecord@@PAUEHRegistrationNode@@PAU_CONTEXT@@PAXPBU_s_FuncInfo@@HH1@Z 0041cde7 f   libvcruntime:frame.obj
 0001:0001c108       ?CallCatchBlock@@YAPAXPAUEHExceptionRecord@@PAUEHRegistrationNode@@PAU_CONTEXT@@PBU_s_FuncInfo@@PAXHK@Z 0041d108 f   libvcruntime:frame.obj
 0001:0001c2d7       ?CallUnexpected@@YAXPBU_s_ESTypeList@@@Z 0041d2d7 f   libvcruntime:frame.obj
 0001:0001c2f7       __catch$?CallUnexpected@@YAXPBU_s_ESTypeList@@@Z$0 0041d2f7 f   libvcruntime:frame.obj
 0001:0001c316       ?ExFilterRethrow@@YAHPAU_EXCEPTION_POINTERS@@@Z 0041d316 f   libvcruntime:frame.obj
 0001:0001c460       ?IsInExceptionSpec@@YAEPAUEHExceptionRecord@@PBU_s_ESTypeList@@@Z 0041d460 f   libvcruntime:frame.obj
 0001:0001c530       $$000000                   0041d530     libvcruntime:lowhelpr.obj
 0001:0001c56f       _NLG_Continue              0041d56f     libvcruntime:lowhelpr.obj
 0001:0001c620       $$000000                   0041d620     libvcruntime:exsup4.obj
 0001:0001c652       _lu_top                    0041d652     libvcruntime:exsup4.obj
 0001:0001c6b1       _lu_done                   0041d6b1     libvcruntime:exsup4.obj
 0001:0001c6c0       $$000000                   0041d6c0     libvcruntime:exsup4.obj
 0001:0001c6c0       __unwind_handler4          0041d6c0 f   libvcruntime:exsup4.obj
 0001:0001c710       $$000000                   0041d710     libvcruntime:exsup4.obj
 0001:0001c730       $$000000                   0041d730     libvcruntime:exsup4.obj
 0001:0001c750       $$000000                   0041d750     libvcruntime:exsup4.obj
 0001:0001c765       ReturnPoint                0041d765     libvcruntime:exsup4.obj
 0001:0001c770       $$000000                   0041d770     libvcruntime:exsup4.obj
 0001:0001c787       ?try_get_function@@YAPAXW4function_id@?A0x14174aea@@QBDQBW4module_id@2@2@Z 0041d787 f   libvcruntime:winapi_downlevel.obj
 0001:0001c827       ?try_load_library_from_system_directory@@YAPAUHINSTANCE__@@QB_W@Z 0041d827 f   libvcruntime:winapi_downlevel.obj
 0001:0001c9f0       $$000000                   0041d9f0     libvcruntime:exsup.obj
 0001:0001ca00       $$000000                   0041da00     libvcruntime:exsup.obj
 0001:0001ca0b       __NLG_Go                   0041da0b     libvcruntime:exsup.obj
 0001:0001ca20       $$000000                   0041da20     libvcruntime:exsup.obj
 0001:0001cdff       ??$common_xtox@K_W@@YAHKQA_WII_N@Z 0041ddff f   libucrt:xtoa.obj
 0001:0001cebb       ??$common_xtox_s@K_W@@YAHKQA_WII_N@Z 0041debb f   libucrt:xtoa.obj
 0001:0001cf60       ??$?RV<lambda_62491a2101a2aba6cc4a769149c84f1f>@@AAV<lambda_826c27fce7726908515bbc79a5266961>@@V<lambda_4e64bbd54b50a7b070e3ea8d795375b6>@@@?$__crt_seh_guarded_call@H@@QAEH$$QAV<lambda_62491a2101a2aba6cc4a769149c84f1f>@@AAV<lambda_826c27fce7726908515bbc79a5266961>@@$$QAV<lambda_4e64bbd54b50a7b070e3ea8d795375b6>@@@Z 0041df60 f   libucrt:output.obj
 0001:0001cfbb       ??$common_vsprintf@Vstandard_base@__crt_stdio_output@@D@@YAH_KQADIQBDAAV__crt_cached_ptd_host@@1@Z 0041dfbb f   libucrt:output.obj
 0001:0001dcb6       ??R<lambda_826c27fce7726908515bbc79a5266961>@@QBEHXZ 0041ecb6 f   libucrt:output.obj
 0001:0001e151       $LN121                     0041f151     libucrt:output.obj
 0001:0001e425       $LN130                     0041f425     libucrt:output.obj
 0001:0001edcc       $LN18                      0041fdcc     libucrt:output.obj
 0001:0001ede0       $LN17                      0041fde0     libucrt:output.obj
 0001:0001f5db       ??$common_strtime_s@D@@YAHQADI@Z 004205db f   libucrt:strtime.obj
 0001:0001f6d0       $$000000                   004206d0     libucrt:strncpy.obj
 0001:0001f800       $$000000                   00420800     libucrt:strncat.obj
 0001:0001f940       $$000000                   00420940     libucrt:strncmp.obj
 0001:00020474       ??$common_system@D@@YAHQBD@Z 00421474 f   libucrt:system.obj
 0001:0002059a       ?_fclose_internal@@YAHQAU_iobuf@@AAV__crt_cached_ptd_host@@@Z 0042159a f   libucrt:fclose.obj
 0001:00020631       ?_fclose_nolock_internal@@YAHQAU_iobuf@@AAV__crt_cached_ptd_host@@@Z 00421631 f   libucrt:fclose.obj
 0001:000206ef       ??$?RV<lambda_2866be3712abc81a800a822484c830d8>@@AAV<lambda_39ca0ed439415581b5b15c265174cece>@@V<lambda_2b24c74d71094a6cd0cb82e44167d71b>@@@?$__crt_seh_guarded_call@X@@QAEX$$QAV<lambda_2866be3712abc81a800a822484c830d8>@@AAV<lambda_39ca0ed439415581b5b15c265174cece>@@$$QAV<lambda_2b24c74d71094a6cd0cb82e44167d71b>@@@Z 004216ef f   libucrt:fflush.obj
 0001:0002077b       ??$?RV<lambda_2cc53f568c5a2bb6f192f930a45d44ea>@@AAV<lambda_ab61a845afdef5b7c387490eaf3616ee>@@V<lambda_c2ffc0b7726aa6be21d5f0026187e748>@@@?$__crt_seh_guarded_call@X@@QAEX$$QAV<lambda_2cc53f568c5a2bb6f192f930a45d44ea>@@AAV<lambda_ab61a845afdef5b7c387490eaf3616ee>@@$$QAV<lambda_c2ffc0b7726aa6be21d5f0026187e748>@@@Z 0042177b f   libucrt:fflush.obj
 0001:00020827       ??$?RV<lambda_6d20deecaf4856105ebacbad442d1079>@@AAV<lambda_9a32fed5bf61b6b509b2d3f6003082a1>@@V<lambda_63ea2239ed67c638ddbae41947fdf875>@@@?$__crt_seh_guarded_call@H@@QAEH$$QAV<lambda_6d20deecaf4856105ebacbad442d1079>@@AAV<lambda_9a32fed5bf61b6b509b2d3f6003082a1>@@$$QAV<lambda_63ea2239ed67c638ddbae41947fdf875>@@@Z 00421827 f   libucrt:fflush.obj
 0001:00020887       ?common_flush_all@@YAH_N@Z 00421887 f   libucrt:fflush.obj
 0001:000208d4       ?common_flush_all_should_try_to_flush_stream@@YA_NV__crt_stdio_stream@@QAH@Z 004218d4 f   libucrt:fflush.obj
 0001:00020905       ?is_stream_flushable_or_commitable@@YA_NJ@Z 00421905 f   libucrt:fflush.obj
 0001:00020c02       ?_fputc_internal@@YAHHQAU_iobuf@@AAV__crt_cached_ptd_host@@@Z 00421c02 f   libucrt:fputc.obj
 0001:0002102a       _memcpy_s                  0042202a f   libucrt:cfout.obj
 0001:0002102a       _memcpy_s                  0042202a f   libucrt:strtod.obj
 0001:0002102a       _memcpy_s                  0042202a f   libucrt:mbctype.obj
 0001:0002102a       _memcpy_s                  0042202a f   libucrt:fread.obj
 0001:00021160       ?common_fseek@@YAHV__crt_stdio_stream@@_JHAAV__crt_cached_ptd_host@@@Z 00422160 f   libucrt:fseek.obj
 0001:0002120a       ?common_fseek_binary_mode_read_only_fast_track_nolock@@YA_NV__crt_stdio_stream@@_JH@Z 0042220a f   libucrt:fseek.obj
 0001:000212e3       ?common_fseek_nolock@@YAHV__crt_stdio_stream@@_JHAAV__crt_cached_ptd_host@@@Z 004222e3 f   libucrt:fseek.obj
 0001:00021409       ??$?RV<lambda_76055cf4b68c1f980da8b7496a3ae623>@@AAV<lambda_26974eb511f701c600fccfa2a97a8e1b>@@V<lambda_0062726809bb3c529c0733aa37379daf>@@@?$__crt_seh_guarded_call@I@@QAEI$$QAV<lambda_76055cf4b68c1f980da8b7496a3ae623>@@AAV<lambda_26974eb511f701c600fccfa2a97a8e1b>@@$$QAV<lambda_0062726809bb3c529c0733aa37379daf>@@@Z 00422409 f   libucrt:fwrite.obj
 0001:00021464       ??R<lambda_26974eb511f701c600fccfa2a97a8e1b>@@QBEIXZ 00422464 f   libucrt:fwrite.obj
 0001:00021708       ??$?RV<lambda_c390c0748f48a7db46f6ce5cc3c796da>@@AAV<lambda_703a5c3f7c88128b7f5f7a8861b0a6e0>@@V<lambda_c16a91f8771b304e2b1164fb4c043437>@@@?$__crt_seh_guarded_call@H@@QAEH$$QAV<lambda_c390c0748f48a7db46f6ce5cc3c796da>@@AAV<lambda_703a5c3f7c88128b7f5f7a8861b0a6e0>@@$$QAV<lambda_c16a91f8771b304e2b1164fb4c043437>@@@Z 00422708 f   libucrt:setvbuf.obj
 0001:00021763       ??R<lambda_703a5c3f7c88128b7f5f7a8861b0a6e0>@@QBE@XZ 00422763 f   libucrt:setvbuf.obj
 0001:00021803       ?_setvbuf_internal@@YAHQAU_iobuf@@QADHIAAV__crt_cached_ptd_host@@@Z 00422803 f   libucrt:setvbuf.obj
 0001:00021899       ?set_buffer@@YAHV__crt_stdio_stream@@QADIH@Z 00422899 f   libucrt:setvbuf.obj
 0001:00021b2f       ??$?RV<lambda_f5952838e36297a1e2e9d6c748429792>@@AAV<lambda_2116bde18c9e5f34230805ea4a4660ed>@@V<lambda_3c7107de1cc98bf330a3031f42c322a3>@@@?$__crt_seh_guarded_call@PAD@@QAEPAD$$QAV<lambda_f5952838e36297a1e2e9d6c748429792>@@AAV<lambda_2116bde18c9e5f34230805ea4a4660ed>@@$$QAV<lambda_3c7107de1cc98bf330a3031f42c322a3>@@@Z 00422b2f f   libucrt:setlocale.obj
 0001:00021b8a       ??R<lambda_2116bde18c9e5f34230805ea4a4660ed>@@QBEPADXZ 00422b8a f   libucrt:setlocale.obj
 0001:00021ce9       _call_wsetlocale           00422ce9 f   libucrt:setlocale.obj
 0001:00022a30       $$000000                   00423a30     libucrt:strcspn.obj
 0001:000231bf       ??$?RV<lambda_03b1d95aef87969028cfba75ccab2455>@@AAV<lambda_6e4b09c48022b2350581041d5f6b0c4c>@@V<lambda_22bdf7517842c4b3e53723af5aa32b9e>@@@?$__crt_seh_guarded_call@X@@QAEX$$QAV<lambda_03b1d95aef87969028cfba75ccab2455>@@AAV<lambda_6e4b09c48022b2350581041d5f6b0c4c>@@$$QAV<lambda_22bdf7517842c4b3e53723af5aa32b9e>@@@Z 004241bf f   libucrt:exit.obj
 0001:0002322b       ??R<lambda_6e4b09c48022b2350581041d5f6b0c4c>@@QBE@XZ 0042422b f   libucrt:exit.obj
 0001:00023313       ?common_exit@@YAXHW4_crt_exit_cleanup_mode@@W4_crt_exit_return_mode@@@Z 00424313 f   libucrt:exit.obj
 0001:000233aa       ?exit_or_terminate_process@@YAXI@Z 004243aa f   libucrt:exit.obj
 0001:000233db       ?should_call_terminate_process@@YA_NXZ 004243db f   libucrt:exit.obj
 0001:000233f4       ?try_cor_exit_process@@YAXI@Z 004243f4 f   libucrt:exit.obj
 0001:000234f5       ??$common_configure_argv@D@@YAHW4_crt_argv_mode@@@Z 004244f5 f   libucrt:argv_parsing.obj
 0001:00023632       ??$parse_command_line@D@@YAXPADPAPAD0PAI2@Z 00424632 f   libucrt:argv_parsing.obj
 0001:00023800       ??$common_get_or_create_environment_nolock@D@@YAPAPADXZ 00424800 f   libucrt:environment_initialization.obj
 0001:0002382c       ??$common_initialize_environment_nolock@D@@YAHXZ 0042482c f   libucrt:environment_initialization.obj
 0001:00023886       ??$create_environment@D@@YAQAPADQAD@Z 00424886 f   libucrt:environment_initialization.obj
 0001:00023968       ??$free_environment@D@@YAXQAPAD@Z 00424968 f   libucrt:environment_initialization.obj
 0001:00023968       ??$free_environment@_W@@YAXQAPA_W@Z 00424968 f   libucrt:environment_initialization.obj
 0001:00023997       ??$initialize_environment_by_cloning_nolock@D@@YAHXZ 00424997 f   libucrt:environment_initialization.obj
 0001:00023a1a       ??$uninitialize_environment_internal@D@@YAXAAPAPAD@Z 00424a1a f   libucrt:environment_initialization.obj
 0001:00023a35       ??$uninitialize_environment_internal@_W@@YAXAAPAPA_W@Z 00424a35 f   libucrt:environment_initialization.obj
 0001:00023abf       ??$?RV<lambda_69a2805e680e0e292e8ba93315fe43a8>@@AAV<lambda_f03950bc5685219e0bcd2087efbe011e>@@V<lambda_03fcd07e894ec930e3f35da366ca99d6>@@@?$__crt_seh_guarded_call@H@@QAEH$$QAV<lambda_69a2805e680e0e292e8ba93315fe43a8>@@AAV<lambda_f03950bc5685219e0bcd2087efbe011e>@@$$QAV<lambda_03fcd07e894ec930e3f35da366ca99d6>@@@Z 00424abf f   libucrt:onexit.obj
 0001:00023b1a       ??$?RV<lambda_8e746cf0007f6ed984d6f78af1fec997>@@AAV<lambda_22ebabd17bc4fa466a2aca6d8deb888d>@@V<lambda_18ed0c0b38a6dc0daf1e7ac6d6adf05e>@@@?$__crt_seh_guarded_call@H@@QAEH$$QAV<lambda_8e746cf0007f6ed984d6f78af1fec997>@@AAV<lambda_22ebabd17bc4fa466a2aca6d8deb888d>@@$$QAV<lambda_18ed0c0b38a6dc0daf1e7ac6d6adf05e>@@@Z 00424b1a f   libucrt:onexit.obj
 0001:00023b75       ??R<lambda_22ebabd17bc4fa466a2aca6d8deb888d>@@QBE@XZ 00424b75 f   libucrt:onexit.obj
 0001:00023c77       ??R<lambda_f03950bc5685219e0bcd2087efbe011e>@@QBE@XZ 00424c77 f   libucrt:onexit.obj
 0001:00023e01       _initialize_global_variables 00424e01 f   libucrt:initialization.obj
 0001:00023e0e       _initialize_c              00424e0e f   libucrt:initialization.obj
 0001:00023e28       _uninitialize_environment  00424e28 f   libucrt:initialization.obj
 0001:00023e30       _initialize_pointers       00424e30 f   libucrt:initialization.obj
 0001:00023e5e       _uninitialize_vcruntime    00424e5e f   libucrt:initialization.obj
 0001:00023e67       _uninitialize_allocated_memory 00424e67 f   libucrt:initialization.obj
 0001:00023e7e       _uninitialize_allocated_io_buffers 00424e7e f   libucrt:initialization.obj
 0001:00023ece       ??R<lambda_af42a3ee9806e9a7305d451646e05244>@@QBE@AAPAU__crt_multibyte_data@@@Z 00424ece f   libucrt:initialization.obj
 0001:00024085       ??$?RV<lambda_4fdada1b837b2abbf20876fac97688ad>@@AAV<lambda_b57350f2640456a0859d250846f69caf>@@V<lambda_eed5e4f92b5b7d55fa22c48c484aaa54>@@@?$__crt_seh_guarded_call@X@@QAEX$$QAV<lambda_4fdada1b837b2abbf20876fac97688ad>@@AAV<lambda_b57350f2640456a0859d250846f69caf>@@$$QAV<lambda_eed5e4f92b5b7d55fa22c48c484aaa54>@@@Z 00425085 f   libucrt:wsetlocale.obj
 0001:000240d2       ??$?RV<lambda_ac03c5d59bd18b09cb88b28331f6bfed>@@AAV<lambda_2a444430fde8c29194d880d93eed5e8f>@@AAV<lambda_02db5278e8aef8b5e4976579d73f5304>@@@?$__crt_seh_guarded_call@X@@QAEX$$QAV<lambda_ac03c5d59bd18b09cb88b28331f6bfed>@@AAV<lambda_2a444430fde8c29194d880d93eed5e8f>@@AAV<lambda_02db5278e8aef8b5e4976579d73f5304>@@@Z 004250d2 f   libucrt:wsetlocale.obj
 0001:00024117       ??$?RV<lambda_e5124f882df8998aaf41531e079ba474>@@AAV<lambda_3e16ef9562a7dcce91392c22ab16ea36>@@V<lambda_e25ca0880e6ef98be67edffd8c599615>@@@?$__crt_seh_guarded_call@X@@QAEX$$QAV<lambda_e5124f882df8998aaf41531e079ba474>@@AAV<lambda_3e16ef9562a7dcce91392c22ab16ea36>@@$$QAV<lambda_e25ca0880e6ef98be67edffd8c599615>@@@Z 00425117 f   libucrt:wsetlocale.obj
 0001:000241ff       ??R<lambda_2a444430fde8c29194d880d93eed5e8f>@@QBE@XZ 004251ff f   libucrt:wsetlocale.obj
 0001:00024269       ??R<lambda_b57350f2640456a0859d250846f69caf>@@QBE@XZ 00425269 f   libucrt:wsetlocale.obj
 0001:00024681       __copytlocinfo_nolock      00425681 f   libucrt:wsetlocale.obj
 0001:000246b0       __expandlocale             004256b0 f   libucrt:wsetlocale.obj
 0001:00024b3a       __wsetlocale_get_all       00425b3a f   libucrt:wsetlocale.obj
 0001:00024cd5       __wsetlocale_nolock        00425cd5 f   libucrt:wsetlocale.obj
 0001:00024fc5       __wsetlocale_set_cat       00425fc5 f   libucrt:wsetlocale.obj
 0001:00025385       _get_default_code_page     00426385 f   libucrt:wsetlocale.obj
 0001:000253b4       _parse_bcp47               004263b4 f   libucrt:wsetlocale.obj
 0001:0002558e       _parse_bcp47_code_page     0042658e f   libucrt:wsetlocale.obj
 0001:000255cd       _parse_bcp47_language      004265cd f   libucrt:wsetlocale.obj
 0001:0002563f       _parse_bcp47_region        0042663f f   libucrt:wsetlocale.obj
 0001:000256fd       _parse_bcp47_script        004266fd f   libucrt:wsetlocale.obj
 0001:0002576d       _string_is_alpha           0042676d f   libucrt:wsetlocale.obj
 0001:00025917       ??$?RV<lambda_15ade71b0218206bbe3333a0c9b79046>@@AAV<lambda_da44e0f8b0f19ba52fefafb335991732>@@V<lambda_207f2d024fc103971653565357d6cd41>@@@?$__crt_seh_guarded_call@X@@QAEX$$QAV<lambda_15ade71b0218206bbe3333a0c9b79046>@@AAV<lambda_da44e0f8b0f19ba52fefafb335991732>@@$$QAV<lambda_207f2d024fc103971653565357d6cd41>@@@Z 00426917 f   libucrt:per_thread_data.obj
 0001:00025969       ??$?RV<lambda_38edbb1296d33220d7e4dd0ed76b244a>@@AAV<lambda_5ce1d447e08cb34b2473517608e21441>@@V<lambda_fb385d3da700c9147fc39e65dd577a8c>@@@?$__crt_seh_guarded_call@X@@QAEX$$QAV<lambda_38edbb1296d33220d7e4dd0ed76b244a>@@AAV<lambda_5ce1d447e08cb34b2473517608e21441>@@$$QAV<lambda_fb385d3da700c9147fc39e65dd577a8c>@@@Z 00426969 f   libucrt:per_thread_data.obj
 0001:000259d4       ??$?RV<lambda_6affb1475c98b40b75cdec977db92e3c>@@AAV<lambda_b8d4b9c228a6ecc3f80208dbb4b4a104>@@V<lambda_608742c3c92a14382c1684fc64f96c88>@@@?$__crt_seh_guarded_call@X@@QAEX$$QAV<lambda_6affb1475c98b40b75cdec977db92e3c>@@AAV<lambda_b8d4b9c228a6ecc3f80208dbb4b4a104>@@$$QAV<lambda_608742c3c92a14382c1684fc64f96c88>@@@Z 004269d4 f   libucrt:per_thread_data.obj
 0001:00025a29       ??$?RV<lambda_a7e850c220f1c8d1e6efeecdedd162c6>@@AAV<lambda_46720907175c18b6c9d2717bc0d2d362>@@V<lambda_9048902d66e8d99359bc9897bbb930a8>@@@?$__crt_seh_guarded_call@X@@QAEX$$QAV<lambda_a7e850c220f1c8d1e6efeecdedd162c6>@@AAV<lambda_46720907175c18b6c9d2717bc0d2d362>@@$$QAV<lambda_9048902d66e8d99359bc9897bbb930a8>@@@Z 00426a29 f   libucrt:per_thread_data.obj
 0001:00025a83       ?construct_ptd@@YAXQAU__acrt_ptd@@QAPAU__crt_locale_data@@@Z 00426a83 f   libucrt:per_thread_data.obj
 0001:00025b1c       ?destroy_fls@@YGXPAX@Z     00426b1c f   libucrt:per_thread_data.obj
 0001:00025b3d       ?destroy_ptd@@YAXQAU__acrt_ptd@@@Z 00426b3d f   libucrt:per_thread_data.obj
 0001:00025c0a       ?replace_current_thread_locale_nolock@@YAXQAU__acrt_ptd@@QAU__crt_locale_data@@@Z 00426c0a f   libucrt:per_thread_data.obj
 0001:000260e6       ?fe_to_nearest@@YA_NQBN_KF@Z 004270e6 f   libucrt:cvt.obj
 0001:00026189       ?fp_format_a@@YAHQBNPADIQADIH_NIW4__acrt_rounding_mode@@AAV__crt_cached_ptd_host@@@Z 00427189 f   libucrt:cvt.obj
 0001:000264b6       ?fp_format_e@@YAHQBNQADI1IH_NIW4__acrt_rounding_mode@@AAV__crt_cached_ptd_host@@@Z 004274b6 f   libucrt:cvt.obj
 0001:0002655a       ?fp_format_e_internal@@YAHQADIH_NIQAU_strflt@@1AAV__crt_cached_ptd_host@@@Z 0042755a f   libucrt:cvt.obj
 0001:000266ad       ?fp_format_f@@YAHQBNQADI1IHW4__acrt_rounding_mode@@AAV__crt_cached_ptd_host@@@Z 004276ad f   libucrt:cvt.obj
 0001:00026743       ?fp_format_f_internal@@YAHQADIHQAU_strflt@@_NAAV__crt_cached_ptd_host@@@Z 00427743 f   libucrt:cvt.obj
 0001:00026831       ?fp_format_g@@YAHQBNQADI1IH_NIW4__acrt_rounding_mode@@AAV__crt_cached_ptd_host@@@Z 00427831 f   libucrt:cvt.obj
 0001:00026900       ?fp_format_nan_or_infinity@@YAHW4__acrt_fp_class@@_NPADI1@Z 00427900 f   libucrt:cvt.obj
 0001:00026995       ?shift_bytes@@YAXQADI0H@Z  00427995 f   libucrt:cvt.obj
 0001:000269c9       ?should_round_up@@YA_NQBN_KFW4__acrt_rounding_mode@@@Z 004279c9 f   libucrt:cvt.obj
 0001:00026fdd       ?initialize_inherited_file_handles_nolock@@YAXXZ 00427fdd f   libucrt:ioinit.obj
 0001:00027093       ?initialize_stdio_handles_nolock@@YAXXZ 00428093 f   libucrt:ioinit.obj
 0001:00027243       ?<lambda_invoker_stdcall>@<lambda_29d3c280b90b41c2ae070ffca879996a>@@CG@PA_W@Z 00428243 f   libucrt:winapi_thunks.obj
 0001:00027250       ??$?RV<lambda_6b4b7855443974f2b4b77000ea21c99c>@@AAV<lambda_8f7d3b162ab39427f4fa9995c67a7986>@@V<lambda_cc9a5ba8a5d8428b9634eab82665e5dc>@@@?$__crt_seh_guarded_call@H@@QAEH$$QAV<lambda_6b4b7855443974f2b4b77000ea21c99c>@@AAV<lambda_8f7d3b162ab39427f4fa9995c67a7986>@@$$QAV<lambda_cc9a5ba8a5d8428b9634eab82665e5dc>@@@Z 00428250 f   libucrt:winapi_thunks.obj
 0001:000272cc       ??R<lambda_29d3c280b90b41c2ae070ffca879996a>@@QBE@PA_W@Z 004282cc f   libucrt:winapi_thunks.obj
 0001:000272ff       ?try_get_AreFileApisANSI@@YAP6GHXZXZ 004282ff f   libucrt:winapi_thunks.obj
 0001:00027319       ?try_get_CompareStringEx@@YAP6GHPB_WK0H0HPAU_nlsversioninfo@@PAXJ@ZXZ 00428319 f   libucrt:winapi_thunks.obj
 0001:00027333       ?try_get_EnumSystemLocalesEx@@YAP6GHP6GHPA_WKJ@ZKJPAX@ZXZ 00428333 f   libucrt:winapi_thunks.obj
 0001:0002734d       ?try_get_GetDateFormatEx@@YAP6GHPB_WKPBU_SYSTEMTIME@@0PA_WH0@ZXZ 0042834d f   libucrt:winapi_thunks.obj
 0001:00027367       ?try_get_GetLocaleInfoEx@@YAP6GHPB_WKPA_WH@ZXZ 00428367 f   libucrt:winapi_thunks.obj
 0001:00027381       ?try_get_GetTimeFormatEx@@YAP6GHPB_WKPBU_SYSTEMTIME@@0PA_WH@ZXZ 00428381 f   libucrt:winapi_thunks.obj
 0001:0002739b       ?try_get_GetUserDefaultLocaleName@@YAP6GHPA_WH@ZXZ 0042839b f   libucrt:winapi_thunks.obj
 0001:000273b5       ?try_get_IsValidLocaleName@@YAP6GHPB_W@ZXZ 004283b5 f   libucrt:winapi_thunks.obj
 0001:000273cf       ?try_get_LCIDToLocaleName@@YAP6GHKPA_WHK@ZXZ 004283cf f   libucrt:winapi_thunks.obj
 0001:000273e9       ?try_get_LCMapStringEx@@YAP6GHPB_WK0HPA_WHPAU_nlsversioninfo@@PAXJ@ZXZ 004283e9 f   libucrt:winapi_thunks.obj
 0001:00027403       ?try_get_LocaleNameToLCID@@YAP6GKPB_WK@ZXZ 00428403 f   libucrt:winapi_thunks.obj
 0001:0002741d       ?try_get_first_available_module@@YAPAUHINSTANCE__@@QBW4module_id@?A0x391cf84c@@0@Z 0042841d f   libucrt:winapi_thunks.obj
 0001:000274e8       ?try_get_function@@YAPAXW4function_id@?A0x391cf84c@@QBDQBW4module_id@2@2@Z 004284e8 f   libucrt:winapi_thunks.obj
 0001:00027c4f       ??$common_dupenv_s@D@@YAHQAPADQAIQBDH2H@Z 00428c4f f   libucrt:getenv.obj
 0001:00027cb4       ??$common_dupenv_s_nolock@D@@YAHQAPADQAIQBDH2H@Z 00428cb4 f   libucrt:getenv.obj
 0001:00027d57       ??$common_getenv_nolock@D@@YAPADQBD@Z 00428d57 f   libucrt:getenv.obj
 0001:00027de2       ??$?RV<lambda_1f7e3ac85ca3635646511ad93ac0febe>@@AAV<lambda_555255fdfb9471e5fa7bfca50021c162>@@V<lambda_24f51f8b0c33fe186c624e6675644b7a>@@@?$__crt_seh_guarded_call@_N@@QAE_N$$QAV<lambda_1f7e3ac85ca3635646511ad93ac0febe>@@AAV<lambda_555255fdfb9471e5fa7bfca50021c162>@@$$QAV<lambda_24f51f8b0c33fe186c624e6675644b7a>@@@Z 00428de2 f   libucrt:spawnv.obj
 0001:00027e3d       ??$common_spawnv@D@@YAHHQBDQBQBD1@Z 00428e3d f   libucrt:spawnv.obj
 0001:00028030       ??$execute_command@D@@YAHHQBDQBQBD1@Z 00429030 f   libucrt:spawnv.obj
 0001:0002823c       ??R<lambda_555255fdfb9471e5fa7bfca50021c162>@@QBE_NXZ 0042923c f   libucrt:spawnv.obj
 0001:00028372       ?accumulate_inheritable_handles@@YA_NQAPAEQAI_N@Z 00429372 f   libucrt:spawnv.obj
 0001:000283b6       ??$common_spawnvp@D@@YAHHQBDQBQBD1@Z 004293b6 f   libucrt:spawnvp.obj
 0001:000287e7       ??$?RV<lambda_d422a76eb4c3bf3ad751449ab71a6ea4>@@AAV<lambda_c9ba49e555ba839a7b07aa3fbecb7617>@@V<lambda_9476263c8ee91a25d21c55370bdb50de>@@@?$__crt_seh_guarded_call@H@@QAEH$$QAV<lambda_d422a76eb4c3bf3ad751449ab71a6ea4>@@AAV<lambda_c9ba49e555ba839a7b07aa3fbecb7617>@@$$QAV<lambda_9476263c8ee91a25d21c55370bdb50de>@@@Z 004297e7 f   libucrt:close.obj
 0001:000289f6       ??$?RV<lambda_9e9de3de5fa147e2223d7db92bc10aa6>@@AAV<lambda_38ce7e780aa69e748d6df282ebc68efe>@@V<lambda_8ca6da459f0f6780f1cff60fdc3d00e5>@@@?$__crt_seh_guarded_call@H@@QAEH$$QAV<lambda_9e9de3de5fa147e2223d7db92bc10aa6>@@AAV<lambda_38ce7e780aa69e748d6df282ebc68efe>@@$$QAV<lambda_8ca6da459f0f6780f1cff60fdc3d00e5>@@@Z 004299f6 f   libucrt:commit.obj
 0001:00028b15       ?write_double_translated_ansi_nolock@@YA?AUwrite_result@?A0x17268360@@HQBDIAAV__crt_cached_ptd_host@@@Z 00429b15 f   libucrt:write.obj
 0001:00028edc       ?write_double_translated_unicode_nolock@@YA?AUwrite_result@?A0x17268360@@QBDI@Z 00429edc f   libucrt:write.obj
 0001:00028f44       ?write_requires_double_translation_nolock@@YA_NHAAV__crt_cached_ptd_host@@@Z 00429f44 f   libucrt:write.obj
 0001:00028fc1       ?write_text_ansi_nolock@@YA?AUwrite_result@?A0x17268360@@HQBDI@Z 00429fc1 f   libucrt:write.obj
 0001:0002909c       ?write_text_utf16le_nolock@@YA?AUwrite_result@?A0x17268360@@HQBDI@Z 0042a09c f   libucrt:write.obj
 0001:00029185       ?write_text_utf8_nolock@@YA?AUwrite_result@?A0x17268360@@HQBDI@Z 0042a185 f   libucrt:write.obj
 0001:000295e4       ??$common_refill_and_read_nolock@D@@YAHV__crt_stdio_stream@@@Z 0042a5e4 f   libucrt:_filbuf.obj
 0001:0002977e       ??$common_ftell@_J@@YA_JV__crt_stdio_stream@@AAV__crt_cached_ptd_host@@@Z 0042a77e f   libucrt:ftell.obj
 0001:0002980d       ??$common_ftell_nolock@_J@@YA_JV__crt_stdio_stream@@AAV__crt_cached_ptd_host@@@Z 0042a80d f   libucrt:ftell.obj
 0001:000299ae       ?common_ftell_read_mode_nolock@@YA_JV__crt_stdio_stream@@_J1AAV__crt_cached_ptd_host@@@Z 0042a9ae f   libucrt:ftell.obj
 0001:00029b79       ?common_ftell_translated_utf8_nolock@@YA_JV__crt_stdio_stream@@_JAAV__crt_cached_ptd_host@@@Z 0042ab79 f   libucrt:ftell.obj
 0001:00029d24       ?count_newline_bytes@@YA_JQBD0W4__crt_lowio_text_mode@@@Z 0042ad24 f   libucrt:ftell.obj
 0001:00029db6       ??$common_flush_and_write_nolock@D@@YAHHV__crt_stdio_stream@@AAV__crt_cached_ptd_host@@@Z 0042adb6 f   libucrt:_flsbuf.obj
 0001:00029eac       ??$write_buffer_nolock@D@@YA_NDV__crt_stdio_stream@@AAV__crt_cached_ptd_host@@@Z 0042aeac f   libucrt:_flsbuf.obj
 0001:00029f7e       ?stream_is_at_end_of_file_nolock@@YA_NV__crt_stdio_stream@@@Z 0042af7e f   libucrt:_flsbuf.obj
 0001:0002a00e       ??$translate_text_mode_nolock@D@@YAHHQADI@Z 0042b00e f   libucrt:read.obj
 0001:0002a15b       ??$translate_text_mode_nolock@_W@@YAHHQA_WI@Z 0042b15b f   libucrt:read.obj
 0001:0002a315       ?translate_ansi_or_utf8_nolock@@YAHHQADIQA_WI@Z 0042b315 f   libucrt:read.obj
 0001:0002a46c       ?translate_utf16_from_console_nolock@@YAHHQA_WI@Z 0042b46c f   libucrt:read.obj
 0001:0002a98e       ??$common_lseek@_J@@YA_JH_JHAAV__crt_cached_ptd_host@@@Z 0042b98e f   libucrt:lseek.obj
 0001:0002aab3       ??$common_lseek_nolock@_J@@YA_JH_JHAAV__crt_cached_ptd_host@@@Z 0042bab3 f   libucrt:lseek.obj
 0001:0002ac4e       ?_mbstowcs_internal@@YAHPAIPA_WIPBDIAAV__crt_cached_ptd_host@@@Z 0042bc4e f   libucrt:mbstowcs.obj
 0001:0002ad2a       ?_mbstowcs_l_helper@@YAIPA_WPBDIAAV__crt_cached_ptd_host@@@Z 0042bd2a f   libucrt:mbstowcs.obj
 0001:0002af2e       ?_wcstombs_internal@@YAHPAIPADIPB_WIAAV__crt_cached_ptd_host@@@Z 0042bf2e f   libucrt:wcstombs.obj
 0001:0002b003       ?_wcstombs_l_helper@@YAIPADPB_WIAAV__crt_cached_ptd_host@@@Z 0042c003 f   libucrt:wcstombs.obj
 0001:0002b2e8       ?InternalGetLocaleInfoA@@YAHQAU__crt_locale_pointers@@QB_WKQADH@Z 0042c2e8 f   libucrt:getlocaleinfoa.obj
 0001:0002b678       ?__acrt_LCMapStringA_stat@@YAHPAU__crt_locale_pointers@@PB_WKPBDHPADHHH@Z 0042c678 f   libucrt:lcmapstringa.obj
 0001:0002b914       ??$?RV<lambda_cbab9ec6f41b0180b23cc171c22676b0>@@AAV<lambda_44731a7d0e6d81c3e6aa82d741081786>@@V<lambda_4b292cb8dd18144e164572427af410ab>@@@?$__crt_seh_guarded_call@P6AXH@Z@@QAEP6AXH@Z$$QAV<lambda_cbab9ec6f41b0180b23cc171c22676b0>@@AAV<lambda_44731a7d0e6d81c3e6aa82d741081786>@@$$QAV<lambda_4b292cb8dd18144e164572427af410ab>@@@Z 0042c914 f   libucrt:signal.obj
 0001:0002b97c       ?get_global_action_nolock@@YAPAP6AXH@ZH@Z 0042c97c f   libucrt:signal.obj
 0001:0002b9be       ?siglookup@@YAPAU__crt_signal_action_t@@HQAU1@@Z 0042c9be f   libucrt:signal.obj
 0001:0002c680       ?filter_mbtowcs_flags@@YAKIK@Z 0042d680 f   libucrt:multibytetowidechar.obj
 0001:0002c742       ?filter_wcstomb_flags@@YAKIK@Z 0042d742 f   libucrt:widechartomultibyte.obj
 0001:0002ca07       ?<lambda_invoker_cdecl>@<lambda_838c7f62c73c983481e27c09e84b0b5d>@@CAHPBX0@Z 0042da07 f   libucrt:argv_wildcards.obj
 0001:0002cae5       ??$common_expand_argv_wildcards@D@@YAHQAPADQAPAPAD@Z 0042dae5 f   libucrt:argv_wildcards.obj
 0001:0002cc62       ??$copy_and_add_argument_to_buffer@D@@YAHQBD0IAAV?$argument_list@D@?A0x5f5c8891@@@Z 0042dc62 f   libucrt:argv_wildcards.obj
 0001:0002cd13       ??$expand_argument_wildcards@D@@YAHQAD0AAV?$argument_list@D@?A0x5f5c8891@@@Z 0042dd13 f   libucrt:argv_wildcards.obj
 0001:0002cf98       ??1?$argument_list@D@?A0x5f5c8891@@QAE@XZ 0042df98 f   libucrt:argv_wildcards.obj
 0001:0002cff9       ?expand_if_necessary@?$argument_list@D@?A0x5f5c8891@@AAEHXZ 0042dff9 f   libucrt:argv_wildcards.obj
 0001:0002d12c       ??$?RV<lambda_ceb1ee4838e85a9d631eb091e2fbe199>@@AAV<lambda_ae742caa10f662c28703da3d2ea5e57e>@@V<lambda_cd08b5d6af4937fe54fc07d0c9bf6b37>@@@?$__crt_seh_guarded_call@X@@QAEX$$QAV<lambda_ceb1ee4838e85a9d631eb091e2fbe199>@@AAV<lambda_ae742caa10f662c28703da3d2ea5e57e>@@$$QAV<lambda_cd08b5d6af4937fe54fc07d0c9bf6b37>@@@Z 0042e12c f   libucrt:mbctype.obj
 0001:0002d179       ??R<lambda_ae742caa10f662c28703da3d2ea5e57e>@@QBE@XZ 0042e179 f   libucrt:mbctype.obj
 0001:0002d1fc       ?CPtoLocaleName@@YAPB_WH@Z 0042e1fc f   libucrt:mbctype.obj
 0001:0002d23a       ?getSystemCP@@YAHH@Z       0042e23a f   libucrt:mbctype.obj
 0001:0002d2ab       ?setSBCS@@YAXPAU__crt_multibyte_data@@@Z 0042e2ab f   libucrt:mbctype.obj
 0001:0002d30e       ?setSBUpLow@@YAXPAU__crt_multibyte_data@@@Z 0042e30e f   libucrt:mbctype.obj
 0001:0002d4b3       ?setmbcp_internal@@YAHH_NQAU__acrt_ptd@@QAPAU__crt_multibyte_data@@@Z 0042e4b3 f   libucrt:mbctype.obj
 0001:0002d608       ?update_thread_multibyte_data_internal@@YAPAU__crt_multibyte_data@@QAU__acrt_ptd@@QAPAU1@@Z 0042e608 f   libucrt:mbctype.obj
 0001:0002d908       ?x_ismbbtype_l@@YAHPAU__crt_locale_pointers@@IHH@Z 0042e908 f   libucrt:ismbbyte.obj
 0001:0002d970       ?find_end_of_double_null_terminated_sequence@@YAPB_WQB_W@Z 0042e970 f   libucrt:get_environment_from_os.obj
 0001:0002da47       ??$common_set_variable_in_environment_nolock@D@@YAHQADH@Z 0042ea47 f   libucrt:setenv.obj
 0001:0002dca7       ??$copy_environment@D@@YAPAPADQAPAD@Z 0042eca7 f   libucrt:setenv.obj
 0001:0002dd57       ??$ensure_current_environment_is_not_initial_environment_nolock@D@@YAXXZ 0042ed57 f   libucrt:setenv.obj
 0001:0002dd71       ??$find_in_environment_nolock@D@@YAHQBDI@Z 0042ed71 f   libucrt:setenv.obj
 0001:0002df61       ??$common_tcsncpy_s@_W@@YAHQA_WIQB_WI@Z 0042ef61 f   libucrt:wcsncpy_s.obj
 0001:0002e9c4       ?free_crt_array_internal@@YAXQAPBXI@Z 0042f9c4 f   libucrt:inittime.obj
 0001:0002e9e9       ?initialize_lc_time@@YA_NQAU__crt_lc_time_data@@QAU__crt_locale_data@@@Z 0042f9e9 f   libucrt:inittime.obj
 0001:0002edc4       ??$common_tcsncat_s@_W@@YAHQA_WIQB_WI@Z 0042fdc4 f   libucrt:wcsncat_s.obj
 0001:0002f2f8       _GetLocaleNameFromDefault  004302f8 f   libucrt:get_qualified_locale.obj
 0001:0002f37f       _GetLocaleNameFromLangCountry 0043037f f   libucrt:get_qualified_locale.obj
 0001:0002f418       _GetLocaleNameFromLanguage 00430418 f   libucrt:get_qualified_locale.obj
 0001:0002f471       _GetPrimaryLen             00430471 f   libucrt:get_qualified_locale.obj
 0001:0002f4a5       _LangCountryEnumProcEx@12  004304a5 f   libucrt:get_qualified_locale.obj
 0001:0002f786       _LanguageEnumProcEx@12     00430786 f   libucrt:get_qualified_locale.obj
 0001:0002f845       _ProcessCodePage           00430845 f   libucrt:get_qualified_locale.obj
 0001:0002f935       _TestDefaultCountry        00430935 f   libucrt:get_qualified_locale.obj
 0001:0002f982       _TranslateName             00430982 f   libucrt:get_qualified_locale.obj
 0001:0002fbf4       _CountryEnumProc@4         00430bf4 f   libucrt:getqloc_downlevel.obj
 0001:0002fc9b       _GetLcidFromCountry        00430c9b f   libucrt:getqloc_downlevel.obj
 0001:0002fce6       _GetLcidFromLangCountry    00430ce6 f   libucrt:getqloc_downlevel.obj
 0001:0002fd81       _GetLcidFromLanguage       00430d81 f   libucrt:getqloc_downlevel.obj
 0001:0002fde0       _GetPrimaryLen             00430de0 f   libucrt:getqloc_downlevel.obj
 0001:0002fe0c       _LangCountryEnumProc@4     00430e0c f   libucrt:getqloc_downlevel.obj
 0001:0003005f       _LanguageEnumProc@4        0043105f f   libucrt:getqloc_downlevel.obj
 0001:00030134       _LcidFromHexString         00431134 f   libucrt:getqloc_downlevel.obj
 0001:00030188       _ProcessCodePage           00431188 f   libucrt:getqloc_downlevel.obj
 0001:00030269       _TestDefaultCountry        00431269 f   libucrt:getqloc_downlevel.obj
 0001:0003028e       _TestDefaultLanguage       0043128e f   libucrt:getqloc_downlevel.obj
 0001:00030303       _TranslateName             00431303 f   libucrt:getqloc_downlevel.obj
 0001:00030554       ___hw_cw_sse2              00431554 f   libucrt:ieee87.obj
 0001:000309da       __hw_cw                    004319da f   libucrt:ieee87.obj
 0001:00030a78       ?check_trailing@@YA_NPBDW4__acrt_has_trailing_digits@@@Z 00431a78 f   libucrt:_fptostr.obj
 0001:00030a9b       ?should_round_up@@YA_NQBD0HW4__acrt_has_trailing_digits@@W4__acrt_rounding_mode@@@Z 00431a9b f   libucrt:_fptostr.obj
 0001:000322bb       ??R<lambda_e96123212306c92459f955e8e4eac55d>@@QBEIPBD@Z 004332bb f   libucrt:mbrtowc.obj
 0001:00032488       ?GetTableIndexFromLocaleName@@YAHPB_W@Z 00433488 f   libucrt:lcidtoname_downlevel.obj
 0001:00032714       ??$common_pack_argv_and_envp@D@@YAHQBQBD0QAPAD1@Z 00433714 f   libucrt:cenvarg.obj
 0001:0003278d       ??$construct_command_line@D@@YAHQBQBDQAPAD@Z 0043378d f   libucrt:cenvarg.obj
 0001:00032867       ??$construct_environment_block@D@@YAHQBQBDQAPAD@Z 00433867 f   libucrt:cenvarg.obj
 0001:00032c27       ??$common_getpath@D@@YAPADQBDQADI@Z 00433c27 f   libucrt:getpath.obj
 0001:00032e1b       ??$common_tcsncpy_s@D@@YAHQADIQBDI@Z 00433e1b f   libucrt:strncpy_s.obj
 0001:00032edd       ?to_abstract_control@@YA?AW4__acrt_fenv_abstract_control@@W4__acrt_fenv_machine_sse_control@@@Z 00433edd f   libucrt:_fenvutils.obj
 0001:00032f8d       ?to_abstract_control@@YA?AW4__acrt_fenv_abstract_control@@W4__acrt_fenv_machine_x87_control@@@Z 00433f8d f   libucrt:_fenvutils.obj
 0001:0003303a       ?to_machine_sse_control@@YA?AW4__acrt_fenv_machine_sse_control@@W4__acrt_fenv_abstract_control@@@Z 0043403a f   libucrt:_fenvutils.obj
 0001:000330f0       ?to_machine_x87_control@@YA?AW4__acrt_fenv_machine_x87_control@@W4__acrt_fenv_abstract_control@@@Z 004340f0 f   libucrt:_fenvutils.obj
 0001:00033a30       $$000000                   00434a30     libucrt:strpbrk.obj
 0001:00033b14       ?initialize_multibyte@@YAHXZ 00434b14 f   libucrt:multibyte_initializer.obj
 0001:00033e10       $$000000                   00434e10     libucrt:log10_impl.obj
 0001:00033f20       $$000000                   00434f20     libucrt:ceil_pentium4.obj
 0001:0003435c       ?InternalCompareStringA@@YAHPAU__crt_locale_pointers@@PB_WKPBDH2HH@Z 0043535c f   libucrt:comparestringa.obj
 0001:00034641       ?__dcrt_lowio_initialize_console_output@@YAXXZ 00435641 f   libucrt:initcon.obj
 0001:000347f0       $$000000                   004357f0     libucrt:log10_pentium4.obj
 0001:00034a80       $$000000                   00435a80     libucrt:87tran.obj
 0001:00034c90       $$000000                   00435c90     libucrt:87disp.obj
 0001:00034ef0       $$000000                   00435ef0     libucrt:common.obj
 0001:00035080       $$000000                   00436080     libucrt:genexcep.obj
 0001:00035390       $$000000                   00436390     libucrt:_strnicm.obj
 0001:000358b0       $$000000                   004368b0     LIBCMT:ullrem.obj
 0001:000358d1       L1                         004368d1     LIBCMT:ullrem.obj
 0001:000358df       L3                         004368df     LIBCMT:ullrem.obj
 0001:0003590a       L4                         0043690a     LIBCMT:ullrem.obj
 0001:00035912       L5                         00436912     LIBCMT:ullrem.obj
 0001:00035921       L2                         00436921     LIBCMT:ullrem.obj
 0001:00035930       $$000000                   00436930     LIBCMT:lldiv.obj
 0001:00035951       L1                         00436951     LIBCMT:lldiv.obj
 0001:0003596d       L2                         0043696d     LIBCMT:lldiv.obj
 0001:00035989       L3                         00436989     LIBCMT:lldiv.obj
 0001:00035997       L5                         00436997     LIBCMT:lldiv.obj
 0001:000359c5       L6                         004369c5     LIBCMT:lldiv.obj
 0001:000359c6       L7                         004369c6     LIBCMT:lldiv.obj
 0001:000359ca       L4                         004369ca     LIBCMT:lldiv.obj
 0001:000359d4       L8                         004369d4     LIBCMT:lldiv.obj
 0001:000359e0       $$000000                   004369e0     LIBCMT:llrem.obj
 0001:00035a00       L1                         00436a00     LIBCMT:llrem.obj
 0001:00035a1b       L2                         00436a1b     LIBCMT:llrem.obj
 0001:00035a3a       L3                         00436a3a     LIBCMT:llrem.obj
 0001:00035a48       L5                         00436a48     LIBCMT:llrem.obj
 0001:00035a73       L6                         00436a73     LIBCMT:llrem.obj
 0001:00035a7b       L7                         00436a7b     LIBCMT:llrem.obj
 0001:00035a86       L4                         00436a86     LIBCMT:llrem.obj
 0001:00035a8d       L8                         00436a8d     LIBCMT:llrem.obj
 0001:00035aa0       $$000000                   00436aa0     LIBCMT:llshl.obj
 0001:00035ab0       MORE32                     00436ab0     LIBCMT:llshl.obj
 0001:00035aba       RETZERO                    00436aba     LIBCMT:llshl.obj
 0001:00035ac0       $$000000                   00436ac0     LIBCMT:ullshr.obj
 0001:00035ad0       MORE32                     00436ad0     LIBCMT:ullshr.obj
 0001:00035ada       RETZERO                    00436ada     LIBCMT:ullshr.obj
 0001:00035ae0       $$000000                   00436ae0     LIBCMT:ftol2.obj
 0001:00035af0       $$000000                   00436af0     LIBCMT:ftol2.obj
 0001:00035b01       L3B                        00436b01     LIBCMT:ftol2.obj
 0001:00035b44       L3F                        00436b44     LIBCMT:ftol2.obj
 0001:00035b4c       L40                        00436b4c     LIBCMT:ftol2.obj
 0001:00035b5f       L41                        00436b5f     LIBCMT:ftol2.obj
 0001:00035b70       $$000000                   00436b70     libvcruntime:strrchr.obj
 0001:00035bad       strrchr_sse_loop           00436bad     libvcruntime:strrchr.obj
 0001:00035bdd       strrchr_sse_break          00436bdd     libvcruntime:strrchr.obj
 0001:00035bfd       strrchr_sttni              00436bfd     libvcruntime:strrchr.obj
 0001:00035c0f       strrchr_sttni_chars        00436c0f     libvcruntime:strrchr.obj
 0001:00035c24       strrchr_sttni_aligned      00436c24     libvcruntime:strrchr.obj
 0001:00035c28       strrchr_sttni_xmm          00436c28     libvcruntime:strrchr.obj
 0001:00035c3b       exit                       00436c3b     libvcruntime:strrchr.obj
 0001:00035c3e       strrchr_zero               00436c3e     libvcruntime:strrchr.obj
 0001:00035c63       strchr_zero_loop           00436c63     libvcruntime:strrchr.obj
 0001:00035c77       strchr_zero_result         00436c77     libvcruntime:strrchr.obj
 0001:00035c7e       strrchr_no_sse             00436c7e     libvcruntime:strrchr.obj
 0001:00035ca1       returndi                   00436ca1     libvcruntime:strrchr.obj
 0001:00035ca3       toend                      00436ca3     libvcruntime:strrchr.obj
 0001:00035cb0       $$000000                   00436cb0     libvcruntime:strchr.obj
 0001:00035ce3       strchr_sse_loop            00436ce3     libvcruntime:strchr.obj
 0001:00035d07       strchr_sse_break           00436d07     libvcruntime:strchr.obj
 0001:00035d18       strchr_no_sse2             00436d18     libvcruntime:strchr.obj
 0001:00035d30       str_misaligned             00436d30     libvcruntime:strchr.obj
 0001:00035d45       main_loop_start            00436d45     libvcruntime:strchr.obj
 0001:00035d50       main_loop                  00436d50     libvcruntime:strchr.obj
 0001:00035d8c       retnull                    00436d8c     libvcruntime:strchr.obj
 0001:00035d8e       retnull_bx                 00436d8e     libvcruntime:strchr.obj
 0001:00035d92       found_bx                   00436d92     libvcruntime:strchr.obj
 0001:00035d97       chr_is_found               00436d97     libvcruntime:strchr.obj
 0001:00035dbf       byte_3                     00436dbf     libvcruntime:strchr.obj
 0001:00035dc6       byte_2                     00436dc6     libvcruntime:strchr.obj
 0001:00035dcd       byte_1                     00436dcd     libvcruntime:strchr.obj
 0001:00035dd4       byte_0                     00436dd4     libvcruntime:strchr.obj
 0001:00035f10       __unwindfunclet$??$?6U?$char_traits@D@std@@@std@@YAAAV?$basic_ostream@DU?$char_traits@D@std@@@0@AAV10@PBD@Z$2 00436f10 f   TimeLog.obj
 0001:00035f1d       __ehhandler$??$?6U?$char_traits@D@std@@@std@@YAAAV?$basic_ostream@DU?$char_traits@D@std@@@0@AAV10@PBD@Z 00436f1d f   TimeLog.obj
 0001:00035f40       __unwindfunclet$??0_System_error@std@@IAE@Verror_code@1@ABV?$basic_string@DU?$char_traits@D@std@@V?$allocator@D@2@@1@@Z$5 00436f40 f   TimeLog.obj
 0001:00035f48       __unwindfunclet$??0_System_error@std@@IAE@Verror_code@1@ABV?$basic_string@DU?$char_traits@D@std@@V?$allocator@D@2@@1@@Z$6 00436f48 f   TimeLog.obj
 0001:00035f55       __ehhandler$??0_System_error@std@@IAE@Verror_code@1@ABV?$basic_string@DU?$char_traits@D@std@@V?$allocator@D@2@@1@@Z 00436f55 f   TimeLog.obj
 0001:00035f80       __unwindfunclet$??0failure@ios_base@std@@QAE@PBDABVerror_code@2@@Z$1 00436f80 f   TimeLog.obj
 0001:00035f8d       __ehhandler$??0failure@ios_base@std@@QAE@PBDABVerror_code@2@@Z 00436f8d f   TimeLog.obj
 0001:00035fc0       __unwindfunclet$??0sentry@?$basic_ostream@DU?$char_traits@D@std@@@std@@QAE@AAV12@@Z$0 00436fc0 f   TimeLog.obj
 0001:00035fcd       __ehhandler$??0sentry@?$basic_ostream@DU?$char_traits@D@std@@@std@@QAE@AAV12@@Z 00436fcd f   TimeLog.obj
 0001:00035ff0       __ehhandler$??1_Sentry_base@?$basic_ostream@DU?$char_traits@D@std@@@std@@QAE@XZ 00436ff0 f   TimeLog.obj
 0001:00036010       __ehhandler$??1sentry@?$basic_ostream@DU?$char_traits@D@std@@@std@@QAE@XZ 00437010 f   TimeLog.obj
 0001:00036010       __ehhandler$??_G?$basic_ios@DU?$char_traits@D@std@@@std@@UAEPAXI@Z 00437010 f   libcpmt:cout.obj
 0001:00036010       __ehhandler$??_Gios_base@std@@UAEPAXI@Z 00437010 f   libcpmt:cout.obj
 0001:00036030       __ehhandler$?_Osfx@?$basic_ostream@DU?$char_traits@D@std@@@std@@QAEXXZ 00437030 f   TimeLog.obj
 0001:00036050       __unwindfunclet$?flush@?$basic_ostream@DU?$char_traits@D@std@@@std@@QAEAAV12@XZ$2 00437050 f   TimeLog.obj
 0001:0003605d       __ehhandler$?flush@?$basic_ostream@DU?$char_traits@D@std@@@std@@QAEAAV12@XZ 0043705d f   TimeLog.obj
 0001:00036080       __unwindfunclet$?ReturnPresentUserNum@MyGame@@QAEXPAD@Z$0 00437080 f   S07_MyGame01.obj
 0001:00036088       __unwindfunclet$?ReturnPresentUserNum@MyGame@@QAEXPAD@Z$5 00437088 f   S07_MyGame01.obj
 0001:00036095       __ehhandler$?ReturnPresentUserNum@MyGame@@QAEXPAD@Z 00437095 f   S07_MyGame01.obj
 0001:000360c0       __unwindfunclet$??__EmDB@@YAXXZ$0 004370c0 f   S08_MyDB.obj
 0001:000360ca       __unwindfunclet$??__EmDB@@YAXXZ$1 004370ca f   S08_MyDB.obj
 0001:000360d4       __unwindfunclet$??__EmDB@@YAXXZ$2 004370d4 f   S08_MyDB.obj
 0001:000360e3       __ehhandler$??__EmDB@@YAXXZ 004370e3 f   S08_MyDB.obj
 0001:00036100       __unwindfunclet$??$use_facet@V?$codecvt@DDU_Mbstatet@@@std@@@std@@YAABV?$codecvt@DDU_Mbstatet@@@0@ABVlocale@0@@Z$0 00437100 f   libcpmt:cout.obj
 0001:00036100       __unwindfunclet$??$use_facet@V?$ctype@D@std@@@std@@YAABV?$ctype@D@0@ABVlocale@0@@Z$0 00437100 f   libcpmt:cout.obj
 0001:00036108       __unwindfunclet$??$use_facet@V?$codecvt@DDU_Mbstatet@@@std@@@std@@YAABV?$codecvt@DDU_Mbstatet@@@0@ABVlocale@0@@Z$1 00437108 f   libcpmt:cout.obj
 0001:00036108       __unwindfunclet$??$use_facet@V?$ctype@D@std@@@std@@YAABV?$ctype@D@0@ABVlocale@0@@Z$1 00437108 f   libcpmt:cout.obj
 0001:00036115       __ehhandler$??$use_facet@V?$codecvt@DDU_Mbstatet@@@std@@@std@@YAABV?$codecvt@DDU_Mbstatet@@@0@ABVlocale@0@@Z 00437115 f   libcpmt:cout.obj
 0001:00036115       __ehhandler$??$use_facet@V?$ctype@D@std@@@std@@YAABV?$ctype@D@0@ABVlocale@0@@Z 00437115 f   libcpmt:cout.obj
 0001:00036132       __unwindfunclet$??0?$basic_ostream@DU?$char_traits@D@std@@@std@@QAE@PAV?$basic_streambuf@DU?$char_traits@D@std@@@1@_N@Z$0 00437132 f   libcpmt:cout.obj
 0001:00036153       __ehhandler$??0?$basic_ostream@DU?$char_traits@D@std@@@std@@QAE@PAV?$basic_streambuf@DU?$char_traits@D@std@@@1@_N@Z 00437153 f   libcpmt:cout.obj
 0001:00036170       __ehhandler$??0?$basic_streambuf@DU?$char_traits@D@std@@@std@@IAE@XZ 00437170 f   libcpmt:cout.obj
 0001:00036170       __ehhandler$?_Init@ios_base@std@@IAEXXZ 00437170 f   libcpmt:cout.obj
 0001:0003618d       __unwindfunclet$??0_Locinfo@std@@QAE@PBD@Z$0 0043718d f   libcpmt:cout.obj
 0001:00036195       __unwindfunclet$??0_Locinfo@std@@QAE@PBD@Z$1 00437195 f   libcpmt:cout.obj
 0001:000361a0       __unwindfunclet$??0_Locinfo@std@@QAE@PBD@Z$2 004371a0 f   libcpmt:cout.obj
 0001:000361ab       __unwindfunclet$??0_Locinfo@std@@QAE@PBD@Z$3 004371ab f   libcpmt:cout.obj
 0001:000361b6       __unwindfunclet$??0_Locinfo@std@@QAE@PBD@Z$4 004371b6 f   libcpmt:cout.obj
 0001:000361c1       __unwindfunclet$??0_Locinfo@std@@QAE@PBD@Z$5 004371c1 f   libcpmt:cout.obj
 0001:000361cc       __unwindfunclet$??0_Locinfo@std@@QAE@PBD@Z$6 004371cc f   libcpmt:cout.obj
 0001:000361dc       __ehhandler$??0_Locinfo@std@@QAE@PBD@Z 004371dc f   libcpmt:cout.obj
 0001:000361f9       __ehhandler$??1?$basic_filebuf@DU?$char_traits@D@std@@@std@@UAE@XZ 004371f9 f   libcpmt:cout.obj
 0001:000361f9       __ehhandler$??1_Init_atexit@@QAE@XZ 004371f9 f   libcpmt:iosptrs.obj
 0001:00036216       __ehhandler$??1?$basic_ios@DU?$char_traits@D@std@@@std@@UAE@XZ 00437216 f   libcpmt:cout.obj
 0001:00036216       __ehhandler$??_D?$basic_ostream@DU?$char_traits@D@std@@@std@@QAEXXZ 00437216 f   libcpmt:cout.obj
 0001:00036233       __ehhandler$?try_cor_exit_process@@YAXI@Z 00437233 f   libucrt:exit.obj
 0001:00036233       __ehhandler$??1_Locinfo@std@@QAE@XZ 00437233 f   libcpmt:cout.obj
 0001:00036233       __ehhandler$?_Tidy@ios_base@std@@AAEXXZ 00437233 f   libcpmt:ios.obj
 0001:00036250       __unwindfunclet$?_Getcat@?$codecvt@DDU_Mbstatet@@@std@@SAIPAPBVfacet@locale@2@PBV42@@Z$0 00437250 f   libcpmt:cout.obj
 0001:00036262       __ehhandler$?_Getcat@?$codecvt@DDU_Mbstatet@@@std@@SAIPAPBVfacet@locale@2@PBV42@@Z 00437262 f   libcpmt:cout.obj
 0001:0003627f       __unwindfunclet$?_Getcat@?$ctype@D@std@@SAIPAPBVfacet@locale@2@PBV42@@Z$0 0043727f f   libcpmt:cout.obj
 0001:00036291       __ehhandler$?_Getcat@?$ctype@D@std@@SAIPAPBVfacet@locale@2@PBV42@@Z 00437291 f   libcpmt:cout.obj
 0001:000362ae       __unwindfunclet$?uflow@?$basic_filebuf@DU?$char_traits@D@std@@@std@@MAEHXZ$0 004372ae f   libcpmt:cout.obj
 0001:000362bb       __ehhandler$?uflow@?$basic_filebuf@DU?$char_traits@D@std@@@std@@MAEHXZ 004372bb f   libcpmt:cout.obj
 0001:000362e2       __unwindfunclet$?widen@?$basic_ios@DU?$char_traits@D@std@@@std@@QBEDD@Z$0 004372e2 f   libcpmt:cout.obj
 0001:000362ef       __ehhandler$?widen@?$basic_ios@DU?$char_traits@D@std@@@std@@QBEDD@Z 004372ef f   libcpmt:cout.obj
 0001:0003630c       __unwindfunclet$?_Init@locale@std@@CAPAV_Locimp@12@_N@Z$0 0043730c f   libcpmt:locale0.obj
 0001:00036319       __ehhandler$?_Init@locale@std@@CAPAV_Locimp@12@_N@Z 00437319 f   libcpmt:locale0.obj
 0001:00036336       __ehhandler$?CallUnexpected@@YAXPBU_s_ESTypeList@@@Z 00437336 f   libvcruntime:frame.obj
 0001:00036353       __ehhandler$?common_exit@@YAXHW4_crt_exit_cleanup_mode@@W4_crt_exit_return_mode@@@Z 00437353 f   libucrt:exit.obj
 0001:00036370       __ehhandler$___dcrt_uninitialize_environments_nolock 00437370 f   libucrt:environment_initialization.obj
 0001:0003638d       __ehhandler$__execute_onexit_table 0043738d f   libucrt:onexit.obj
 0001:000363aa       __ehhandler$?write_double_translated_ansi_nolock@@YA?AUwrite_result@?A0x17268360@@HQBDIAAV__crt_cached_ptd_host@@@Z 004373aa f   libucrt:write.obj
 0001:000363d4       __ehhandler$?_mbstowcs_l_helper@@YAIPA_WPBDIAAV__crt_cached_ptd_host@@@Z 004373d4 f   libucrt:mbstowcs.obj
 0001:00036400       ??__Fs_kProgramLog@?1??__LogMgr@@YAPAVR_ProLog@@XZ@YAXXZ 00437400 f   TimeLog.obj
 0001:00036410       ??__FmDB@@YAXXZ            00437410 f   S08_MyDB.obj
 0001:00036438       ??__Fcout@std@@YAXXZ       00437438 f   libcpmt:cout.obj
 0001:00036442       ??__Ffout@std@@YAXXZ       00437442 f   libcpmt:cout.obj
 0001:0003644c       ??__Finitlocks@@YAXXZ      0043744c f   libcpmt:cout.obj
 0001:00036456       ??__Finitlocks@std@@YAXXZ  00437456 f   libcpmt:xlock.obj
 0001:00036460       ??__F_Fac_tidy_reg@std@@YAXXZ 00437460 f   libcpmt:locale0.obj
 0001:0003646a       ??__Fclassic_locale@std@@YAXXZ 0043746a f   libcpmt:locale0.obj
 0001:00036474       ??__Finit_atexit@@YAXXZ    00437474 f   libcpmt:iosptrs.obj
 0001:0003647e       ??__Finitlocks@std@@YAXXZ  0043747e f   libcpmt:iosptrs.obj
 0002:00000238       ?pre_cpp_initializer@@3P6AXXZA 00438238     LIBCMT:exe_main.obj
 0002:0000023c       ?initlocks$initializer$@@3P6AXXZA 0043823c     libcpmt:cout.obj
 0002:00000240       ?fout$initializer$@std@@3P6AXXZA 00438240     libcpmt:cout.obj
 0002:00000244       ?cout$initializer$@std@@3P6AXXZA 00438244     libcpmt:cout.obj
 0002:00000248       ?init_cout$initializer$@std@@3P6AXXZA 00438248     libcpmt:cout.obj
 0002:0000024c       ?initlocks$initializer$@std@@3P6AXXZA 0043824c     libcpmt:xlock.obj
 0002:00000250       ?initlocks$initializer$@std@@3P6AXXZA 00438250     libcpmt:iosptrs.obj
 0002:00000254       ?init_atexit$initializer$@@3P6AXXZA 00438254     libcpmt:iosptrs.obj
 0002:00000258       ?_Fac_tidy_reg$initializer$@std@@3P6AXXZA 00438258     libcpmt:locale0.obj
 0002:0000025c       ?classic_locale$initializer$@std@@3P6AXXZA 0043825c     libcpmt:locale0.obj
 0002:00000260       ?mDB$initializer$@@3P6AXXZA 00438260     S08_MyDB.obj
 0002:0000026c       ?pre_c_initializer@@3P6AHXZA 0043826c     LIBCMT:exe_main.obj
 0002:00000270       ?post_pgo_initializer@@3P6AHXZA 00438270     LIBCMT:exe_main.obj
 0002:000002c0       ?_Fake_alloc@std@@3U_Fake_allocator@1@B 004382c0     cts_mysql.obj
 0002:000003a7       ?_Fake_alloc@std@@3U_Fake_allocator@1@B 004383a7     TimeLog.obj
 0002:00000466       ?_Fake_alloc@std@@3U_Fake_allocator@1@B 00438466     S02_MyServer.obj
 0002:000004ba       ?_Fake_alloc@std@@3U_Fake_allocator@1@B 004384ba     S03_MyUser.obj
 0002:0000052f       ?_Fake_alloc@std@@3U_Fake_allocator@1@B 0043852f     S04_MyWork01.obj
 0002:00000530       ?_Fake_alloc@std@@3U_Fake_allocator@1@B 00438530     S04_MyWork02.obj
 0002:00000532       ?_Fake_alloc@std@@3U_Fake_allocator@1@B 00438532     S05_MyTransfer.obj
 0002:00000533       ?_Fake_alloc@std@@3U_Fake_allocator@1@B 00438533     S07_MyGame01.obj
 0002:00000534       ?piecewise_construct@std@@3Upiecewise_construct_t@1@B 00438534     S07_MyGame01.obj
 0002:00000650       ?_Fake_alloc@std@@3U_Fake_allocator@1@B 00438650     S08_MyDB.obj
 0002:000029e1       ?_Fake_alloc@std@@3U_Fake_allocator@1@B 0043a9e1     Server_PLAYUSER.obj
 0002:00002ad0       ?_Win_errtab@?A0xdad2e229@@3QBU_Win_errtab_t@1@B 0043aad0     libcpmt:syserror.obj
 0002:00002d70       ?_Sys_errtab@?A0xdad2e229@@3QBU_Sys_errtab_t@1@B 0043ad70     libcpmt:syserror.obj
 0002:00003758       ?_Whitespace_bitmap@?A0xfa98056f@@3U_Whitespace_bitmap_t@1@B 0043b758     libcpmt:syserror_import_lib.obj
 0002:00003880       _digits                    0043b880     libcpmt:xstoul.obj
 0002:000038a8       _ndigs                     0043b8a8     libcpmt:xstoul.obj
 0002:000038d0       _digits                    0043b8d0     libcpmt:xstoull.obj
 0002:000038f8       _ndigs                     0043b8f8     libcpmt:xstoull.obj
 0002:00003928       _GS_ExceptionPointers      0043b928     LIBCMT:gs_report.obj
 0002:00003950       ?tokenTable@@3QBUStringLiteral@@B 0043b950     libvcruntime:undname.obj
 0002:000039d8       ?nameTable@@3QBUStringLiteral@@B 0043b9d8     libvcruntime:undname.obj
 0002:00003c70       ?rttiTable@@3QBUStringLiteral@@B 0043bc70     libvcruntime:undname.obj
 0002:00003c98       ?IndirectionName@@3QBUStringLiteral@@B 0043bc98     libvcruntime:undname.obj
 0002:00003cc8       ?PrefixName@@3QBUStringLiteral@@B 0043bcc8     libvcruntime:undname.obj
 0002:000042fc       ?module_names@?A0x14174aea@@3QBQB_WB 0043c2fc     libvcruntime:winapi_downlevel.obj
 0002:000043a4       ?candidate_modules@?1??try_get_FlsAlloc@@YAP6GKP6GXPAX@Z@ZXZ@4QBW4module_id@?A0x14174aea@@B 0043c3a4     libvcruntime:winapi_downlevel.obj
 0002:000043b8       ?candidate_modules@?1??try_get_FlsFree@@YAP6GHK@ZXZ@4QBW4module_id@?A0x14174aea@@B 0043c3b8     libvcruntime:winapi_downlevel.obj
 0002:000043c8       ?candidate_modules@?1??try_get_FlsGetValue@@YAP6GPAXK@ZXZ@4QBW4module_id@?A0x14174aea@@B 0043c3c8     libvcruntime:winapi_downlevel.obj
 0002:000043dc       ?candidate_modules@?1??try_get_FlsSetValue@@YAP6GHKPAX@ZXZ@4QBW4module_id@?A0x14174aea@@B 0043c3dc     libvcruntime:winapi_downlevel.obj
 0002:000043f0       ?candidate_modules@?1??try_get_InitializeCriticalSectionEx@@YAP6GHPAU_RTL_CRITICAL_SECTION@@KK@ZXZ@4QBW4module_id@?A0x14174aea@@B 0043c3f0     libvcruntime:winapi_downlevel.obj
 0002:00004530       ?comspec_name@?1???$common_system@D@@YAHQBD@Z@4QBDB 0043c530     libucrt:system.obj
 0002:00004538       ?cmd_exe@?1???$common_system@D@@YAHQBD@Z@4QBDB 0043c538     libucrt:system.obj
 0002:00004540       ?slash_c@?1???$common_system@D@@YAHQBD@Z@4QBDB 0043c540     libucrt:system.obj
 0002:00004d58       ?errtable@@3QBUerrentry@?A0x31fdb9ec@@B 0043cd58     libucrt:errno.obj
 0002:00005950       ___acrt_initializers       0043d950     libucrt:initialization.obj
 0002:000059d0       __first_127char            0043d9d0     libucrt:wsetlocale.obj
 0002:00006000       ?strings@?1??fp_format_nan_or_infinity@@YAHW4__acrt_fp_class@@_NPADI1@Z@4QAY03QBDA 0043e000     libucrt:cvt.obj
 0002:00006088       ?module_names@?A0x391cf84c@@3QBQB_WB 0043e088     libucrt:winapi_thunks.obj
 0002:00006594       ?candidate_modules@?1??try_get_AreFileApisANSI@@YAP6GHXZXZ@4QBW4module_id@?A0x391cf84c@@B 0043e594     libucrt:winapi_thunks.obj
 0002:000065a8       ?candidate_modules@?1??try_get_CompareStringEx@@YAP6GHPB_WK0H0HPAU_nlsversioninfo@@PAXJ@ZXZ@4QBW4module_id@?A0x391cf84c@@B 0043e5a8     libucrt:winapi_thunks.obj
 0002:000065c0       ?candidate_modules@?1??try_get_EnumSystemLocalesEx@@YAP6GHP6GHPA_WKJ@ZKJPAX@ZXZ@4QBW4module_id@?A0x391cf84c@@B 0043e5c0     libucrt:winapi_thunks.obj
 0002:000065dc       ?candidate_modules@?1??try_get_GetDateFormatEx@@YAP6GHPB_WKPBU_SYSTEMTIME@@0PA_WH0@ZXZ@4QBW4module_id@?A0x391cf84c@@B 0043e5dc     libucrt:winapi_thunks.obj
 0002:000065f4       ?candidate_modules@?1??try_get_GetLocaleInfoEx@@YAP6GHPB_WKPA_WH@ZXZ@4QBW4module_id@?A0x391cf84c@@B 0043e5f4     libucrt:winapi_thunks.obj
 0002:0000660c       ?candidate_modules@?1??try_get_GetTimeFormatEx@@YAP6GHPB_WKPBU_SYSTEMTIME@@0PA_WH@ZXZ@4QBW4module_id@?A0x391cf84c@@B 0043e60c     libucrt:winapi_thunks.obj
 0002:00006624       ?candidate_modules@?1??try_get_GetUserDefaultLocaleName@@YAP6GHPA_WH@ZXZ@4QBW4module_id@?A0x391cf84c@@B 0043e624     libucrt:winapi_thunks.obj
 0002:00006648       ?candidate_modules@?1??try_get_InitializeCriticalSectionEx@@YAP6GHPAU_RTL_CRITICAL_SECTION@@KK@ZXZ@4QBW4module_id@?A0x391cf84c@@B 0043e648     libucrt:winapi_thunks.obj
 0002:00006650       ?candidate_modules@?1??try_get_IsValidLocaleName@@YAP6GHPB_W@ZXZ@4QBW4module_id@?A0x391cf84c@@B 0043e650     libucrt:winapi_thunks.obj
 0002:0000666c       ?candidate_modules@?1??try_get_LCMapStringEx@@YAP6GHPB_WK0HPA_WHPAU_nlsversioninfo@@PAXJ@ZXZ@4QBW4module_id@?A0x391cf84c@@B 0043e66c     libucrt:winapi_thunks.obj
 0002:00006684       ?candidate_modules@?1??try_get_LCIDToLocaleName@@YAP6GHKPA_WHK@ZXZ@4QBW4module_id@?A0x391cf84c@@B 0043e684     libucrt:winapi_thunks.obj
 0002:000066a0       ?candidate_modules@?1??try_get_LocaleNameToLCID@@YAP6GKPB_WK@ZXZ@4QBW4module_id@?A0x391cf84c@@B 0043e6a0     libucrt:winapi_thunks.obj
 0002:000066bc       ?candidate_modules@?1??try_get_AppPolicyGetProcessTerminationMethod@@YAP6GJPAXPAW4AppPolicyProcessTerminationMethod@@@ZXZ@4QBW4module_id@?A0x391cf84c@@B 0043e6bc     libucrt:winapi_thunks.obj
 0002:000066e8       ?candidate_modules@?1??try_get_FlsAlloc@@YAP6GKP6GXPAX@Z@ZXZ@4QBW4module_id@?A0x391cf84c@@B 0043e6e8     libucrt:winapi_thunks.obj
 0002:000066f0       ?candidate_modules@?1??try_get_FlsFree@@YAP6GHK@ZXZ@4QBW4module_id@?A0x391cf84c@@B 0043e6f0     libucrt:winapi_thunks.obj
 0002:000066f8       ?candidate_modules@?1??try_get_FlsGetValue@@YAP6GPAXK@ZXZ@4QBW4module_id@?A0x391cf84c@@B 0043e6f8     libucrt:winapi_thunks.obj
 0002:00006700       ?candidate_modules@?1??try_get_FlsSetValue@@YAP6GHKPAX@ZXZ@4QBW4module_id@?A0x391cf84c@@B 0043e700     libucrt:winapi_thunks.obj
 0002:00006708       ?dot_slash@?CB@???$common_spawnv@D@@YAHHQBDQBQBD1@Z@4QBDB 0043e708     libucrt:spawnv.obj
 0002:0000670c       ?extensions@?CP@???$common_spawnv@D@@YAHHQBDQBQBD1@Z@4QAY04$$CBDA 0043e70c     libucrt:spawnv.obj
 0002:00006720       ?_names@?1??_get_fname@@9@4QBU<unnamed-type-_names>@?1??1@YAPADI@Z@B 0043e720     libucrt:fpexcept.obj
 0002:000068e8       _over                      0043e8e8     libucrt:fpctrl.obj
 0002:000068f4       _under                     0043e8f4     libucrt:fpctrl.obj
 0002:00006900       ?_mb_locale_names@@3QBQB_WB 0043e900     libucrt:mbctype.obj
 0002:00007738       ?LcidToLocaleNameTable@?A0x881e4c05@@3QBULcidToLocaleName@1@B 0043f738     libucrt:lcidtoname_downlevel.obj
 0002:00008858       ?LocaleNameToIndexTable@?A0x881e4c05@@3QBULocaleNameIndex@1@B 00440858     libucrt:lcidtoname_downlevel.obj
 0002:000097a8       ?equal_sign@?BD@???$construct_environment_block@D@@YAHQBQBDQAPAD@Z@4QBDB 004417a8     libucrt:cenvarg.obj
 0002:000097b0       LOG_name                   004417b0     libucrt:log10_impl.obj
 0002:000097c0       _One                       004417c0     libucrt:ceil_pentium4.obj
 0002:000097d0       _Bns                       004417d0     libucrt:ceil_pentium4.obj
 0002:000097e0       _Zero                      004417e0     libucrt:ceil_pentium4.obj
 0002:000097f0       _S                         004417f0     libucrt:ceil_pentium4.obj
 0002:00009800       _NegZero                   00441800     libucrt:ceil_pentium4.obj
 0002:00009820       emask                      00441820     libucrt:log10_pentium4.obj
 0002:00009830       CC                         00441830     libucrt:log10_pentium4.obj
 0002:00009840       Magic                      00441840     libucrt:log10_pentium4.obj
 0002:00009850       hi_mask                    00441850     libucrt:log10_pentium4.obj
 0002:00009860       LOG10_2                    00441860     libucrt:log10_pentium4.obj
 0002:00009870       place_L                    00441870     libucrt:log10_pentium4.obj
 0002:00009890       One                        00441890     libucrt:log10_pentium4.obj
 0002:000098a0       Zero                       004418a0     libucrt:log10_pentium4.obj
 0002:000098b0       Two52                      004418b0     libucrt:log10_pentium4.obj
 0002:000098c0       Infs                       004418c0     libucrt:log10_pentium4.obj
 0002:000098d0       NaN                        004418d0     libucrt:log10_pentium4.obj
 0002:000098e0       coeff                      004418e0     libucrt:log10_pentium4.obj
 0002:0000993e       _log2max                   0044193e     libucrt:87tran.obj
 0002:00009948       _smallarg                  00441948     libucrt:87tran.obj
 0002:00009952       _half                      00441952     libucrt:87tran.obj
 0002:0000999e       One                        0044199e     libucrt:87disp.obj
 0002:000099a6       Three                      004419a6     libucrt:87disp.obj
 0002:000099ae       XAMtoTagTab                004419ae     libucrt:87disp.obj
 0002:000099c0       One                        004419c0     libucrt:common.obj
 0002:000099d4       DblMax                     004419d4     libucrt:common.obj
 0002:000099dc       DblMin                     004419dc     libucrt:common.obj
 0002:000099e4       IeeeAdjO                   004419e4     libucrt:common.obj
 0002:000099ec       IeeeAdjU                   004419ec     libucrt:common.obj
 0002:000099f4       _infinity                  004419f4     libucrt:common.obj
 0002:000099fc       _zero                      004419fc     libucrt:common.obj
 0002:0000a240       two32                      00442240     LIBCMT:ftol2.obj
 0002:0000a244       two63                      00442244     LIBCMT:ftol2.obj
 0002:0000a248       _NaN                       00442248     LIBCMT:ftol2.obj
 0002:0000b4bc       __unwindtable$??0_System_error@std@@IAE@Verror_code@1@ABV?$basic_string@DU?$char_traits@D@std@@V?$allocator@D@2@@1@@Z 004434bc     TimeLog.obj
 0002:0000b4cc       __ehfuncinfo$??0_System_error@std@@IAE@Verror_code@1@ABV?$basic_string@DU?$char_traits@D@std@@V?$allocator@D@2@@1@@Z 004434cc     TimeLog.obj
 0002:0000b4f0       __unwindtable$??0failure@ios_base@std@@QAE@PBDABVerror_code@2@@Z 004434f0     TimeLog.obj
 0002:0000b4f8       __ehfuncinfo$??0failure@ios_base@std@@QAE@PBDABVerror_code@2@@Z 004434f8     TimeLog.obj
 0002:0000b51c       __catchsym$?_Osfx@?$basic_ostream@DU?$char_traits@D@std@@@std@@QAEXXZ$2 0044351c     TimeLog.obj
 0002:0000b52c       __unwindtable$?_Osfx@?$basic_ostream@DU?$char_traits@D@std@@@std@@QAEXXZ 0044352c     TimeLog.obj
 0002:0000b53c       __tryblocktable$?_Osfx@?$basic_ostream@DU?$char_traits@D@std@@@std@@QAEXXZ 0044353c     TimeLog.obj
 0002:0000b550       __ehfuncinfo$?_Osfx@?$basic_ostream@DU?$char_traits@D@std@@@std@@QAEXXZ 00443550     TimeLog.obj
 0002:0000b574       __catchsym$?flush@?$basic_ostream@DU?$char_traits@D@std@@@std@@QAEAAV12@XZ$11 00443574     TimeLog.obj
 0002:0000b584       __tryblocktable$?flush@?$basic_ostream@DU?$char_traits@D@std@@@std@@QAEAAV12@XZ 00443584     TimeLog.obj
 0002:0000b598       __unwindtable$?flush@?$basic_ostream@DU?$char_traits@D@std@@@std@@QAEAAV12@XZ 00443598     TimeLog.obj
 0002:0000b5b8       __ehfuncinfo$?flush@?$basic_ostream@DU?$char_traits@D@std@@@std@@QAEAAV12@XZ 004435b8     TimeLog.obj
 0002:0000b5dc       __catchsym$??$?6U?$char_traits@D@std@@@std@@YAAAV?$basic_ostream@DU?$char_traits@D@std@@@0@AAV10@PBD@Z$5 004435dc     TimeLog.obj
 0002:0000b5ec       __tryblocktable$??$?6U?$char_traits@D@std@@@std@@YAAAV?$basic_ostream@DU?$char_traits@D@std@@@0@AAV10@PBD@Z 004435ec     TimeLog.obj
 0002:0000b600       __unwindtable$??$?6U?$char_traits@D@std@@@std@@YAAAV?$basic_ostream@DU?$char_traits@D@std@@@0@AAV10@PBD@Z 00443600     TimeLog.obj
 0002:0000b620       __ehfuncinfo$??$?6U?$char_traits@D@std@@@std@@YAAAV?$basic_ostream@DU?$char_traits@D@std@@@0@AAV10@PBD@Z 00443620     TimeLog.obj
 0002:0000b644       __ehfuncinfo$??1_Sentry_base@?$basic_ostream@DU?$char_traits@D@std@@@std@@QAE@XZ 00443644     TimeLog.obj
 0002:0000b644       __ehfuncinfo$?_mbstowcs_l_helper@@YAIPA_WPBDIAAV__crt_cached_ptd_host@@@Z 00443644     libucrt:mbstowcs.obj
 0002:0000b644       __ehfuncinfo$?write_double_translated_ansi_nolock@@YA?AUwrite_result@?A0x17268360@@HQBDIAAV__crt_cached_ptd_host@@@Z 00443644     libucrt:write.obj
 0002:0000b644       __ehfuncinfo$?try_cor_exit_process@@YAXI@Z 00443644     libucrt:exit.obj
 0002:0000b644       __ehfuncinfo$??1?$basic_filebuf@DU?$char_traits@D@std@@@std@@UAE@XZ 00443644     libcpmt:cout.obj
 0002:0000b644       __ehfuncinfo$??1_Locinfo@std@@QAE@XZ 00443644     libcpmt:cout.obj
 0002:0000b644       __ehfuncinfo$?_Tidy@ios_base@std@@AAEXXZ 00443644     libcpmt:ios.obj
 0002:0000b644       __ehfuncinfo$??1_Init_atexit@@QAE@XZ 00443644     libcpmt:iosptrs.obj
 0002:0000b668       __unwindtable$??0sentry@?$basic_ostream@DU?$char_traits@D@std@@@std@@QAE@AAV12@@Z 00443668     TimeLog.obj
 0002:0000b670       __ehfuncinfo$??0sentry@?$basic_ostream@DU?$char_traits@D@std@@@std@@QAE@AAV12@@Z 00443670     TimeLog.obj
 0002:0000b694       __unwindtable$??1sentry@?$basic_ostream@DU?$char_traits@D@std@@@std@@QAE@XZ 00443694     TimeLog.obj
 0002:0000b694       __unwindtable$?common_exit@@YAXHW4_crt_exit_cleanup_mode@@W4_crt_exit_return_mode@@@Z 00443694     libucrt:exit.obj
 0002:0000b694       __unwindtable$??1?$basic_ios@DU?$char_traits@D@std@@@std@@UAE@XZ 00443694     libcpmt:cout.obj
 0002:0000b694       __unwindtable$??_D?$basic_ostream@DU?$char_traits@D@std@@@std@@QAEXXZ 00443694     libcpmt:cout.obj
 0002:0000b694       __unwindtable$??_G?$basic_ios@DU?$char_traits@D@std@@@std@@UAEPAXI@Z 00443694     libcpmt:cout.obj
 0002:0000b694       __unwindtable$??_Gios_base@std@@UAEPAXI@Z 00443694     libcpmt:cout.obj
 0002:0000b69c       __ehfuncinfo$??1sentry@?$basic_ostream@DU?$char_traits@D@std@@@std@@QAE@XZ 0044369c     TimeLog.obj
 0002:0000b69c       __ehfuncinfo$?common_exit@@YAXHW4_crt_exit_cleanup_mode@@W4_crt_exit_return_mode@@@Z 0044369c     libucrt:exit.obj
 0002:0000b69c       __ehfuncinfo$??1?$basic_ios@DU?$char_traits@D@std@@@std@@UAE@XZ 0044369c     libcpmt:cout.obj
 0002:0000b69c       __ehfuncinfo$??_D?$basic_ostream@DU?$char_traits@D@std@@@std@@QAEXXZ 0044369c     libcpmt:cout.obj
 0002:0000b69c       __ehfuncinfo$??_G?$basic_ios@DU?$char_traits@D@std@@@std@@UAEPAXI@Z 0044369c     libcpmt:cout.obj
 0002:0000b69c       __ehfuncinfo$??_Gios_base@std@@UAEPAXI@Z 0044369c     libcpmt:cout.obj
 0002:0000b758       __unwindtable$?ReturnPresentUserNum@MyGame@@QAEXPAD@Z 00443758     S07_MyGame01.obj
 0002:0000b768       __ehfuncinfo$?ReturnPresentUserNum@MyGame@@QAEXPAD@Z 00443768     S07_MyGame01.obj
 0002:0000b78c       __unwindtable$??__EmDB@@YAXXZ 0044378c     S08_MyDB.obj
 0002:0000b7a4       __ehfuncinfo$??__EmDB@@YAXXZ 004437a4     S08_MyDB.obj
 0002:0000b858       __ehfuncinfo$??0_Locinfo@std@@QAE@PBD@Z 00443858     libcpmt:cout.obj
 0002:0000b87c       __unwindtable$??0_Locinfo@std@@QAE@PBD@Z 0044387c     libcpmt:cout.obj
 0002:0000b8b4       __unwindtable$?_Getcat@?$ctype@D@std@@SAIPAPBVfacet@locale@2@PBV42@@Z 004438b4     libcpmt:cout.obj
 0002:0000b8bc       __ehfuncinfo$?_Getcat@?$ctype@D@std@@SAIPAPBVfacet@locale@2@PBV42@@Z 004438bc     libcpmt:cout.obj
 0002:0000b8e0       __unwindtable$??$use_facet@V?$codecvt@DDU_Mbstatet@@@std@@@std@@YAABV?$codecvt@DDU_Mbstatet@@@0@ABVlocale@0@@Z 004438e0     libcpmt:cout.obj
 0002:0000b8e0       __unwindtable$??$use_facet@V?$ctype@D@std@@@std@@YAABV?$ctype@D@0@ABVlocale@0@@Z 004438e0     libcpmt:cout.obj
 0002:0000b8f0       __ehfuncinfo$??$use_facet@V?$codecvt@DDU_Mbstatet@@@std@@@std@@YAABV?$codecvt@DDU_Mbstatet@@@0@ABVlocale@0@@Z 004438f0     libcpmt:cout.obj
 0002:0000b8f0       __ehfuncinfo$??$use_facet@V?$ctype@D@std@@@std@@YAABV?$ctype@D@0@ABVlocale@0@@Z 004438f0     libcpmt:cout.obj
 0002:0000b914       __unwindtable$__execute_onexit_table 00443914     libucrt:onexit.obj
 0002:0000b914       __unwindtable$??0?$basic_streambuf@DU?$char_traits@D@std@@@std@@IAE@XZ 00443914     libcpmt:cout.obj
 0002:0000b914       __unwindtable$?_Init@ios_base@std@@IAEXXZ 00443914     libcpmt:cout.obj
 0002:0000b91c       __ehfuncinfo$__execute_onexit_table 0044391c     libucrt:onexit.obj
 0002:0000b91c       __ehfuncinfo$??0?$basic_streambuf@DU?$char_traits@D@std@@@std@@IAE@XZ 0044391c     libcpmt:cout.obj
 0002:0000b91c       __ehfuncinfo$?_Init@ios_base@std@@IAEXXZ 0044391c     libcpmt:cout.obj
 0002:0000b940       __unwindtable$?widen@?$basic_ios@DU?$char_traits@D@std@@@std@@QBEDD@Z 00443940     libcpmt:cout.obj
 0002:0000b948       __ehfuncinfo$?widen@?$basic_ios@DU?$char_traits@D@std@@@std@@QBEDD@Z 00443948     libcpmt:cout.obj
 0002:0000b96c       __unwindtable$??0?$basic_ostream@DU?$char_traits@D@std@@@std@@QAE@PAV?$basic_streambuf@DU?$char_traits@D@std@@@1@_N@Z 0044396c     libcpmt:cout.obj
 0002:0000b974       __ehfuncinfo$??0?$basic_ostream@DU?$char_traits@D@std@@@std@@QAE@PAV?$basic_streambuf@DU?$char_traits@D@std@@@1@_N@Z 00443974     libcpmt:cout.obj
 0002:0000b998       __unwindtable$?uflow@?$basic_filebuf@DU?$char_traits@D@std@@@std@@MAEHXZ 00443998     libcpmt:cout.obj
 0002:0000b9a0       __ehfuncinfo$?uflow@?$basic_filebuf@DU?$char_traits@D@std@@@std@@MAEHXZ 004439a0     libcpmt:cout.obj
 0002:0000b9c4       __unwindtable$?_Getcat@?$codecvt@DDU_Mbstatet@@@std@@SAIPAPBVfacet@locale@2@PBV42@@Z 004439c4     libcpmt:cout.obj
 0002:0000b9cc       __ehfuncinfo$?_Getcat@?$codecvt@DDU_Mbstatet@@@std@@SAIPAPBVfacet@locale@2@PBV42@@Z 004439cc     libcpmt:cout.obj
 0002:0000ba28       __unwindtable$?_Init@locale@std@@CAPAV_Locimp@12@_N@Z 00443a28     libcpmt:locale0.obj
 0002:0000ba30       __ehfuncinfo$?_Init@locale@std@@CAPAV_Locimp@12@_N@Z 00443a30     libcpmt:locale0.obj
 0002:0000ba58       __sehtable$___scrt_is_nonwritable_in_current_image 00443a58     LIBCMT:utility.obj
 0002:0000ba78       __sehtable$?__scrt_common_main_seh@@YAHXZ 00443a78     LIBCMT:exe_main.obj
 0002:0000ba98       __sehtable$___DestructExceptionObject 00443a98     libvcruntime:ehhelpers.obj
 0002:0000bab8       __sehtable$?FrameUnwindToState@__FrameHandler3@@SAXPAUEHRegistrationNode@@PAXPBU_s_FuncInfo@@H@Z 00443ab8     libvcruntime:frame.obj
 0002:0000bae0       __sehtable$?CallCatchBlock@@YAPAXPAUEHExceptionRecord@@PAUEHRegistrationNode@@PAU_CONTEXT@@PBU_s_FuncInfo@@PAXHK@Z 00443ae0     libvcruntime:frame.obj
 0002:0000bb08       __catchsym$?CallUnexpected@@YAXPBU_s_ESTypeList@@@Z$2 00443b08     libvcruntime:frame.obj
 0002:0000bb18       __unwindtable$?CallUnexpected@@YAXPBU_s_ESTypeList@@@Z 00443b18     libvcruntime:frame.obj
 0002:0000bb28       __tryblocktable$?CallUnexpected@@YAXPBU_s_ESTypeList@@@Z 00443b28     libvcruntime:frame.obj
 0002:0000bb3c       __ehfuncinfo$?CallUnexpected@@YAXPBU_s_ESTypeList@@@Z 00443b3c     libvcruntime:frame.obj
 0002:0000bb60       __sehtable$??$BuildCatchObjectHelperInternal@V__FrameHandler3@@@@YAHPAUEHExceptionRecord@@PAXPBU_s_HandlerType@@PBU_s_CatchableType@@@Z 00443b60     libvcruntime:frame.obj
 0002:0000bb80       __sehtable$??$BuildCatchObjectInternal@V__FrameHandler3@@@@YAXPAUEHExceptionRecord@@PAXPBU_s_HandlerType@@PBU_s_CatchableType@@@Z 00443b80     libvcruntime:frame.obj
 0002:0000bbd8       __sehtable$??$?RV<lambda_62491a2101a2aba6cc4a769149c84f1f>@@AAV<lambda_826c27fce7726908515bbc79a5266961>@@V<lambda_4e64bbd54b50a7b070e3ea8d795375b6>@@@?$__crt_seh_guarded_call@H@@QAEH$$QAV<lambda_62491a2101a2aba6cc4a769149c84f1f>@@AAV<lambda_826c27fce7726908515bbc79a5266961>@@$$QAV<lambda_4e64bbd54b50a7b070e3ea8d795375b6>@@@Z 00443bd8     libucrt:output.obj
 0002:0000bbf8       __sehtable$?_fclose_internal@@YAHQAU_iobuf@@AAV__crt_cached_ptd_host@@@Z 00443bf8     libucrt:fclose.obj
 0002:0000bc18       __sehtable$??$?RV<lambda_2866be3712abc81a800a822484c830d8>@@AAV<lambda_39ca0ed439415581b5b15c265174cece>@@V<lambda_2b24c74d71094a6cd0cb82e44167d71b>@@@?$__crt_seh_guarded_call@X@@QAEX$$QAV<lambda_2866be3712abc81a800a822484c830d8>@@AAV<lambda_39ca0ed439415581b5b15c265174cece>@@$$QAV<lambda_2b24c74d71094a6cd0cb82e44167d71b>@@@Z 00443c18     libucrt:fflush.obj
 0002:0000bc38       __sehtable$??$?RV<lambda_2cc53f568c5a2bb6f192f930a45d44ea>@@AAV<lambda_ab61a845afdef5b7c387490eaf3616ee>@@V<lambda_c2ffc0b7726aa6be21d5f0026187e748>@@@?$__crt_seh_guarded_call@X@@QAEX$$QAV<lambda_2cc53f568c5a2bb6f192f930a45d44ea>@@AAV<lambda_ab61a845afdef5b7c387490eaf3616ee>@@$$QAV<lambda_c2ffc0b7726aa6be21d5f0026187e748>@@@Z 00443c38     libucrt:fflush.obj
 0002:0000bc58       __sehtable$??$?RV<lambda_6d20deecaf4856105ebacbad442d1079>@@AAV<lambda_9a32fed5bf61b6b509b2d3f6003082a1>@@V<lambda_63ea2239ed67c638ddbae41947fdf875>@@@?$__crt_seh_guarded_call@H@@QAEH$$QAV<lambda_6d20deecaf4856105ebacbad442d1079>@@AAV<lambda_9a32fed5bf61b6b509b2d3f6003082a1>@@$$QAV<lambda_63ea2239ed67c638ddbae41947fdf875>@@@Z 00443c58     libucrt:fflush.obj
 0002:0000bc78       __sehtable$_fgetc          00443c78     libucrt:fgetc.obj
 0002:0000bc98       __sehtable$?_fputc_internal@@YAHHQAU_iobuf@@AAV__crt_cached_ptd_host@@@Z 00443c98     libucrt:fputc.obj
 0002:0000bcb8       __sehtable$_fread_s        00443cb8     libucrt:fread.obj
 0002:0000bcd8       __sehtable$?common_fseek@@YAHV__crt_stdio_stream@@_JHAAV__crt_cached_ptd_host@@@Z 00443cd8     libucrt:fseek.obj
 0002:0000bcf8       __sehtable$??$?RV<lambda_76055cf4b68c1f980da8b7496a3ae623>@@AAV<lambda_26974eb511f701c600fccfa2a97a8e1b>@@V<lambda_0062726809bb3c529c0733aa37379daf>@@@?$__crt_seh_guarded_call@I@@QAEI$$QAV<lambda_76055cf4b68c1f980da8b7496a3ae623>@@AAV<lambda_26974eb511f701c600fccfa2a97a8e1b>@@$$QAV<lambda_0062726809bb3c529c0733aa37379daf>@@@Z 00443cf8     libucrt:fwrite.obj
 0002:0000bd18       __sehtable$??$?RV<lambda_c390c0748f48a7db46f6ce5cc3c796da>@@AAV<lambda_703a5c3f7c88128b7f5f7a8861b0a6e0>@@V<lambda_c16a91f8771b304e2b1164fb4c043437>@@@?$__crt_seh_guarded_call@H@@QAEH$$QAV<lambda_c390c0748f48a7db46f6ce5cc3c796da>@@AAV<lambda_703a5c3f7c88128b7f5f7a8861b0a6e0>@@$$QAV<lambda_c16a91f8771b304e2b1164fb4c043437>@@@Z 00443d18     libucrt:setvbuf.obj
 0002:0000bd38       __sehtable$_ungetc         00443d38     libucrt:ungetc.obj
 0002:0000bd58       __sehtable$??$?RV<lambda_f5952838e36297a1e2e9d6c748429792>@@AAV<lambda_2116bde18c9e5f34230805ea4a4660ed>@@V<lambda_3c7107de1cc98bf330a3031f42c322a3>@@@?$__crt_seh_guarded_call@PAD@@QAEPAD$$QAV<lambda_f5952838e36297a1e2e9d6c748429792>@@AAV<lambda_2116bde18c9e5f34230805ea4a4660ed>@@$$QAV<lambda_3c7107de1cc98bf330a3031f42c322a3>@@@Z 00443d58     libucrt:setlocale.obj
 0002:0000bd78       __sehtable$__query_new_handler 00443d78     libucrt:new_handler.obj
 0002:0000bd98       __sehtable$??R<lambda_6e4b09c48022b2350581041d5f6b0c4c>@@QBE@XZ 00443d98     libucrt:exit.obj
 0002:0000bdb8       __sehtable$??$?RV<lambda_03b1d95aef87969028cfba75ccab2455>@@AAV<lambda_6e4b09c48022b2350581041d5f6b0c4c>@@V<lambda_22bdf7517842c4b3e53723af5aa32b9e>@@@?$__crt_seh_guarded_call@X@@QAEX$$QAV<lambda_03b1d95aef87969028cfba75ccab2455>@@AAV<lambda_6e4b09c48022b2350581041d5f6b0c4c>@@$$QAV<lambda_22bdf7517842c4b3e53723af5aa32b9e>@@@Z 00443db8     libucrt:exit.obj
 0002:0000bdd4       __unwindtable$___dcrt_uninitialize_environments_nolock 00443dd4     libucrt:environment_initialization.obj
 0002:0000bde4       __ehfuncinfo$___dcrt_uninitialize_environments_nolock 00443de4     libucrt:environment_initialization.obj
 0002:0000be08       __sehtable$??$?RV<lambda_8e746cf0007f6ed984d6f78af1fec997>@@AAV<lambda_22ebabd17bc4fa466a2aca6d8deb888d>@@V<lambda_18ed0c0b38a6dc0daf1e7ac6d6adf05e>@@@?$__crt_seh_guarded_call@H@@QAEH$$QAV<lambda_8e746cf0007f6ed984d6f78af1fec997>@@AAV<lambda_22ebabd17bc4fa466a2aca6d8deb888d>@@$$QAV<lambda_18ed0c0b38a6dc0daf1e7ac6d6adf05e>@@@Z 00443e08     libucrt:onexit.obj
 0002:0000be28       __sehtable$??$?RV<lambda_69a2805e680e0e292e8ba93315fe43a8>@@AAV<lambda_f03950bc5685219e0bcd2087efbe011e>@@V<lambda_03fcd07e894ec930e3f35da366ca99d6>@@@?$__crt_seh_guarded_call@H@@QAEH$$QAV<lambda_69a2805e680e0e292e8ba93315fe43a8>@@AAV<lambda_f03950bc5685219e0bcd2087efbe011e>@@$$QAV<lambda_03fcd07e894ec930e3f35da366ca99d6>@@@Z 00443e28     libucrt:onexit.obj
 0002:0000be48       __sehtable$??$?RV<lambda_e5124f882df8998aaf41531e079ba474>@@AAV<lambda_3e16ef9562a7dcce91392c22ab16ea36>@@V<lambda_e25ca0880e6ef98be67edffd8c599615>@@@?$__crt_seh_guarded_call@X@@QAEX$$QAV<lambda_e5124f882df8998aaf41531e079ba474>@@AAV<lambda_3e16ef9562a7dcce91392c22ab16ea36>@@$$QAV<lambda_e25ca0880e6ef98be67edffd8c599615>@@@Z 00443e48     libucrt:wsetlocale.obj
 0002:0000be68       __sehtable$??$?RV<lambda_4fdada1b837b2abbf20876fac97688ad>@@AAV<lambda_b57350f2640456a0859d250846f69caf>@@V<lambda_eed5e4f92b5b7d55fa22c48c484aaa54>@@@?$__crt_seh_guarded_call@X@@QAEX$$QAV<lambda_4fdada1b837b2abbf20876fac97688ad>@@AAV<lambda_b57350f2640456a0859d250846f69caf>@@$$QAV<lambda_eed5e4f92b5b7d55fa22c48c484aaa54>@@@Z 00443e68     libucrt:wsetlocale.obj
 0002:0000be88       __sehtable$??$?RV<lambda_ac03c5d59bd18b09cb88b28331f6bfed>@@AAV<lambda_2a444430fde8c29194d880d93eed5e8f>@@AAV<lambda_02db5278e8aef8b5e4976579d73f5304>@@@?$__crt_seh_guarded_call@X@@QAEX$$QAV<lambda_ac03c5d59bd18b09cb88b28331f6bfed>@@AAV<lambda_2a444430fde8c29194d880d93eed5e8f>@@AAV<lambda_02db5278e8aef8b5e4976579d73f5304>@@@Z 00443e88     libucrt:wsetlocale.obj
 0002:0000bea8       __sehtable$_terminate      00443ea8     libucrt:terminate.obj
 0002:0000bec8       __sehtable$??$?RV<lambda_15ade71b0218206bbe3333a0c9b79046>@@AAV<lambda_da44e0f8b0f19ba52fefafb335991732>@@V<lambda_207f2d024fc103971653565357d6cd41>@@@?$__crt_seh_guarded_call@X@@QAEX$$QAV<lambda_15ade71b0218206bbe3333a0c9b79046>@@AAV<lambda_da44e0f8b0f19ba52fefafb335991732>@@$$QAV<lambda_207f2d024fc103971653565357d6cd41>@@@Z 00443ec8     libucrt:per_thread_data.obj
 0002:0000bee8       __sehtable$??$?RV<lambda_a7e850c220f1c8d1e6efeecdedd162c6>@@AAV<lambda_46720907175c18b6c9d2717bc0d2d362>@@V<lambda_9048902d66e8d99359bc9897bbb930a8>@@@?$__crt_seh_guarded_call@X@@QAEX$$QAV<lambda_a7e850c220f1c8d1e6efeecdedd162c6>@@AAV<lambda_46720907175c18b6c9d2717bc0d2d362>@@$$QAV<lambda_9048902d66e8d99359bc9897bbb930a8>@@@Z 00443ee8     libucrt:per_thread_data.obj
 0002:0000bf08       __sehtable$??$?RV<lambda_38edbb1296d33220d7e4dd0ed76b244a>@@AAV<lambda_5ce1d447e08cb34b2473517608e21441>@@V<lambda_fb385d3da700c9147fc39e65dd577a8c>@@@?$__crt_seh_guarded_call@X@@QAEX$$QAV<lambda_38edbb1296d33220d7e4dd0ed76b244a>@@AAV<lambda_5ce1d447e08cb34b2473517608e21441>@@$$QAV<lambda_fb385d3da700c9147fc39e65dd577a8c>@@@Z 00443f08     libucrt:per_thread_data.obj
 0002:0000bf28       __sehtable$??$?RV<lambda_6affb1475c98b40b75cdec977db92e3c>@@AAV<lambda_b8d4b9c228a6ecc3f80208dbb4b4a104>@@V<lambda_608742c3c92a14382c1684fc64f96c88>@@@?$__crt_seh_guarded_call@X@@QAEX$$QAV<lambda_6affb1475c98b40b75cdec977db92e3c>@@AAV<lambda_b8d4b9c228a6ecc3f80208dbb4b4a104>@@$$QAV<lambda_608742c3c92a14382c1684fc64f96c88>@@@Z 00443f28     libucrt:per_thread_data.obj
 0002:0000bf48       __sehtable$___acrt_initialize_lowio 00443f48     libucrt:ioinit.obj
 0002:0000bf68       __sehtable$??$?RV<lambda_6b4b7855443974f2b4b77000ea21c99c>@@AAV<lambda_8f7d3b162ab39427f4fa9995c67a7986>@@V<lambda_cc9a5ba8a5d8428b9634eab82665e5dc>@@@?$__crt_seh_guarded_call@H@@QAEH$$QAV<lambda_6b4b7855443974f2b4b77000ea21c99c>@@AAV<lambda_8f7d3b162ab39427f4fa9995c67a7986>@@$$QAV<lambda_cc9a5ba8a5d8428b9634eab82665e5dc>@@@Z 00443f68     libucrt:winapi_thunks.obj
 0002:0000bf88       __sehtable$__fcloseall     00443f88     libucrt:closeall.obj
 0002:0000bfa8       __sehtable$??$common_dupenv_s@D@@YAHQAPADQAIQBDH2H@Z 00443fa8     libucrt:getenv.obj
 0002:0000bfc8       __sehtable$??$?RV<lambda_1f7e3ac85ca3635646511ad93ac0febe>@@AAV<lambda_555255fdfb9471e5fa7bfca50021c162>@@V<lambda_24f51f8b0c33fe186c624e6675644b7a>@@@?$__crt_seh_guarded_call@_N@@QAE_N$$QAV<lambda_1f7e3ac85ca3635646511ad93ac0febe>@@AAV<lambda_555255fdfb9471e5fa7bfca50021c162>@@$$QAV<lambda_24f51f8b0c33fe186c624e6675644b7a>@@@Z 00443fc8     libucrt:spawnv.obj
 0002:0000bfe8       __sehtable$??$?RV<lambda_d422a76eb4c3bf3ad751449ab71a6ea4>@@AAV<lambda_c9ba49e555ba839a7b07aa3fbecb7617>@@V<lambda_9476263c8ee91a25d21c55370bdb50de>@@@?$__crt_seh_guarded_call@H@@QAEH$$QAV<lambda_d422a76eb4c3bf3ad751449ab71a6ea4>@@AAV<lambda_c9ba49e555ba839a7b07aa3fbecb7617>@@$$QAV<lambda_9476263c8ee91a25d21c55370bdb50de>@@@Z 00443fe8     libucrt:close.obj
 0002:0000c008       __sehtable$??$?RV<lambda_9e9de3de5fa147e2223d7db92bc10aa6>@@AAV<lambda_38ce7e780aa69e748d6df282ebc68efe>@@V<lambda_8ca6da459f0f6780f1cff60fdc3d00e5>@@@?$__crt_seh_guarded_call@H@@QAEH$$QAV<lambda_9e9de3de5fa147e2223d7db92bc10aa6>@@AAV<lambda_38ce7e780aa69e748d6df282ebc68efe>@@$$QAV<lambda_8ca6da459f0f6780f1cff60fdc3d00e5>@@@Z 00444008     libucrt:commit.obj
 0002:0000c028       __sehtable$__write_internal 00444028     libucrt:write.obj
 0002:0000c048       __sehtable$??$common_ftell@_J@@YA_JV__crt_stdio_stream@@AAV__crt_cached_ptd_host@@@Z 00444048     libucrt:ftell.obj
 0002:0000c068       __sehtable$__read          00444068     libucrt:read.obj
 0002:0000c088       __sehtable$??$common_lseek@_J@@YA_JH_JHAAV__crt_cached_ptd_host@@@Z 00444088     libucrt:lseek.obj
 0002:0000c0a8       __sehtable$_raise          004440a8     libucrt:signal.obj
 0002:0000c0c8       __sehtable$??$?RV<lambda_cbab9ec6f41b0180b23cc171c22676b0>@@AAV<lambda_44731a7d0e6d81c3e6aa82d741081786>@@V<lambda_4b292cb8dd18144e164572427af410ab>@@@?$__crt_seh_guarded_call@P6AXH@Z@@QAEP6AXH@Z$$QAV<lambda_cbab9ec6f41b0180b23cc171c22676b0>@@AAV<lambda_44731a7d0e6d81c3e6aa82d741081786>@@$$QAV<lambda_4b292cb8dd18144e164572427af410ab>@@@Z 004440c8     libucrt:signal.obj
 0002:0000c0e8       __sehtable$___set_fpsr_sse2 004440e8     libucrt:fpctrl.obj
 0002:0000c108       __sehtable$?update_thread_multibyte_data_internal@@YAPAU__crt_multibyte_data@@QAU__acrt_ptd@@QAPAU1@@Z 00444108     libucrt:mbctype.obj
 0002:0000c128       __sehtable$??$?RV<lambda_ceb1ee4838e85a9d631eb091e2fbe199>@@AAV<lambda_ae742caa10f662c28703da3d2ea5e57e>@@V<lambda_cd08b5d6af4937fe54fc07d0c9bf6b37>@@@?$__crt_seh_guarded_call@X@@QAEX$$QAV<lambda_ceb1ee4838e85a9d631eb091e2fbe199>@@AAV<lambda_ae742caa10f662c28703da3d2ea5e57e>@@$$QAV<lambda_cd08b5d6af4937fe54fc07d0c9bf6b37>@@@Z 00444128     libucrt:mbctype.obj
 0002:0000c148       __sehtable$___acrt_lowio_ensure_fh_exists 00444148     libucrt:osfinfo.obj
 0002:0000c168       __sehtable$___acrt_update_thread_locale_data 00444168     libucrt:locale_refcounting.obj
 0002:0000c188       __sehtable$__IsNonwritableInCurrentImage 00444188     LIBCMT:pesect.obj
 0002:0000c514       .idata$6                   00444514     libmysql:libmysql.dll
 0002:0000c63c       .idata$6                   0044463c     kernel32:KERNEL32.dll
 0002:0000c6dc       .idata$6                   004446dc     user32:USER32.dll
 0002:0000c6fa       .idata$6                   004446fa     gdi32:GDI32.dll
 0002:0000c750       .idata$6                   00444750     BugTrap:BugTrap.dll
 0002:0000c75c       .idata$6                   0044475c     WS2_32:WS2_32.dll
 0003:00000008       ?init@std@@3JA             00445008     libcpmt:xlock.obj
 0003:00000010       ?atcount_cdecl@@3IA        00445010     libcpmt:iosptrs.obj
 0003:000000b0       ?__vcrt_flsindex@@3KA      004450b0     libvcruntime:per_thread_data.obj
 0003:00000184       ?errno_no_memory@@3HA      00445184     libucrt:errno.obj
 0003:00000188       ?doserrno_no_memory@@3KA   00445188     libucrt:errno.obj
 0003:000001ec       __ctype_loc_style          004451ec     libucrt:wsetlocale.obj
 0003:000001f0       ?__acrt_flsindex@@3KA      004451f0     libucrt:per_thread_data.obj
 0003:000002f8       ?tzstd_program@@3PADA      004452f8     libucrt:timeset.obj
 0003:00000338       ?tzdst_program@@3PADA      00445338     libucrt:timeset.obj
 0003:00000378       ?w_tzstd_program@@3PA_WA   00445378     libucrt:timeset.obj
 0003:000003f8       ?w_tzdst_program@@3PA_WA   004453f8     libucrt:timeset.obj
 0003:00000478       ?tzname_states@@3PAY01PADA 00445478     libucrt:timeset.obj
 0003:00000480       ?w_tzname_states@@3PAY01PA_WA 00445480     libucrt:timeset.obj
 0003:0000058c       ?__DAZ_ENABLED@?1??__set_fpsr_sse2@@9@9 0044558c     libucrt:fpctrl.obj
 0003:000007b0       __mbctypes                 004457b0     libucrt:mbctype.obj
 0003:000008b8       __mbcasemaps               004458b8     libucrt:mbctype.obj
 0003:000009b8       ?__rgctypeflag@@3PADA      004459b8     libucrt:mbctype.obj
 0003:000009c0       ?__rgcode_page_info@@3PAUcode_page_info@@A 004459c0     libucrt:mbctype.obj
 0003:00000ab0       ?__dcrt_lowio_console_output_handle@@3PAXA 00445ab0     libucrt:initcon.obj
 0003:00000ec8       ?s_kProgramLog@?1??__LogMgr@@YAPAVR_ProLog@@XZ@4V2@A 00445ec8     TimeLog.obj
 0003:000026e8       ?$TSS0@?1??__LogMgr@@YAPAVR_ProLog@@XZ@4HA 004476e8     TimeLog.obj
 0003:057f3e40       ?initlocks@@3V_Init_locks@std@@A 05c38e40     libcpmt:cout.obj
 0003:057f3e41       ?init_cout@std@@3U_Init_cout@1@A 05c38e41     libcpmt:cout.obj
 0003:057f3e98       ?fout@std@@3V?$basic_filebuf@DU?$char_traits@D@std@@@1@A 05c38e98     libcpmt:cout.obj
 0003:057f3f08       ?initlocks@std@@3V_Init_locks@1@A 05c38f08     libcpmt:xlock.obj
 0003:057f3f10       ?mtx@std@@3PAU_RTL_CRITICAL_SECTION@@A 05c38f10     libcpmt:xlock.obj
 0003:057f3fec       ?classic_locale@std@@3Vlocale@1@A 05c38fec     libcpmt:locale0.obj
 0003:057f3ff4       ?_Fac_head@std@@3PAU_Fac_node@1@A 05c38ff4     libcpmt:locale0.obj
 0003:057f3ff8       ?_Fac_tidy_reg@std@@3U_Fac_tidy_reg_t@1@B 05c38ff8     libcpmt:locale0.obj
 0003:057f3ffc       _global_locale             05c38ffc     libcpmt:locale0.obj
 0003:057f4000       ?registered@?1??_Setgloballocale@locale@std@@CAXPAX@Z@4_NA 05c39000     libcpmt:locale0.obj
 0003:057f4008       ?stdstr@std@@3PAPAVios_base@1@A 05c39008     libcpmt:ios.obj
 0003:057f4030       ?stdopens@std@@3PADA       05c39030     libcpmt:ios.obj
 0003:057f405c       ?initlocks@std@@3V_Init_locks@1@A 05c3905c     libcpmt:iosptrs.obj
 0003:057f405d       ?init_atexit@@3U_Init_atexit@@A 05c3905d     libcpmt:iosptrs.obj
 0003:057f4060       ?atfuns_cdecl@@3PAP6AXXZA  05c39060     libcpmt:iosptrs.obj
 0003:057f4114       ?is_initialized_as_dll@@3_NA 05c39114     LIBCMT:utility.obj
 0003:057f4115       ?module_local_atexit_table_initialized@@3_NA 05c39115     LIBCMT:utility.obj
 0003:057f4118       ?module_local_atexit_table@@3U_onexit_table_t@@A 05c39118     LIBCMT:utility.obj
 0003:057f4124       ?module_local_at_quick_exit_table@@3U_onexit_table_t@@A 05c39124     LIBCMT:utility.obj
 0003:057f4130       _GS_ExceptionRecord        05c39130     LIBCMT:gs_report.obj
 0003:057f4180       _GS_ContextRecord          05c39180     LIBCMT:gs_report.obj
 0003:057f444c       ?g_tss_cv@@3U_RTL_CONDITION_VARIABLE@@A 05c3944c     LIBCMT:thread_safe_statics.obj
 0003:057f4450       ?g_tss_srw@@3U_RTL_SRWLOCK@@A 05c39450     LIBCMT:thread_safe_statics.obj
 0003:057f447c       ?__vcrt_startup_thread_ptd@@3U__vcrt_ptd@@A 05c3947c     libvcruntime:per_thread_data.obj
 0003:057f44a8       ___vcrt_lock_table         05c394a8     libvcruntime:locks.obj
 0003:057f44c0       ___vcrt_locks_initialized  05c394c0     libvcruntime:locks.obj
 0003:057f44ec       ?heap@@3V_HeapManager@@A   05c394ec     libvcruntime:undname.obj
 0003:057f4500       ?module_handles@@3PAPAUHINSTANCE__@@A 05c39500     libvcruntime:winapi_downlevel.obj
 0003:057f450c       ?function_pointers@@3PAPAXA 05c3950c     libvcruntime:winapi_downlevel.obj
 0003:057f4520       ?__acrt_invalid_parameter_handler@@3V?$dual_state_global@P6AXPB_W00II@Z@__crt_state_management@@A 05c39520     libucrt:invalid_parameter.obj
 0003:057f4530       ?__acrt_lock_table@@3PAU_RTL_CRITICAL_SECTION@@A 05c39530     libucrt:locks.obj
 0003:057f4680       ?__acrt_locks_initialized@@3IA 05c39680     libucrt:locks.obj
 0003:057f468c       ?__acrt_new_handler@@3V?$dual_state_global@P6AHI@Z@__crt_state_management@@A 05c3968c     libucrt:new_handler.obj
 0003:057f4690       ?c_termination_complete@@3JA 05c39690     libucrt:exit.obj
 0003:057f4694       ?thread_local_exit_callback_func@@3P6GXPAXK0@ZA 05c39694     libucrt:exit.obj
 0003:057f4698       ?c_exit_complete@?1???R<lambda_6e4b09c48022b2350581041d5f6b0c4c>@@QBE@XZ@4_NA 05c39698     libucrt:exit.obj
 0003:057f46a0       ?program_name@?1???$common_configure_argv@D@@YAHW4_crt_argv_mode@@@Z@4PADA 05c396a0     libucrt:argv_parsing.obj
 0003:057f47d0       ?__acrt_app_type@@3W4_crt_app_type@@A 05c397d0     libucrt:report_runtime_error.obj
 0003:057f47d4       ?user_matherr@@3V?$dual_state_global@P6AHPAU_exception@@@Z@__crt_state_management@@A 05c397d4     libucrt:matherr.obj
 0003:057f47f4       ?__acrt_global_new_mode@@3V?$dual_state_global@J@__crt_state_management@@A 05c397f4     libucrt:new_mode.obj
 0003:057f4800       ?internal_state@?1??_mbtowc_internal@@9@4U_Mbstatet@@A 05c39800     libucrt:mbtowc.obj
 0003:057f4808       ?enable_percent_n@@3IA     05c39808     libucrt:printf_count_output.obj
 0003:057f4a28       ?_tzname@@3V?$dual_state_global@PAPAD@__crt_state_management@@A 05c39a28     libucrt:timeset.obj
 0003:057f4a2c       ?w_tzname@@3V?$dual_state_global@PAPA_W@__crt_state_management@@A 05c39a2c     libucrt:timeset.obj
 0003:057f4a30       ?tz_api_used@@3HA          05c39a30     libucrt:tzset.obj
 0003:057f4a34       ?tzset_init_state@@3V?$dual_state_global@J@__crt_state_management@@A 05c39a34     libucrt:tzset.obj
 0003:057f4a38       ?tz_info@@3U_TIME_ZONE_INFORMATION@@A 05c39a38     libucrt:tzset.obj
 0003:057f4ae8       ?module_handles@@3PAPAUHINSTANCE__@@A 05c39ae8     libucrt:winapi_thunks.obj
 0003:057f4b40       ?encoded_function_pointers@@3PAPAXA 05c39b40     libucrt:winapi_thunks.obj
 0003:057f4bcc       ?static_enum_proc@?1??enum_system_locales_ex_nolock@@YAHQ6GHPA_WKJ@Z@Z@4P6GH0KJ@ZA 05c39bcc     libucrt:winapi_thunks.obj
 0003:057f4bd0       ?ctrlc_action@@3V?$dual_state_global@P6AXH@Z@__crt_state_management@@A 05c39bd0     libucrt:signal.obj
 0003:057f4bd4       ?ctrlbreak_action@@3V?$dual_state_global@P6AXH@Z@__crt_state_management@@A 05c39bd4     libucrt:signal.obj
 0003:057f4bd8       ?abort_action@@3V?$dual_state_global@P6AXH@Z@__crt_state_management@@A 05c39bd8     libucrt:signal.obj
 0003:057f4bdc       ?term_action@@3V?$dual_state_global@P6AXH@Z@__crt_state_management@@A 05c39bdc     libucrt:signal.obj
 0003:057f4bec       ?fSystemSet@@3HA           05c39bec     libucrt:mbctype.obj
 0003:057f4bf0       ?initialized@?1??__acrt_initialize_multibyte@@9@4_NA 05c39bf0     libucrt:mbctype.obj
 0003:057f4bfc       ?internal_pst@?1??__mbrtoc32_utf8@__crt_mbstring@@YAIPA_UPBDIPAU_Mbstatet@@AAV__crt_cached_ptd_host@@@Z@4U3@A 05c39bfc     libucrt:mbrtoc32.obj
 0003:057f4c04       ?internal_pst@?1??__c16rtomb_utf8@__crt_mbstring@@YAIPAD_SPAU_Mbstatet@@AAV__crt_cached_ptd_host@@@Z@4U3@A 05c39c04     libucrt:c16rtomb.obj
 0003:057f4c10       __pmatherr_set             05c39c10     libucrt:libm_error.obj
 0004:00000060       $R000000                   05c3a060     * linker generated manifest res *

 Exports

  ordinal    name

