 TS2ZONE

 Timestamp is 65b1ed5d (Thu Jan 25 08:10:53 2024)

 Preferred load address is 00400000

 Start         Length     Name                   Class
 0001:00000000 000001d0H .text$di                CODE
 0001:000001d0 000b7770H .text$mn                CODE
 0001:000b7940 00000860H .text$x                 CODE
 0001:000b81a0 00000136H .text$yd                CODE
 0002:00000000 00000220H .idata$5                DATA
 0002:00000220 00000008H .00cfg                  DATA
 0002:00000228 00000004H .CRT$XCA                DATA
 0002:0000022c 00000004H .CRT$XCAA               DATA
 0002:00000230 0000001cH .CRT$XCC                DATA
 0002:0000024c 00000008H .CRT$XCL                DATA
 0002:00000254 00000014H .CRT$XCU                DATA
 0002:00000268 00000004H .CRT$XCZ                DATA
 0002:0000026c 00000004H .CRT$XIA                DATA
 0002:00000270 00000004H .CRT$XIAA               DATA
 0002:00000274 00000004H .CRT$XIAC               DATA
 0002:00000278 00000018H .CRT$XIC                DATA
 0002:00000290 00000004H .CRT$XIZ                DATA
 0002:00000294 00000004H .CRT$XLA                DATA
 0002:00000298 00000004H .CRT$XLZ                DATA
 0002:0000029c 00000004H .CRT$XPA                DATA
 0002:000002a0 00000008H .CRT$XPX                DATA
 0002:000002a8 00000004H .CRT$XPXA               DATA
 0002:000002ac 00000004H .CRT$XPZ                DATA
 0002:000002b0 00000004H .CRT$XTA                DATA
 0002:000002b4 0000000cH .CRT$XTZ                DATA
 0002:000002b8 00000000H .gfids$y                DATA
 0002:000002c0 00014d80H .rdata                  DATA
 0002:00015040 00000000H .rdata$CastGuardVftablesA DATA
 0002:00015040 00000000H .rdata$CastGuardVftablesC DATA
 0002:00015040 00000018H .rdata$T                DATA
 0002:00015058 00000a34H .rdata$r                DATA
 0002:00015a8c 000000b4H .rdata$sxdata           DATA
 0002:00015b40 00000368H .rdata$voltmd           DATA
 0002:00015ea8 00000454H .rdata$zzzdbg           DATA
 0002:000162fc 00000004H .rtc$IAA                DATA
 0002:00016300 00000004H .rtc$IZZ                DATA
 0002:00016304 00000004H .rtc$TAA                DATA
 0002:00016308 00000004H .rtc$TZZ                DATA
 0002:0001630c 00000004H .tls                    DATA
 0002:00016310 00000004H .tls$                   DATA
 0002:00016314 00000004H .tls$ZZZ                DATA
 0002:00016318 00001194H .xdata$x                DATA
 0002:000174ac 00000000H .edata                  DATA
 0002:000174ac 00000064H .idata$2                DATA
 0002:00017510 00000014H .idata$3                DATA
 0002:00017524 00000220H .idata$4                DATA
 0002:00017744 00000874H .idata$6                DATA
 0003:00000000 000164c0H .data                   DATA
 0003:000164c0 00000180H .data$r                 DATA
 0003:00016640 00000358H .data$rs                DATA
 0003:00016998 00b04f80H .bss                    DATA
 0004:00000000 00000060H .rsrc$01                DATA
 0004:00000060 00000180H .rsrc$02                DATA

  Address         Publics by Value              Rva+Base       Lib:Object

 0000:00000000       ___AbsoluteZero            00000000     <absolute>
 0000:00000000       ___arm64x_extra_rfe_table  00000000     <absolute>
 0000:00000000       ___arm64x_extra_rfe_table_size 00000000     <absolute>
 0000:00000000       ___arm64x_native_entrypoint 00000000     <absolute>
 0000:00000000       ___arm64x_redirection_metadata 00000000     <absolute>
 0000:00000000       ___arm64x_redirection_metadata_count 00000000     <absolute>
 0000:00000000       ___dynamic_value_reloc_table 00000000     <absolute>
 0000:00000000       ___enclave_config          00000000     <absolute>
 0000:00000000       ___guard_check_icall_a64n_fptr 00000000     <absolute>
 0000:00000000       ___guard_eh_cont_count     00000000     <absolute>
 0000:00000000       ___guard_eh_cont_table     00000000     <absolute>
 0000:00000000       ___guard_fids_count        00000000     <absolute>
 0000:00000000       ___guard_fids_table        00000000     <absolute>
 0000:00000000       ___guard_iat_count         00000000     <absolute>
 0000:00000000       ___guard_iat_table         00000000     <absolute>
 0000:00000000       ___guard_longjmp_count     00000000     <absolute>
 0000:00000000       ___guard_longjmp_table     00000000     <absolute>
 0000:00000000       ___hybrid_auxiliary_delayload_iat 00000000     <absolute>
 0000:00000000       ___hybrid_auxiliary_delayload_iat_copy 00000000     <absolute>
 0000:00000000       ___hybrid_auxiliary_iat    00000000     <absolute>
 0000:00000000       ___hybrid_auxiliary_iat_copy 00000000     <absolute>
 0000:00000000       ___hybrid_code_map         00000000     <absolute>
 0000:00000000       ___hybrid_code_map_count   00000000     <absolute>
 0000:00000000       ___hybrid_image_info_bitfield 00000000     <absolute>
 0000:00000000       ___x64_code_ranges_to_entry_points 00000000     <absolute>
 0000:00000000       ___x64_code_ranges_to_entry_points_count 00000000     <absolute>
 0000:00000000       __except_list              00000000     <absolute>
 0000:0000002c       __tls_array                0000002c     <absolute>
 0000:0000002d       ___safe_se_handler_count   0000002d     <absolute>
 0000:00000100       ___guard_flags             00000100     <absolute>
 0000:00000000       ___ImageBase               00400000     <linker-defined>
 0001:000001d0       ??$?6U?$char_traits@D@std@@@std@@YAAAV?$basic_ostream@DU?$char_traits@D@std@@@0@AAV10@PBD@Z 004011d0 f i TimeLog.obj
 0001:00000470       ??$_Allocate_for_capacity@$0A@@?$basic_string@DU?$char_traits@D@std@@V?$allocator@D@2@@std@@CAPADAAV?$allocator@D@1@AAI@Z 00401470 f i TimeLog.obj
 0001:000004d0       ??$_Allocate_manually_vector_aligned@U_Default_allocate_traits@std@@@std@@YAPAXI@Z 004014d0 f i TimeLog.obj
 0001:00000500       ??$_Construct@$00PBD@?$basic_string@DU?$char_traits@D@std@@V?$allocator@D@2@@std@@AAEXQBDI@Z 00401500 f i TimeLog.obj
 0001:00000590       ??0_System_error@std@@IAE@Verror_code@1@ABV?$basic_string@DU?$char_traits@D@std@@V?$allocator@D@2@@1@@Z 00401590 f i TimeLog.obj
 0001:000007a0       ??0_System_error@std@@QAE@ABV01@@Z 004017a0 f i TimeLog.obj
 0001:000007f0       ??0bad_alloc@std@@QAE@ABV01@@Z 004017f0 f i TimeLog.obj
 0001:00000830       ??0bad_array_new_length@std@@QAE@ABV01@@Z 00401830 f i TimeLog.obj
 0001:00000870       ??0bad_array_new_length@std@@QAE@XZ 00401870 f i TimeLog.obj
 0001:00000890       ??0exception@std@@QAE@ABV01@@Z 00401890 f i TimeLog.obj
 0001:000008c0       ??0failure@ios_base@std@@QAE@ABV012@@Z 004018c0 f i TimeLog.obj
 0001:00000910       ??0failure@ios_base@std@@QAE@PBDABVerror_code@2@@Z 00401910 f i TimeLog.obj
 0001:00000a00       ??0runtime_error@std@@QAE@ABV01@@Z 00401a00 f i TimeLog.obj
 0001:00000a40       ??0sentry@?$basic_ostream@DU?$char_traits@D@std@@@std@@QAE@AAV12@@Z 00401a40 f i TimeLog.obj
 0001:00000ae0       ??0system_error@std@@QAE@ABV01@@Z 00401ae0 f i TimeLog.obj
 0001:00000b30       ??1?$basic_string@DU?$char_traits@D@std@@V?$allocator@D@2@@std@@QAE@XZ 00401b30 f i TimeLog.obj
 0001:00000b80       ??1_Sentry_base@?$basic_ostream@DU?$char_traits@D@std@@@std@@QAE@XZ 00401b80 f i TimeLog.obj
 0001:00000bd0       ??1bad_alloc@std@@UAE@XZ   00401bd0 f i libcpmt:xthrow.obj
 0001:00000bd0       ??1bad_array_new_length@std@@UAE@XZ 00401bd0 f i TimeLog.obj
 0001:00000bd0       ??1bad_cast@std@@UAE@XZ    00401bd0 f i S04_MyWork05.obj
 0001:00000bd0       ??1bad_exception@std@@UAE@XZ 00401bd0 f i libvcruntime:frame.obj
 0001:00000bd0       ??1failure@ios_base@std@@UAE@XZ 00401bd0 f i TimeLog.obj
 0001:00000bd0       ??1length_error@std@@UAE@XZ 00401bd0 f i libcpmt:xthrow.obj
 0001:00000bd0       ??1out_of_range@std@@UAE@XZ 00401bd0 f i libcpmt:xthrow.obj
 0001:00000bd0       ??1runtime_error@std@@UAE@XZ 00401bd0 f i libcpmt:xthrow.obj
 0001:00000bd0       ??1system_error@std@@UAE@XZ 00401bd0 f i TimeLog.obj
 0001:00000bf0       ??1sentry@?$basic_ostream@DU?$char_traits@D@std@@@std@@QAE@XZ 00401bf0 f i TimeLog.obj
 0001:00000c60       ??_E_Iostream_error_category2@std@@UAEPAXI@Z 00401c60 f i TimeLog.obj
 0001:00000c60       ??_G_Iostream_error_category2@std@@UAEPAXI@Z 00401c60 f i TimeLog.obj
 0001:00000c80       ??_E_System_error@std@@UAEPAXI@Z 00401c80 f i TimeLog.obj
 0001:00000c80       ??_Efailure@ios_base@std@@UAEPAXI@Z 00401c80 f i TimeLog.obj
 0001:00000c80       ??_Esystem_error@std@@UAEPAXI@Z 00401c80 f i TimeLog.obj
 0001:00000c80       ??_G_System_error@std@@UAEPAXI@Z 00401c80 f i TimeLog.obj
 0001:00000c80       ??_Gfailure@ios_base@std@@UAEPAXI@Z 00401c80 f i TimeLog.obj
 0001:00000c80       ??_Gsystem_error@std@@UAEPAXI@Z 00401c80 f i TimeLog.obj
 0001:00000cb0       ??_Ebad_alloc@std@@UAEPAXI@Z 00401cb0 f i TimeLog.obj
 0001:00000cb0       ??_Ebad_array_new_length@std@@UAEPAXI@Z 00401cb0 f i TimeLog.obj
 0001:00000cb0       ??_Ebad_cast@std@@UAEPAXI@Z 00401cb0 f i S04_MyWork05.obj
 0001:00000cb0       ??_Eexception@std@@UAEPAXI@Z 00401cb0 f i TimeLog.obj
 0001:00000cb0       ??_Eruntime_error@std@@UAEPAXI@Z 00401cb0 f i TimeLog.obj
 0001:00000cb0       ??_Gbad_alloc@std@@UAEPAXI@Z 00401cb0 f i TimeLog.obj
 0001:00000cb0       ??_Gbad_array_new_length@std@@UAEPAXI@Z 00401cb0 f i TimeLog.obj
 0001:00000cb0       ??_Gbad_cast@std@@UAEPAXI@Z 00401cb0 f i S04_MyWork05.obj
 0001:00000cb0       ??_Gexception@std@@UAEPAXI@Z 00401cb0 f i TimeLog.obj
 0001:00000cb0       ??_Gruntime_error@std@@UAEPAXI@Z 00401cb0 f i TimeLog.obj
 0001:00000ce0       ?GameLog@R_ProLog@@QAAXHPADZZ 00401ce0 f   TimeLog.obj
 0001:000010b0       ?Log@R_ProLog@@QAAXPBDZZ   004020b0 f   TimeLog.obj
 0001:00001150       ?_Osfx@?$basic_ostream@DU?$char_traits@D@std@@@std@@QAEXXZ 00402150 f i TimeLog.obj
 0001:00001230       ?_Throw_bad_array_new_length@std@@YAXXZ 00402230 f i TimeLog.obj
 0001:00001230       ?__scrt_throw_std_bad_array_new_length@@YAXXZ 00402230 f i LIBCMT:throw_bad_alloc.obj
 0001:00001250       ?_Xlen_string@std@@YAXXZ   00402250 f i TimeLog.obj
 0001:00001260       ?__LogMgr@@YAPAVR_ProLog@@XZ 00402260 f   TimeLog.obj
 0001:000012d0       ?append@?$basic_string@DU?$char_traits@D@std@@V?$allocator@D@2@@std@@QAEAAV12@QBDI@Z 004022d0 f i TimeLog.obj
 0001:00001430       ?clear@ios_base@std@@QAEXH_N@Z 00402430 f i TimeLog.obj
 0001:000014b0       ?default_error_condition@error_category@std@@UBE?AVerror_condition@2@H@Z 004024b0 f i TimeLog.obj
 0001:000014d0       ?equivalent@error_category@std@@UBE_NABVerror_code@2@H@Z 004024d0 f i TimeLog.obj
 0001:00001500       ?equivalent@error_category@std@@UBE_NHABVerror_condition@2@@Z 00402500 f i TimeLog.obj
 0001:00001540       ?flush@?$basic_ostream@DU?$char_traits@D@std@@@std@@QAEAAV12@XZ 00402540 f i TimeLog.obj
 0001:00001690       ?make_error_code@std@@YA?AVerror_code@1@W4io_errc@1@@Z 00402690 f i TimeLog.obj
 0001:000016b0       ?message@_Iostream_error_category2@std@@UBE?AV?$basic_string@DU?$char_traits@D@std@@V?$allocator@D@2@@2@H@Z 004026b0 f i TimeLog.obj
 0001:00001770       ?name@_Iostream_error_category2@std@@UBEPBDXZ 00402770 f i TimeLog.obj
 0001:00001780       ?setstate@?$basic_ios@DU?$char_traits@D@std@@@std@@QAEXH_N@Z 00402780 f i TimeLog.obj
 0001:000017b0       ?what@exception@std@@UBEPBDXZ 004027b0 f i TimeLog.obj
 0001:000017c0       ___local_stdio_printf_options 004027c0 f i TimeLog.obj
 0001:000017d0       _sprintf                   004027d0 f i TimeLog.obj
 0001:00001810       ?B_049_TYPE_BATTLE_INFO@MyTransfer@@QAEXQAHH@Z 00402810 f   H05_MyTransfer.obj
 0001:00001850       ?B_051_TYPE_BATTLE_INFO@MyTransfer@@QAEXQAH@Z 00402850 f   H05_MyTransfer.obj
 0001:00001890       ?B_053_TYPE_BATTLE_INFO@MyTransfer@@QAEXH@Z 00402890 f   H05_MyTransfer.obj
 0001:00001890       ?B_GERISAYIM@MyTransfer@@QAEXH@Z 00402890 f   H05_MyTransfer.obj
 0001:000018c0       ?B_194_BATTLE_COUNTDOWN@MyTransfer@@QAEXH@Z 004028c0 f   H05_MyTransfer.obj
 0001:000018f0       ?B_194_BATTLE_INFO@MyTransfer@@QAEXQAH@Z 004028f0 f   H05_MyTransfer.obj
 0001:00001930       ?B_200_BATTLE_COUNTDOWN@MyTransfer@@QAEXHHH@Z 00402930 f   H05_MyTransfer.obj
 0001:00001970       ?B_200_BATTLE_INFO@MyTransfer@@QAEXQAH@Z 00402970 f   H05_MyTransfer.obj
 0001:000019b0       ?B_267_TYPE_BATTLE_INFO@MyTransfer@@QAEXQAHH@Z 004029b0 f   H05_MyTransfer.obj
 0001:000019f0       ?B_ADDSOCKET@MyTransfer@@QAEXHHHH@Z 004029f0 f   H05_MyTransfer.obj
 0001:00001a30       ?B_ADD_ITEM_RECV@MyTransfer@@QAEXHH@Z 00402a30 f   H05_MyTransfer.obj
 0001:00001a70       ?B_ANIMAL_STATE_RECV@MyTransfer@@QAEXHH@Z 00402a70 f   H05_MyTransfer.obj
 0001:00001ab0       ?B_AUTOBUFF1@MyTransfer@@QAEXH@Z 00402ab0 f   H05_MyTransfer.obj
 0001:00001ae0       ?B_AUTOBUFF@MyTransfer@@QAEXH@Z 00402ae0 f   H05_MyTransfer.obj
 0001:00001b10       ?B_AUTOHUNT@MyTransfer@@QAEXHHH@Z 00402b10 f   H05_MyTransfer.obj
 0001:00001b50       ?B_AVATAR_ACTION_RECV2@MyTransfer@@QAEXHKPAUOBJECT_FOR_AVATAR@@H@Z 00402b50 f   H05_MyTransfer.obj
 0001:00001bc0       ?B_AVATAR_ACTION_RECV@MyTransfer@@QAEXHKPAUOBJECT_FOR_AVATAR@@H@Z 00402bc0 f   H05_MyTransfer.obj
 0001:00001c20       ?B_AVATAR_CHANGE_INFO_1@MyTransfer@@QAEXHKHHHH@Z 00402c20 f   H05_MyTransfer.obj
 0001:00001c70       ?B_AVATAR_CHANGE_INFO_2@MyTransfer@@QAEXHH@Z 00402c70 f   H05_MyTransfer.obj
 0001:00001cb0       ?B_AVATAR_EFFECT_VALUE_INFO@MyTransfer@@QAEXHKQAY01HQAH@Z 00402cb0 f   H05_MyTransfer.obj
 0001:00001d10       ?B_AVLANMABONUSU@MyTransfer@@QAEXHHHHHHQAHH@Z 00402d10 f   H05_MyTransfer.obj
 0001:00001d80       ?B_BLOODMARKET@MyTransfer@@QAEXHQAY02H@Z 00402d80 f   H05_MyTransfer.obj
 0001:00001dc0       ?B_BLOODMARKETBUY@MyTransfer@@QAEXHHHHQAH@Z 00402dc0 f   H05_MyTransfer.obj
 0001:00001e20       ?B_BOTTLE@MyTransfer@@QAEXHHH@Z 00402e20 f   H05_MyTransfer.obj
 0001:00001e60       ?B_BROADCAST_INFO_RECV2@MyTransfer@@QAEXHQAE@Z 00402e60 f   H05_MyTransfer.obj
 0001:00001eb0       ?B_BROADCAST_WORLD_INFO2@MyTransfer@@QAEXPAUWORLD_INFO@@PAUTRIBE_INFO@@@Z 00402eb0 f   H05_MyTransfer.obj
 0001:00001f10       ?B_BROADCAST_WORLD_INFO@MyTransfer@@QAEXPAUWORLD_INFO@@PAUTRIBE_INFO@@@Z 00402f10 f   H05_MyTransfer.obj
 0001:00001f60       ?B_BUY_CASH_ITEM_RECV@MyTransfer@@QAEXHHHHHQAH@Z 00402f60 f   H05_MyTransfer.obj
 0001:00001fc0       ?B_BUY_PSHOP_RECV@MyTransfer@@QAEXHHHHQAH0@Z 00402fc0 f   H05_MyTransfer.obj
 0001:00002030       ?B_CAPE_UPGRADE@MyTransfer@@QAEXHQAH@Z 00403030 f   H05_MyTransfer.obj
 0001:00002080       ?B_CHANGE_TO_TRIBE4_RECV@MyTransfer@@QAEXH@Z 00403080 f   H05_MyTransfer.obj
 0001:000020b0       ?B_CONNECT_OK@MyTransfer@@QAEXH@Z 004030b0 f   H05_MyTransfer.obj
 0001:000020e0       ?B_COSTUME@MyTransfer@@QAEXHHHHHHH@Z 004030e0 f   H05_MyTransfer.obj
 0001:00002140       ?B_CPTOWER2@MyTransfer@@QAEXPAUCP_TOWERS@@@Z 00403140 f   H05_MyTransfer.obj
 0001:000021c0       ?B_CPTOWER@MyTransfer@@QAEXPAUCP_TOWERS@@@Z 004031c0 f   H05_MyTransfer.obj
 0001:00002220       ?B_CRAFT_ITEM_RECV@MyTransfer@@QAEXHHH@Z 00403220 f   H05_MyTransfer.obj
 0001:00002260       ?B_DAILY_MISSION@MyTransfer@@QAEXHHHHHH@Z 00403260 f   H05_MyTransfer.obj
 0001:000022b0       ?B_DEMAND_PSHOP_RECV@MyTransfer@@QAEXHPAUPSHOP_INFO@@@Z 004032b0 f   H05_MyTransfer.obj
 0001:000022f0       ?B_DEMAND_ZONE_SERVER_INFO_2_RESULT@MyTransfer@@QAEXHQADH@Z 004032f0 f   H05_MyTransfer.obj
 0001:00002330       ?B_DESTROY_ITEM@MyTransfer@@QAEXHHQAH@Z 00403330 f   H05_MyTransfer.obj
 0001:00002370       ?B_DUEL_ANSWER_RECV@MyTransfer@@QAEXH@Z 00403370 f   H05_MyTransfer.obj
 0001:000023a0       ?B_DUEL_ASK_RECV@MyTransfer@@QAEXQADH@Z 004033a0 f   H05_MyTransfer.obj
 0001:000023f0       ?B_DUEL_CANCEL_RECV@MyTransfer@@QAEXXZ 004033f0 f   H05_MyTransfer.obj
 0001:00002420       ?B_DUEL_END_RECV@MyTransfer@@QAEXH@Z 00403420 f   H05_MyTransfer.obj
 0001:00002450       ?B_DUEL_START_RECV@MyTransfer@@QAEXQAHHH@Z 00403450 f   H05_MyTransfer.obj
 0001:000024a0       ?B_DUEL_TIME_INFO@MyTransfer@@QAEXH@Z 004034a0 f   H05_MyTransfer.obj
 0001:000024d0       ?B_END_PSHOP_RECV@MyTransfer@@QAEXH@Z 004034d0 f   H05_MyTransfer.obj
 0001:00002500       ?B_ENGRAVERECV@MyTransfer@@QAEXHHHHH@Z 00403500 f   H05_MyTransfer.obj
 0001:00002550       ?B_EXCHANGE_ITEM_RECV@MyTransfer@@QAEXHHQAH@Z 00403550 f   H05_MyTransfer.obj
 0001:000025a0       ?B_FISHING2@MyTransfer@@QAEXHKHHH@Z 004035a0 f   H05_MyTransfer.obj
 0001:000025f0       ?B_FISHING@MyTransfer@@QAEXHKHHH@Z 004035f0 f   H05_MyTransfer.obj
 0001:00002640       ?B_FISHINGITEMSEND@MyTransfer@@QAEXHHHHH@Z 00403640 f   H05_MyTransfer.obj
 0001:00002690       ?B_FRIEND_ANSWER_RECV@MyTransfer@@QAEXH@Z 00403690 f   H05_MyTransfer.obj
 0001:000026c0       ?B_FRIEND_ASK_RECV@MyTransfer@@QAEXQAD@Z 004036c0 f   H05_MyTransfer.obj
 0001:00002700       ?B_FRIEND_CANCEL_RECV@MyTransfer@@QAEXXZ 00403700 f   H05_MyTransfer.obj
 0001:00002730       ?B_FRIEND_DELETE_RECV@MyTransfer@@QAEXH@Z 00403730 f   H05_MyTransfer.obj
 0001:00002760       ?B_FRIEND_FIND_RECV@MyTransfer@@QAEXHH@Z 00403760 f   H05_MyTransfer.obj
 0001:000027a0       ?B_FRIEND_MAKE_RECV@MyTransfer@@QAEXHQAD@Z 004037a0 f   H05_MyTransfer.obj
 0001:000027f0       ?B_FUNCITON_NOTICE@MyTransfer@@QAEXHQAD0@Z 004037f0 f   H05_MyTransfer.obj
 0001:00002870       ?B_GENERAL_CHAT_RECV@MyTransfer@@QAEXQADE0@Z 00403870 f   H05_MyTransfer.obj
 0001:000028f0       ?B_GENERAL_NOTICE_RECV@MyTransfer@@QAEXQADH@Z 004038f0 f   H05_MyTransfer.obj
 0001:00002a30       ?B_GENERAL_SHOUT_RECV@MyTransfer@@QAEXQADE0@Z 00403a30 f   H05_MyTransfer.obj
 0001:00002ab0       ?B_GET_CASH_ITEM_INFO_RECV@MyTransfer@@QAEXHHQAY2O@93$$CBH@Z 00403ab0 f   H05_MyTransfer.obj
 0001:00002b00       ?B_GET_CASH_SIZE_RECV@MyTransfer@@QAEXHH@Z 00403b00 f   H05_MyTransfer.obj
 0001:00002b20       ?B_GM_COMMAND_INFO2@MyTransfer@@QAEXHQAE@Z 00403b20 f   H05_MyTransfer.obj
 0001:00002b70       ?B_GM_COMMAND_INFO@MyTransfer@@QAEXHQAE@Z 00403b70 f   H05_MyTransfer.obj
 0001:00002bb0       ?B_GUILD_ANSWER_RECV@MyTransfer@@QAEXH@Z 00403bb0 f   H05_MyTransfer.obj
 0001:00002be0       ?B_GUILD_ASK_RECV@MyTransfer@@QAEXQAD@Z 00403be0 f   H05_MyTransfer.obj
 0001:00002c20       ?B_GUILD_CANCEL_RECV@MyTransfer@@QAEXXZ 00403c20 f   H05_MyTransfer.obj
 0001:00002c50       ?B_GUILD_CHAT_RECV@MyTransfer@@QAEXQAD0H@Z 00403c50 f   H05_MyTransfer.obj
 0001:00002e00       ?B_GUILD_FIND_RECV@MyTransfer@@QAEXH@Z 00403e00 f   H05_MyTransfer.obj
 0001:00002e30       ?B_GUILD_LOGIN_INFO@MyTransfer@@QAEXQADH@Z 00403e30 f   H05_MyTransfer.obj
 0001:00002f20       ?B_GUILD_NOTICE_RECV@MyTransfer@@QAEXQAD0H@Z 00403f20 f   H05_MyTransfer.obj
 0001:000030d0       ?B_GUILD_WORK_RECV@MyTransfer@@QAEXHHPAUGUILD_INFO@@@Z 004040d0 f   H05_MyTransfer.obj
 0001:00003120       ?B_HIDECOSTUME@MyTransfer@@QAEXHHH@Z 00404120 f   H05_MyTransfer.obj
 0001:00003160       ?B_HIGH_ITEM_RECV@MyTransfer@@QAEXHHQAH@Z 00404160 f   H05_MyTransfer.obj
 0001:000031b0       ?B_IMPROVE_ITEM_RECV@MyTransfer@@QAEXHHH@Z 004041b0 f   H05_MyTransfer.obj
 0001:000031f0       ?B_ITEM_ACTION_RECV2@MyTransfer@@QAEXHKPAUOBJECT_FOR_ITEM@@H@Z 004041f0 f   H05_MyTransfer.obj
 0001:00003290       ?B_ITEM_ACTION_RECV@MyTransfer@@QAEXHKPAUOBJECT_FOR_ITEM@@H@Z 00404290 f   H05_MyTransfer.obj
 0001:00003310       ?B_ITEM_SEND@MyTransfer@@QAEXHHHHH@Z 00404310 f   H05_MyTransfer.obj
 0001:00003360       ?B_ITEM_UPGRADE_RECV@MyTransfer@@QAEXHHQAH@Z 00404360 f   H05_MyTransfer.obj
 0001:000033b0       ?B_KAPSUL@MyTransfer@@QAEXHHHHHHHHQAH@Z 004043b0 f   H05_MyTransfer.obj
 0001:00003420       ?B_KuleUpradge@MyTransfer@@QAEXHHHHHH@Z 00404420 f   H05_MyTransfer.obj
 0001:00003470       ?B_LEGANDARYIMPROVE@MyTransfer@@QAEXHHHH@Z 00404470 f   H05_MyTransfer.obj
 0001:000034b0       ?B_LOW_ITEM_RECV@MyTransfer@@QAEXHHQAH@Z 004044b0 f   H05_MyTransfer.obj
 0001:00003500       ?B_MAKE_ITEM_RECV@MyTransfer@@QAEXHQAH@Z 00404500 f   H05_MyTransfer.obj
 0001:00003550       ?B_MAKE_SKILL_RECV@MyTransfer@@QAEXHQAH@Z 00404550 f   H05_MyTransfer.obj
 0001:000035a0       ?B_MONSTER_ACTION_RECV@MyTransfer@@QAEXHKPAUOBJECT_FOR_MONSTER@@H@Z 004045a0 f   H05_MyTransfer.obj
 0001:00003640       ?B_MUHURLEGEND@MyTransfer@@QAEXHHQAH@Z 00404640 f   H05_MyTransfer.obj
 0001:00003690       ?B_OLDRANKINFO2@MyTransfer@@QAEXPAUOLD_RANK_INFO@@@Z 00404690 f   H05_MyTransfer.obj
 0001:000036e0       ?B_OLDRANKINFO@MyTransfer@@QAEXPAUOLD_RANK_INFO@@@Z 004046e0 f   H05_MyTransfer.obj
 0001:00003720       ?B_PARTY_ANSWER_RECV@MyTransfer@@QAEXH@Z 00404720 f   H05_MyTransfer.obj
 0001:00003750       ?B_PARTY_ASK_RECV@MyTransfer@@QAEXQAD@Z 00404750 f   H05_MyTransfer.obj
 0001:00003790       ?B_PARTY_BREAK_RECV@MyTransfer@@QAEXHQADH@Z 00404790 f   H05_MyTransfer.obj
 0001:000038a0       ?B_PARTY_CANCEL_RECV@MyTransfer@@QAEXXZ 004048a0 f   H05_MyTransfer.obj
 0001:000038d0       ?B_PARTY_CHAT_RECV@MyTransfer@@QAEXQAD0H@Z 004048d0 f   H05_MyTransfer.obj
 0001:00003a80       ?B_PARTY_EXILE_RECV@MyTransfer@@QAEXQADH@Z 00404a80 f   H05_MyTransfer.obj
 0001:00003b70       ?B_PARTY_JOIN_RECV@MyTransfer@@QAEXQADH@Z 00404b70 f   H05_MyTransfer.obj
 0001:00003c60       ?B_PARTY_LEAVE_RECV@MyTransfer@@QAEXQADH@Z 00404c60 f   H05_MyTransfer.obj
 0001:00003d50       ?B_PARTY_MAKE_RECV@MyTransfer@@QAEXHQAY0N@D@Z 00404d50 f   H05_MyTransfer.obj
 0001:00003e00       ?B_PET_COMBINE@MyTransfer@@QAEXHQAH@Z 00404e00 f   H05_MyTransfer.obj
 0001:00003e50       ?B_PROCESS_ATTACK_RECV@MyTransfer@@QAEXPAUATTACK_FOR_PROTOCOL@@@Z 00404e50 f   H05_MyTransfer.obj
 0001:00003ea0       ?B_PROCESS_DATA_RECV@MyTransfer@@QAEXHHQAE@Z 00404ea0 f   H05_MyTransfer.obj
 0001:00003ef0       ?B_PROCESS_QUEST_RECV@MyTransfer@@QAEXHHHHHH@Z 00404ef0 f   H05_MyTransfer.obj
 0001:00003f40       ?B_PSHOP_ITEM_INFO_RECV@MyTransfer@@QAEXHQADHHQAH1H@Z 00404f40 f   H05_MyTransfer.obj
 0001:00003fd0       ?B_RANKINFO2@MyTransfer@@QAEXPAURANK_INFO@@@Z 00404fd0 f   H05_MyTransfer.obj
 0001:00004020       ?B_RANKINFO@MyTransfer@@QAEXPAURANK_INFO@@@Z 00405020 f   H05_MyTransfer.obj
 0001:00004060       ?B_RANKPRIZE@MyTransfer@@QAEXHHHHHHQAH@Z 00405060 f   H05_MyTransfer.obj
 0001:000040c0       ?B_REGISTER_AVATAR_RECV@MyTransfer@@QAEXPAUAVATAR_INFO@@QAY01HH@Z 004050c0 f   H05_MyTransfer.obj
 0001:00004120       ?B_RETURN_TO_AUTO_ZONE@MyTransfer@@QAEXXZ 00405120 f   H05_MyTransfer.obj
 0001:00004150       ?B_SECRET_CHAT_RECV@MyTransfer@@QAEXHHQAD0HH@Z 00405150 f   H05_MyTransfer.obj
 0001:00004350       ?B_SOCKET@MyTransfer@@QAEXHHHHH@Z 00405350 f   H05_MyTransfer.obj
 0001:000043a0       ?B_START_PSHOP_RECV@MyTransfer@@QAEXHPAUPSHOP_INFO@@@Z 004053a0 f   H05_MyTransfer.obj
 0001:000043e0       ?B_TEACHER_ANSWER_RECV@MyTransfer@@QAEXH@Z 004053e0 f   H05_MyTransfer.obj
 0001:00004410       ?B_TEACHER_ASK_RECV@MyTransfer@@QAEXQAD@Z 00405410 f   H05_MyTransfer.obj
 0001:00004450       ?B_TEACHER_CANCEL_RECV@MyTransfer@@QAEXXZ 00405450 f   H05_MyTransfer.obj
 0001:00004480       ?B_TEACHER_END_RECV@MyTransfer@@QAEXXZ 00405480 f   H05_MyTransfer.obj
 0001:000044b0       ?B_TEACHER_START_RECV@MyTransfer@@QAEXHQAD@Z 004054b0 f   H05_MyTransfer.obj
 0001:00004500       ?B_TEACHER_STATE_RECV@MyTransfer@@QAEXH@Z 00405500 f   H05_MyTransfer.obj
 0001:00004530       ?B_TEMP_REGISTER_RECV@MyTransfer@@QAEXH@Z 00405530 f   H05_MyTransfer.obj
 0001:00004560       ?B_TRADE_ANSWER_RECV@MyTransfer@@QAEXH@Z 00405560 f   H05_MyTransfer.obj
 0001:00004590       ?B_TRADE_ASK_RECV@MyTransfer@@QAEXQADH@Z 00405590 f   H05_MyTransfer.obj
 0001:000045e0       ?B_TRADE_CANCEL_RECV@MyTransfer@@QAEXXZ 004055e0 f   H05_MyTransfer.obj
 0001:00004610       ?B_TRADE_END_RECV@MyTransfer@@QAEXH@Z 00405610 f   H05_MyTransfer.obj
 0001:00004640       ?B_TRADE_MENU_RECV@MyTransfer@@QAEXH@Z 00405640 f   H05_MyTransfer.obj
 0001:00004670       ?B_TRADE_START_RECV@MyTransfer@@QAEXHQAY03HQAY02HH@Z 00405670 f   H05_MyTransfer.obj
 0001:00004700       ?B_TRADE_STATE_RECV@MyTransfer@@QAEXHQAY03HQAY02HH@Z 00405700 f   H05_MyTransfer.obj
 0001:00004790       ?B_TRIBE_BANK_RECV@MyTransfer@@QAEXHHQAHH@Z 00405790 f   H05_MyTransfer.obj
 0001:000047e0       ?B_TRIBE_CHAT_RECV2@MyTransfer@@QAEXQAD0@Z 004057e0 f   H05_MyTransfer.obj
 0001:00004880       ?B_TRIBE_CHAT_RECV@MyTransfer@@QAEXQADE0@Z 00405880 f   H05_MyTransfer.obj
 0001:00004900       ?B_TRIBE_NOTICE_RECV@MyTransfer@@QAEXHQAD0H@Z 00405900 f   H05_MyTransfer.obj
 0001:00004980       ?B_TRIBE_VOTE_RECV@MyTransfer@@QAEXHHH@Z 00405980 f   H05_MyTransfer.obj
 0001:000049c0       ?B_TRIBE_WORK_RECV@MyTransfer@@QAEXHHQAE@Z 004059c0 f   H05_MyTransfer.obj
 0001:00004a10       ?B_USE_HOTKEY_ITEM_RECV@MyTransfer@@QAEXHHH@Z 00405a10 f   H05_MyTransfer.obj
 0001:00004a50       ?B_USE_INVENTORY_ITEM_RECV@MyTransfer@@QAEXHHHH@Z 00405a50 f   H05_MyTransfer.obj
 0001:00004a90       ?B_VALETSHOPUPDATE2@MyTransfer@@QAEXHKPAUOBJECT_FOR_SHOP@@H@Z 00405a90 f   H05_MyTransfer.obj
 0001:00004b20       ?B_VALETSHOPUPDATE@MyTransfer@@QAEXHKPAUOBJECT_FOR_SHOP@@H@Z 00405b20 f   H05_MyTransfer.obj
 0001:00004b90       ?Init@MyTransfer@@QAEHXZ   00405b90 f   H05_MyTransfer.obj
 0001:00004b90       ?Init@PATSYSTEM@@QAEHXZ    00405b90 f   S08_MyGameSystem.obj
 0001:00004ba0       ??1Guard@@QAE@XZ           00405ba0 f i Helpers.obj
 0001:00004bb0       ?_Get_bits@?$_Rng_from_urng_v2@IV?$mersenne_twister_engine@I$0CA@$0CHA@$0BIN@$0BP@$0JJAILANP@$0L@$0PPPPPPPP@$06$0JNCMFGIA@$0P@$0OPMGAAAA@$0BC@$0GMAHIJGF@@std@@@std@@AAEIXZ 00405bb0 f i Helpers.obj
 0001:00004d30       ?myrand@@YAHHH@Z           00405d30 f   Helpers.obj
 0001:00004ef0       ?KarakolKontrolu@AVATAR_OBJECT@@QAEHXZ 00405ef0 f   MapKontrolleri.obj
 0001:00005020       ?LabirentKontrolu@AVATAR_OBJECT@@QAEHXZ 00406020 f   MapKontrolleri.obj
 0001:00005100       ??$_Fput_v3@$0A@@?$num_put@DV?$ostreambuf_iterator@DU?$char_traits@D@std@@@std@@@std@@ABE?AV?$ostreambuf_iterator@DU?$char_traits@D@std@@@1@V21@AAVios_base@1@DPBDI_N@Z 00406100 f i S04_MyWork05.obj
 0001:00005670       ??$use_facet@V?$ctype@D@std@@@std@@YAABV?$ctype@D@0@ABVlocale@0@@Z 00406670 f i S04_MyWork05.obj
 0001:00005800       ??$use_facet@V?$num_put@DV?$ostreambuf_iterator@DU?$char_traits@D@std@@@std@@@std@@@std@@YAABV?$num_put@DV?$ostreambuf_iterator@DU?$char_traits@D@std@@@std@@@0@ABVlocale@0@@Z 00406800 f i S04_MyWork05.obj
 0001:00005970       ??$use_facet@V?$numpunct@D@std@@@std@@YAABV?$numpunct@D@0@ABVlocale@0@@Z 00406970 f i S04_MyWork05.obj
 0001:00005a90       ??0?$basic_string@DU?$char_traits@D@std@@V?$allocator@D@2@@std@@QAE@ID@Z 00406a90 f i S04_MyWork05.obj
 0001:00005b40       ??0_Locinfo@std@@QAE@PBD@Z 00406b40 f i S04_MyWork05.obj
 0001:00005bf0       ??0bad_cast@std@@QAE@ABV01@@Z 00406bf0 f i S04_MyWork05.obj
 0001:00005c30       ??0bad_cast@std@@QAE@XZ    00406c30 f i S04_MyWork05.obj
 0001:00005c50       ??1?$_Tidy_guard@V?$numpunct@D@std@@@std@@QAE@XZ 00406c50 f i S04_MyWork05.obj
 0001:00005c80       ??1?$_Yarn@D@std@@QAE@XZ   00406c80 f i S04_MyWork05.obj
 0001:00005c80       ??1?$_Yarn@_W@std@@QAE@XZ  00406c80 f i S04_MyWork05.obj
 0001:00005ca0       ??1?$unique_ptr@V_Facet_base@std@@U?$default_delete@V_Facet_base@std@@@2@@std@@QAE@XZ 00406ca0 f i S04_MyWork05.obj
 0001:00005cb0       ??1_Locinfo@std@@QAE@XZ    00406cb0 f i S04_MyWork05.obj
 0001:00005d90       ??1facet@locale@std@@MAE@XZ 00406d90 f i S04_MyWork05.obj
 0001:00005da0       ??1locale@std@@QAE@XZ      00406da0 f i S04_MyWork05.obj
 0001:00005dc0       ??6?$basic_ostream@DU?$char_traits@D@std@@@std@@QAEAAV01@H@Z 00406dc0 f i S04_MyWork05.obj
 0001:00005f70       ??_E?$ctype@D@std@@MAEPAXI@Z 00406f70 f i S04_MyWork05.obj
 0001:00005f70       ??_G?$ctype@D@std@@MAEPAXI@Z 00406f70 f i S04_MyWork05.obj
 0001:00005fd0       ??_E?$num_put@DV?$ostreambuf_iterator@DU?$char_traits@D@std@@@std@@@std@@MAEPAXI@Z 00406fd0 f i S04_MyWork05.obj
 0001:00005fd0       ??_G?$num_put@DV?$ostreambuf_iterator@DU?$char_traits@D@std@@@std@@@std@@MAEPAXI@Z 00406fd0 f i S04_MyWork05.obj
 0001:00006000       ??_E?$numpunct@D@std@@MAEPAXI@Z 00407000 f i S04_MyWork05.obj
 0001:00006000       ??_G?$numpunct@D@std@@MAEPAXI@Z 00407000 f i S04_MyWork05.obj
 0001:00006050       ??_E_Facet_base@std@@UAEPAXI@Z 00407050 f i S04_MyWork05.obj
 0001:00006050       ??_G_Facet_base@std@@UAEPAXI@Z 00407050 f i S04_MyWork05.obj
 0001:00006080       ?W_ADDSOCKETSYSTEM@@YAXH@Z 00407080 f   S04_MyWork05.obj
 0001:00006650       ?W_BEGGARADDABILITY@@YAXH@Z 00407650 f   S04_MyWork05.obj
 0001:00006b60       ?W_BLOODMAERKET@@YAXH@Z    00407b60 f   S04_MyWork05.obj
 0001:00006c20       ?W_BLOODMAERKETBUY@@YAXH@Z 00407c20 f   S04_MyWork05.obj
 0001:00006de0       ?W_BOTTLE@@YAXH@Z          00407de0 f   S04_MyWork05.obj
 0001:00006f40       ?W_CAPE_UPGRADE@@YAXH@Z    00407f40 f   S04_MyWork05.obj
 0001:00007500       ?W_DESTROY_ITEM@@YAXH@Z    00408500 f   S04_MyWork05.obj
 0001:00007790       ?W_ENGRAVE@@YAXH@Z         00408790 f   S04_MyWork05.obj
 0001:00007e30       ?W_FISHING2@@YAXH@Z        00408e30 f   S04_MyWork05.obj
 0001:000080a0       ?W_FISHING@@YAXH@Z         004090a0 f   S04_MyWork05.obj
 0001:000081e0       ?W_FISHINGWINITEM@@YAXH@Z  004091e0 f   S04_MyWork05.obj
 0001:00008570       ?W_FURY@@YAXH@Z            00409570 f   S04_MyWork05.obj
 0001:00008720       ?W_HIDECOSTUME@@YAXH@Z     00409720 f   S04_MyWork05.obj
 0001:000087f0       ?W_KAPSUL@@YAXH@Z          004097f0 f   S04_MyWork05.obj
 0001:00008fc0       ?W_LEGENDERYIMPROVE@@YAXH@Z 00409fc0 f   S04_MyWork05.obj
 0001:00009fd0       ?W_RANK@@YAXH@Z            0040afd0 f   S04_MyWork05.obj
 0001:0000a040       ?W_RANKPRIZE@@YAXH@Z       0040b040 f   S04_MyWork05.obj
 0001:0000a330       ?W_RANKSYSTEM@@YAXH@Z      0040b330 f   S04_MyWork05.obj
 0001:0000a540       ?W_SKILLCOMBINE@@YAXH@Z    0040b540 f   S04_MyWork05.obj
 0001:0000a5a0       ?W_SOCKETSYSTEM@@YAXH@Z    0040b5a0 f   S04_MyWork05.obj
 0001:0000b3d0       ?W_TAILOR_ITEM_UPGRADE@@YAXH@Z 0040c3d0 f   S04_MyWork05.obj
 0001:0000b900       ?W_TAILOR_SEAL@@YAXH@Z     0040c900 f   S04_MyWork05.obj
 0001:0000bc50       ?W_TIMEEFFECT@@YAXH@Z      0040cc50 f   S04_MyWork05.obj
 0001:0000bda0       ?W_TRADER_WARLORD_UPGRADE@@YAXH@Z 0040cda0 f   S04_MyWork05.obj
 0001:0000c350       ?W_UPRADGETOWER@@YAXH@Z    0040d350 f   S04_MyWork05.obj
 0001:0000c6c0       ?_Decref@facet@locale@std@@UAEPAV_Facet_base@3@XZ 0040d6c0 f i S04_MyWork05.obj
 0001:0000c6e0       ?_Ffmt@?$num_put@DV?$ostreambuf_iterator@DU?$char_traits@D@std@@@std@@@std@@ABAPADPADDH@Z 0040d6e0 f i S04_MyWork05.obj
 0001:0000c7a0       ?_Getcat@?$numpunct@D@std@@SAIPAPBVfacet@locale@2@PBV42@@Z 0040d7a0 f i S04_MyWork05.obj
 0001:0000c920       ?_Incref@facet@locale@std@@UAEXXZ 0040d920 f i S04_MyWork05.obj
 0001:0000c930       ?_Iput@?$num_put@DV?$ostreambuf_iterator@DU?$char_traits@D@std@@@std@@@std@@ABA?AV?$ostreambuf_iterator@DU?$char_traits@D@std@@@2@V32@AAVios_base@2@DPADI@Z 0040d930 f i S04_MyWork05.obj
 0001:0000ce40       ?_Put@?$num_put@DV?$ostreambuf_iterator@DU?$char_traits@D@std@@@std@@@std@@ABA?AV?$ostreambuf_iterator@DU?$char_traits@D@std@@@2@V32@PBDI@Z 0040de40 f i S04_MyWork05.obj
 0001:0000ceb0       ?_Rep@?$num_put@DV?$ostreambuf_iterator@DU?$char_traits@D@std@@@std@@@std@@ABA?AV?$ostreambuf_iterator@DU?$char_traits@D@std@@@2@V32@DI@Z 0040deb0 f i S04_MyWork05.obj
 0001:0000cf20       ?_Throw_bad_cast@std@@YAXXZ 0040df20 f i S04_MyWork05.obj
 0001:0000cf40       ?_Xran@?$_String_val@U?$_Simple_types@D@std@@@std@@SAXXZ 0040df40 f i S04_MyWork05.obj
 0001:0000cf50       ?append@?$basic_string@DU?$char_traits@D@std@@V?$allocator@D@2@@std@@QAEAAV12@ID@Z 0040df50 f i S04_MyWork05.obj
 0001:0000d0c0       ?do_decimal_point@?$numpunct@D@std@@MBEDXZ 0040e0c0 f i S04_MyWork05.obj
 0001:0000d0d0       ?do_falsename@?$numpunct@D@std@@MBE?AV?$basic_string@DU?$char_traits@D@std@@V?$allocator@D@2@@2@XZ 0040e0d0 f i S04_MyWork05.obj
 0001:0000d120       ?do_grouping@?$numpunct@D@std@@MBE?AV?$basic_string@DU?$char_traits@D@std@@V?$allocator@D@2@@2@XZ 0040e120 f i S04_MyWork05.obj
 0001:0000d170       ?do_narrow@?$ctype@D@std@@MBEDDD@Z 0040e170 f i S04_MyWork05.obj
 0001:0000d180       ?do_narrow@?$ctype@D@std@@MBEPBDPBD0DPAD@Z 0040e180 f i S04_MyWork05.obj
 0001:0000d1a0       ?do_put@?$num_put@DV?$ostreambuf_iterator@DU?$char_traits@D@std@@@std@@@std@@MBE?AV?$ostreambuf_iterator@DU?$char_traits@D@std@@@2@V32@AAVios_base@2@DJ@Z 0040e1a0 f i S04_MyWork05.obj
 0001:0000d260       ?do_put@?$num_put@DV?$ostreambuf_iterator@DU?$char_traits@D@std@@@std@@@std@@MBE?AV?$ostreambuf_iterator@DU?$char_traits@D@std@@@2@V32@AAVios_base@2@DK@Z 0040e260 f i S04_MyWork05.obj
 0001:0000d320       ?do_put@?$num_put@DV?$ostreambuf_iterator@DU?$char_traits@D@std@@@std@@@std@@MBE?AV?$ostreambuf_iterator@DU?$char_traits@D@std@@@2@V32@AAVios_base@2@DN@Z 0040e320 f i S04_MyWork05.obj
 0001:0000d520       ?do_put@?$num_put@DV?$ostreambuf_iterator@DU?$char_traits@D@std@@@std@@@std@@MBE?AV?$ostreambuf_iterator@DU?$char_traits@D@std@@@2@V32@AAVios_base@2@DO@Z 0040e520 f i S04_MyWork05.obj
 0001:0000d720       ?do_put@?$num_put@DV?$ostreambuf_iterator@DU?$char_traits@D@std@@@std@@@std@@MBE?AV?$ostreambuf_iterator@DU?$char_traits@D@std@@@2@V32@AAVios_base@2@DPBX@Z 0040e720 f i S04_MyWork05.obj
 0001:0000d780       ?do_put@?$num_put@DV?$ostreambuf_iterator@DU?$char_traits@D@std@@@std@@@std@@MBE?AV?$ostreambuf_iterator@DU?$char_traits@D@std@@@2@V32@AAVios_base@2@D_J@Z 0040e780 f i S04_MyWork05.obj
 0001:0000d850       ?do_put@?$num_put@DV?$ostreambuf_iterator@DU?$char_traits@D@std@@@std@@@std@@MBE?AV?$ostreambuf_iterator@DU?$char_traits@D@std@@@2@V32@AAVios_base@2@D_K@Z 0040e850 f i S04_MyWork05.obj
 0001:0000d920       ?do_put@?$num_put@DV?$ostreambuf_iterator@DU?$char_traits@D@std@@@std@@@std@@MBE?AV?$ostreambuf_iterator@DU?$char_traits@D@std@@@2@V32@AAVios_base@2@D_N@Z 0040e920 f i S04_MyWork05.obj
 0001:0000db20       ?do_thousands_sep@?$numpunct@D@std@@MBEDXZ 0040eb20 f i S04_MyWork05.obj
 0001:0000db30       ?do_tolower@?$ctype@D@std@@MBEDD@Z 0040eb30 f i S04_MyWork05.obj
 0001:0000db50       ?do_tolower@?$ctype@D@std@@MBEPBDPADPBD@Z 0040eb50 f i S04_MyWork05.obj
 0001:0000db80       ?do_toupper@?$ctype@D@std@@MBEDD@Z 0040eb80 f i S04_MyWork05.obj
 0001:0000dba0       ?do_toupper@?$ctype@D@std@@MBEPBDPADPBD@Z 0040eba0 f i S04_MyWork05.obj
 0001:0000dbd0       ?do_truename@?$numpunct@D@std@@MBE?AV?$basic_string@DU?$char_traits@D@std@@V?$allocator@D@2@@2@XZ 0040ebd0 f i S04_MyWork05.obj
 0001:0000dc20       ?do_widen@?$ctype@D@std@@MBEDD@Z 0040ec20 f i S04_MyWork05.obj
 0001:0000dc30       ?do_widen@?$ctype@D@std@@MBEPBDPBD0PAD@Z 0040ec30 f i S04_MyWork05.obj
 0001:0000dc50       ?put@?$basic_ostream@DU?$char_traits@D@std@@@std@@QAEAAV12@D@Z 0040ec50 f i S04_MyWork05.obj
 0001:0000ddd0       _snprintf                  0040edd0 f i S04_MyWork05.obj
 0001:0000de10       _sprintf_s                 0040ee10 f i S04_MyWork05.obj
 0001:0000de40       ?BinekStats@AVATAR_OBJECT@@QAEHHH@Z 0040ee40 f   ItemTypeSetBonus.obj
 0001:0000df60       ?EnIyi4Aile@AVATAR_OBJECT@@QAEHHPAH@Z 0040ef60 f   ItemTypeSetBonus.obj
 0001:0000dff0       ?ItemType10@AVATAR_OBJECT@@QAEHHHHHHH@Z 0040eff0 f   ItemTypeSetBonus.obj
 0001:0000e160       ?ItemType1@AVATAR_OBJECT@@QAEHHH@Z 0040f160 f   ItemTypeSetBonus.obj
 0001:0000e1e0       ?ItemType21@AVATAR_OBJECT@@QAEHHHHHHH@Z 0040f1e0 f   ItemTypeSetBonus.obj
 0001:0000e350       ?ItemType22@AVATAR_OBJECT@@QAEHHHHHHH@Z 0040f350 f   ItemTypeSetBonus.obj
 0001:0000e4c0       ?ItemType2@AVATAR_OBJECT@@QAEHHH@Z 0040f4c0 f   ItemTypeSetBonus.obj
 0001:0000e5c0       ?ItemType3@AVATAR_OBJECT@@QAEHHHH@Z 0040f5c0 f   ItemTypeSetBonus.obj
 0001:0000e680       ?ItemType4@AVATAR_OBJECT@@QAEHHH@Z 0040f680 f   ItemTypeSetBonus.obj
 0001:0000e780       ?ItemType5@AVATAR_OBJECT@@QAEHHHHHHH@Z 0040f780 f   ItemTypeSetBonus.obj
 0001:0000ea60       ?ItemType6@AVATAR_OBJECT@@QAEHHH@Z 0040fa60 f   ItemTypeSetBonus.obj
 0001:0000eab0       ?ItemType7@AVATAR_OBJECT@@QAEHHH@Z 0040fab0 f   ItemTypeSetBonus.obj
 0001:0000eb40       ?ItemType8@AVATAR_OBJECT@@QAEHHH@Z 0040fb40 f   ItemTypeSetBonus.obj
 0001:0000eb90       ?ItemTypeSetBonus@AVATAR_OBJECT@@QAEHXZ 0040fb90 f   ItemTypeSetBonus.obj
 0001:0000f450       ?YeniOzellikCan@AVATAR_OBJECT@@QAEHHPAK0@Z 00410450 f   ItemTypeSetBonus.obj
 0001:0000f7f0       ?KarakterAtakSucces@AVATAR_OBJECT@@QAEHXZ 004107f0 f   AtakRate.obj
 0001:00010150       ?SucessAtak1@AVATAR_OBJECT@@QAEHHHH@Z 00411150 f   AtakRate.obj
 0001:000102c0       ?TitleAtak@AVATAR_OBJECT@@QAEHXZ 004112c0 f   AtakPower.obj
 0001:000102c0       ?TitleSucess@AVATAR_OBJECT@@QAEHXZ 004112c0 f   AtakRate.obj
 0001:000105a0       ?DefYeniItem@AVATAR_OBJECT@@QAEHHHH@Z 004115a0 f   Defans.obj
 0001:00010840       ?KarakterDefence@AVATAR_OBJECT@@QAEHXZ 00411840 f   Defans.obj
 0001:00011410       ?TitleDef@AVATAR_OBJECT@@QAEHXZ 00412410 f   Defans.obj
 0001:00011670       ?AtakBlockEkstra@AVATAR_OBJECT@@QAEHHHH@Z 00412670 f   DiðerStatlar.obj
 0001:000117d0       ?AttackBlock@AVATAR_OBJECT@@QAEHXZ 004127d0 f   DiðerStatlar.obj
 0001:000121e0       ?Criticial@AVATAR_OBJECT@@QAEHXZ 004131e0 f   DiðerStatlar.obj
 0001:00012700       ?ElementDef@AVATAR_OBJECT@@QAEHXZ 00413700 f   DiðerStatlar.obj
 0001:00012f90       ?ElementPower@AVATAR_OBJECT@@QAEHXZ 00413f90 f   DiðerStatlar.obj
 0001:000138f0       ?EkstraOzelOzelliklerMana@AVATAR_OBJECT@@QAEHH@Z 004148f0 f   Mana.obj
 0001:00013930       ?KarakterManasi@AVATAR_OBJECT@@QAEHXZ 00414930 f   Mana.obj
 0001:00013f10       ?PetMana@AVATAR_OBJECT@@QAEMH@Z 00414f10 f   Mana.obj
 0001:00014280       ?TitleMana@AVATAR_OBJECT@@QAEHXZ 00415280 f   Mana.obj
 0001:00014530       ?BinekAbsorbe@AVATAR_OBJECT@@QAEHXZ 00415530 f   Health.obj
 0001:00014640       ?DecoItemOzellik@AVATAR_OBJECT@@QAEHHH@Z 00415640 f   Health.obj
 0001:000146e0       ?EkstraOzelOzelliklerCan@AVATAR_OBJECT@@QAEHH@Z 004156e0 f   Health.obj
 0001:00014720       ?ItemType@AVATAR_OBJECT@@QAEHH@Z 00415720 f   Health.obj
 0001:00014860       ?KarakterCani@AVATAR_OBJECT@@QAEHXZ 00415860 f   Health.obj
 0001:00015560       ?LedandaryCapeUpradge@AVATAR_OBJECT@@QAEMHHH@Z 00416560 f   Health.obj
 0001:000156f0       ?LegandaryBinekKontrolu@AVATAR_OBJECT@@QAEHH@Z 004166f0 f   Health.obj
 0001:00015730       ?LegandaryBinekOzellikleri2@AVATAR_OBJECT@@QAEMHHH@Z 00416730 f   Health.obj
 0001:00015a00       ?LegandaryBinekOzellikleri@AVATAR_OBJECT@@QAEHHH@Z 00416a00 f   Health.obj
 0001:00015b90       ?ReturnLevel@AVATAR_OBJECT@@QAEHH@Z 00416b90 f   Health.obj
 0001:00015bd0       ?TitleCan@AVATAR_OBJECT@@QAEHXZ 00416bd0 f   Health.obj
 0001:00015e30       ?YuzdelikOzellikler1@AVATAR_OBJECT@@QAEHHHH@Z 00416e30 f   Health.obj
 0001:00016060       ?YeniItemAtak@AVATAR_OBJECT@@QAEHHHHH@Z 00417060 f   AtakPower.obj
 0001:00016060       ?YuzdelikOzellikler2@AVATAR_OBJECT@@QAEHHHHH@Z 00417060 f   Health.obj
 0001:00016cd0       ?HexDump@MyServer@@QAEXPADHH@Z 00417cd0 f   S02_MyServer.obj
 0001:00016e70       ?Init@MyServer@@QAEHPAH@Z  00417e70 f   S02_MyServer.obj
 0001:000173d0       ?PROCESS_FOR_NETWORK@MyServer@@QAEHPAUHWND__@@IJ@Z 004183d0 f   S02_MyServer.obj
 0001:000179f0       _printf                    004189f0 f i S02_MyServer.obj
 0001:00017a20       ?GetMaxSkillGradeNum@MyUser@@QAEHH@Z 00418a20 f   S03_MyUser.obj
 0001:00017a60       ?Init@MyUser@@QAEHHHH@Z    00418a60 f   S03_MyUser.obj
 0001:00017b10       ?Quit@MyUser@@QAEXPBD0H@Z  00418b10 f   S03_MyUser.obj
 0001:00017e40       ?Send@MyUser@@QAEXHPADH_N@Z 00418e40 f   S03_MyUser.obj
 0001:00017f40       ?Init@MyWork@@QAEHXZ       00418f40 f   S04_MyWork01.obj
 0001:000187d0       ??0?$basic_string@DU?$char_traits@D@std@@V?$allocator@D@2@@std@@QAE@QBD@Z 004197d0 f i S04_MyWork02.obj
 0001:00018810       ??4?$basic_string@DU?$char_traits@D@std@@V?$allocator@D@2@@std@@QAEAAV01@QBD@Z 00419810 f i S04_MyWork02.obj
 0001:00018920       ?CheckPossiblePShopRegion@MyWork@@QAEHHHQAM@Z 00419920 f   S04_MyWork02.obj
 0001:00018b50       ?CheckValidCharacterMotionForSend@MyWork@@QAEHHHHPAH000@Z 00419b50 f   S04_MyWork02.obj
 0001:00019140       ?ReturnEffectState@MyWork@@QAE_NHH@Z 0041a140 f   S04_MyWork02.obj
 0001:00019300       ?SkillForMotion@MyWork@@QAE_NHPAUACTION_INFO@@H@Z 0041a300 f   S04_MyWork02.obj
 0001:000194c0       ?W_ADD_ITEM_SEND@@YAXH@Z   0041a4c0 f   S04_MyWork02.obj
 0001:0001a160       ?W_ANIMAL_STATE_SEND@@YAXH@Z 0041b160 f   S04_MyWork02.obj
 0001:0001ad30       ?W_AUTOBUFF1@@YAXH@Z       0041bd30 f   S04_MyWork02.obj
 0001:0001b080       ?W_AUTOBUFF@@YAXH@Z        0041c080 f   S04_MyWork02.obj
 0001:0001b280       ?W_AUTOHUNT@@YAXH@Z        0041c280 f   S04_MyWork02.obj
 0001:0001b420       ?W_AUTO_CHECK_ASK_RECV@@YAXH@Z 0041c420 f   S04_MyWork02.obj
 0001:0001b500       ?W_AUTO_POT@@YAXH@Z        0041c500 f   S04_MyWork02.obj
 0001:0001b570       ?W_AVATAR_ACTION_SEND@@YAXH@Z 0041c570 f   S04_MyWork02.obj
 0001:0001bbb0       ?W_BUY_CASH_ITEM_SEND@@YAXH@Z 0041cbb0 f   S04_MyWork02.obj
 0001:0001bf90       ?W_BUY_PSHOP_SEND@@YAXH@Z  0041cf90 f   S04_MyWork02.obj
 0001:0001c780       ?W_CHANGE_TO_TRIBE4_SEND@@YAXH@Z 0041d780 f   S04_MyWork02.obj
 0001:0001cc70       ?W_CLIENT_OK_FOR_ZONE_SEND@@YAXH@Z 0041dc70 f   S04_MyWork02.obj
 0001:0001cee0       ?W_COSTUME@@YAXH@Z         0041dee0 f   S04_MyWork02.obj
 0001:0001d3c0       ?W_CRAFT@@YAXH@Z           0041e3c0 f   S04_MyWork02.obj
 0001:0001ded0       ?W_DAILY_MISSION@@YAXH@Z   0041eed0 f   S04_MyWork02.obj
 0001:0001e340       ?W_DEMAND_PSHOP_SEND@@YAXH@Z 0041f340 f   S04_MyWork02.obj
 0001:0001e470       ?W_DEMAND_ZONE_SERVER_INFO_2@@YAXH@Z 0041f470 f   S04_MyWork02.obj
 0001:0001e910       ?W_DUEL_ANSWER_SEND@@YAXH@Z 0041f910 f   S04_MyWork02.obj
 0001:0001ea80       ?W_DUEL_ASK_SEND@@YAXH@Z   0041fa80 f   S04_MyWork02.obj
 0001:0001ecf0       ?W_DUEL_CANCEL_SEND@@YAXH@Z 0041fcf0 f   S04_MyWork02.obj
 0001:0001ee10       ?W_DUEL_START_SEND@@YAXH@Z 0041fe10 f   S04_MyWork02.obj
 0001:0001f070       ?W_END_PSHOP_SEND@@YAXH@Z  00420070 f   S04_MyWork02.obj
 0001:0001f1c0       ?W_EXCHANGE_ITEM_SEND@@YAXH@Z 004201c0 f   S04_MyWork02.obj
 0001:0001f9b0       ?W_FAIL_MOVE_ZONE_2_SEND@@YAXH@Z 004209b0 f   S04_MyWork02.obj
 0001:0001fb40       ?W_FRIEND_ANSWER_SEND@@YAXH@Z 00420b40 f   S04_MyWork02.obj
 0001:0001fcb0       ?W_FRIEND_ASK_SEND@@YAXH@Z 00420cb0 f   S04_MyWork02.obj
 0001:0001ffa0       ?W_FRIEND_CANCEL_SEND@@YAXH@Z 00420fa0 f   S04_MyWork02.obj
 0001:000200c0       ?W_FRIEND_DELETE_SEND@@YAXH@Z 004210c0 f   S04_MyWork02.obj
 0001:000201b0       ?W_FRIEND_FIND_SEND@@YAXH@Z 004211b0 f   S04_MyWork02.obj
 0001:000202c0       ?W_FRIEND_MAKE_SEND@@YAXH@Z 004212c0 f   S04_MyWork02.obj
 0001:00020490       ?W_FUNCITON_NOTICE@@YAXH@Z 00421490 f   S04_MyWork02.obj
 0001:00020690       ?W_GENERAL_CHAT_SEND@@YAXH@Z 00421690 f   S04_MyWork02.obj
 0001:00021d20       ?W_GENERAL_NOTICE_SEND@@YAXH@Z 00422d20 f   S04_MyWork02.obj
 0001:00021e70       ?W_GENERAL_SHOUT_SEND@@YAXH@Z 00422e70 f   S04_MyWork02.obj
 0001:00021fd0       ?W_GET_CASH_ITEM_INFO_SEND@@YAXH@Z 00422fd0 f   S04_MyWork02.obj
 0001:00022090       ?W_GET_CASH_SIZE_SEND@@YAXH@Z 00423090 f   S04_MyWork02.obj
 0001:00022160       ?W_GUILD_ANSWER_SEND@@YAXH@Z 00423160 f   S04_MyWork02.obj
 0001:000222d0       ?W_GUILD_ASK_SEND@@YAXH@Z  004232d0 f   S04_MyWork02.obj
 0001:00022550       ?W_GUILD_CANCEL_SEND@@YAXH@Z 00423550 f   S04_MyWork02.obj
 0001:00022670       ?W_GUILD_CHAT_SEND@@YAXH@Z 00423670 f   S04_MyWork02.obj
 0001:00022870       ?W_GUILD_FIND_SEND@@YAXH@Z 00423870 f   S04_MyWork02.obj
 0001:00022980       ?W_GUILD_NOTICE_SEND@@YAXH@Z 00423980 f   S04_MyWork02.obj
 0001:00022b50       ?W_GUILD_WORK_SEND@@YAXH@Z 00423b50 f   S04_MyWork02.obj
 0001:00024500       ?W_HIGH_ITEM_SEND@@YAXH@Z  00425500 f   S04_MyWork02.obj
 0001:000254d0       ?W_IMPROVE_ITEM_SEND@@YAXH@Z 004264d0 f   S04_MyWork02.obj
 0001:00026810       ?W_LOW_ITEM_SEND@@YAXH@Z   00427810 f   S04_MyWork02.obj
 0001:00027740       ?W_MAKE_ITEM_SEND@@YAXH@Z  00428740 f   S04_MyWork02.obj
 0001:0002a6a0       ?W_MAKE_SKILL_SEND@@YAXH@Z 0042b6a0 f   S04_MyWork02.obj
 0001:0002b4f0       ?W_MUHAFIZ@@YAXH@Z         0042c4f0 f   S04_MyWork02.obj
 0001:0002b530       ?W_PARTY_ANSWER_SEND@@YAXH@Z 0042c530 f   S04_MyWork02.obj
 0001:0002ba50       ?W_PARTY_ASK_SEND@@YAXH@Z  0042ca50 f   S04_MyWork02.obj
 0001:0002bcb0       ?W_PARTY_BREAK_SEND@@YAXH@Z 0042ccb0 f   S04_MyWork02.obj
 0001:0002bdf0       ?W_PARTY_CANCEL_SEND@@YAXH@Z 0042cdf0 f   S04_MyWork02.obj
 0001:0002bf10       ?W_PARTY_CHAT_SEND@@YAXH@Z 0042cf10 f   S04_MyWork02.obj
 0001:0002c100       ?W_PARTY_EXILE_SEND@@YAXH@Z 0042d100 f   S04_MyWork02.obj
 0001:0002c270       ?W_PARTY_LEAVE_SEND@@YAXH@Z 0042d270 f   S04_MyWork02.obj
 0001:0002c3c0       ?W_PET_COMBINE_SEND@@YAXH@Z 0042d3c0 f   S04_MyWork02.obj
 0001:0002d460       ?W_PROCESS_ATTACK_SEND@@YAXH@Z 0042e460 f   S04_MyWork02.obj
 0001:0002d760       ?W_PROCESS_DATA_SEND@@YAXH@Z 0042e760 f   S04_MyWork02.obj
 0001:0002d840       ?W_PROCESS_QUEST_SEND@@YAXH@Z 0042e840 f   S04_MyWork02.obj
 0001:0002e1d0       ?W_PSHOP_ITEM_INFO_SEND@@YAXH@Z 0042f1d0 f   S04_MyWork02.obj
 0001:0002e570       ?W_REGISTER_AVATAR_SEND@@YAXH@Z 0042f570 f   S04_MyWork02.obj
 0001:0002fa70       ?W_SECRET_CHAT_SEND@@YAXH@Z 00430a70 f   S04_MyWork02.obj
 0001:0002fd50       ?W_START_PSHOP_SEND@@YAXH@Z 00430d50 f   S04_MyWork02.obj
 0001:00030b20       ?W_TEACHER_ANSWER_SEND@@YAXH@Z 00431b20 f   S04_MyWork02.obj
 0001:00030c90       ?W_TEACHER_ASK_SEND@@YAXH@Z 00431c90 f   S04_MyWork02.obj
 0001:00030f90       ?W_TEACHER_CANCEL_SEND@@YAXH@Z 00431f90 f   S04_MyWork02.obj
 0001:000310b0       ?W_TEACHER_END_SEND@@YAXH@Z 004320b0 f   S04_MyWork02.obj
 0001:000311d0       ?W_TEACHER_START_SEND@@YAXH@Z 004321d0 f   S04_MyWork02.obj
 0001:00031380       ?W_TEACHER_STATE_SEND@@YAXH@Z 00432380 f   S04_MyWork02.obj
 0001:000315c0       ?W_TEMP_REGISTER_SEND@@YAXH@Z 004325c0 f   S04_MyWork02.obj
 0001:000319f0       ?W_TRADE_ANSWER_SEND@@YAXH@Z 004329f0 f   S04_MyWork02.obj
 0001:00031c00       ?W_TRADE_ASK_SEND@@YAXH@Z  00432c00 f   S04_MyWork02.obj
 0001:00031e80       ?W_TRADE_CANCEL_SEND@@YAXH@Z 00432e80 f   S04_MyWork02.obj
 0001:00031fa0       ?W_TRADE_END_SEND@@YAXH@Z  00432fa0 f   S04_MyWork02.obj
 0001:000320f0       ?W_TRADE_MENU_SEND@@YAXH@Z 004330f0 f   S04_MyWork02.obj
 0001:000328f0       ?W_TRADE_START_SEND@@YAXH@Z 004338f0 f   S04_MyWork02.obj
 0001:00032b30       ?W_TRIBE_BANK_SEND@@YAXH@Z 00433b30 f   S04_MyWork02.obj
 0001:00032df0       ?W_TRIBE_CHAT_SEND@@YAXH@Z 00433df0 f   S04_MyWork02.obj
 0001:00032f80       ?W_TRIBE_NOTICE_SEND@@YAXH@Z 00433f80 f   S04_MyWork02.obj
 0001:00033180       ?W_TRIBE_VOTE_SEND@@YAXH@Z 00434180 f   S04_MyWork02.obj
 0001:00033860       ?W_TRIBE_WORK_SEND@@YAXH@Z 00434860 f   S04_MyWork02.obj
 0001:00034fc0       ?W_UPDATE_AVATAR_ACTION@@YAXH@Z 00435fc0 f   S04_MyWork02.obj
 0001:00035320       ?W_USE_HOTKEY_ITEM_SEND@@YAXH@Z 00436320 f   S04_MyWork02.obj
 0001:00037750       ?W_USE_INVENTORY_ITEM_SEND@@YAXH@Z 00438750 f   S04_MyWork02.obj
 0001:00046e50       ?c_str@?$basic_string@DU?$char_traits@D@std@@V?$allocator@D@2@@std@@QBEPBDXZ 00447e50 f i S04_MyWork02.obj
 0001:00046e70       ?w_MOUT_ABSORB@@YAXH@Z     00447e70 f   S04_MyWork02.obj
 0001:00047080       ___local_stdio_scanf_options 00448080 f i S04_MyWork02.obj
 0001:00047090       _sscanf                    00448090 f i S04_MyWork02.obj
 0001:000470c0       ?ProcessForData@MyWork@@QAEXHHQAE@Z 004480c0 f   S04_MyWork03.obj
 0001:0004a9d0       ?ProcessForRelay@MyWork@@QAEXHQAEH@Z 0044b9d0 f   S04_MyWork03.obj
 0001:0004c390       ?ProcessForBankBarToInventoryBar@MyWork@@QAEHHHHHHHHHPAH@Z 0044d390 f   S04_MyWork04.obj
 0001:0004c420       ?ProcessForEquipToInventory@MyWork@@QAEHHHHHHHHHPAH@Z 0044d420 f   S04_MyWork04.obj
 0001:0004c740       ?ProcessForGetItem@MyWork@@QAEHHHHHHHHHPAH@Z 0044d740 f   S04_MyWork04.obj
 0001:0004cc50       ?ProcessForHotKeyToHotKey@MyWork@@QAEHHHHHHHHHPAH@Z 0044dc50 f   S04_MyWork04.obj
 0001:0004d000       ?ProcessForHotKeyToInventory@MyWork@@QAEHHHHHHHHHPAH@Z 0044e000 f   S04_MyWork04.obj
 0001:0004d350       ?ProcessForHotKeyToNo@MyWork@@QAEHHHHPAH@Z 0044e350 f   S04_MyWork04.obj
 0001:0004d450       ?ProcessForInventoryBarToBankBar@MyWork@@QAEHHHHHHHHHPAH@Z 0044e450 f   S04_MyWork04.obj
 0001:0004d4e0       ?ProcessForInventoryBarToInventoryMoney@MyWork@@QAEHHHHHHHHHPAH@Z 0044e4e0 f   S04_MyWork04.obj
 0001:0004d5c0       ?ProcessForInventoryBarToSeyisBar@MyWork@@QAEHHHHHHHHHPAH@Z 0044e5c0 f   S04_MyWork04.obj
 0001:0004d650       ?ProcessForInventoryBarToTradeBar@MyWork@@QAEHHHHHHHHHPAH@Z 0044e650 f   S04_MyWork04.obj
 0001:0004d730       ?ProcessForInventoryMoneyToInventoryBar@MyWork@@QAEHHHHHHHHHPAH@Z 0044e730 f   S04_MyWork04.obj
 0001:0004d7c0       ?ProcessForInventoryMoneyToSaveMoney@MyWork@@QAEHHHHHHHHHPAH@Z 0044e7c0 f   S04_MyWork04.obj
 0001:0004d870       ?ProcessForInventoryMoneyToStoreMoney@MyWork@@QAEHHHHHHHHHPAH@Z 0044e870 f   S04_MyWork04.obj
 0001:0004d920       ?ProcessForInventoryMoneyToTradeMoney@MyWork@@QAEHHHHHHHHHPAH@Z 0044e920 f   S04_MyWork04.obj
 0001:0004da40       ?ProcessForInventoryMoneyToWorld@MyWork@@QAEHHHHHHHHHPAH@Z 0044ea40 f   S04_MyWork04.obj
 0001:0004db10       ?ProcessForInventoryToEquip@MyWork@@QAEHHHHHHHHHPAH@Z 0044eb10 f   S04_MyWork04.obj
 0001:0004de60       ?ProcessForInventoryToHotKey@MyWork@@QAEHHHHHHHHHPAH@Z 0044ee60 f   S04_MyWork04.obj
 0001:0004e160       ?ProcessForInventoryToInventory@MyWork@@QAEHHHHHHHHHPAH@Z 0044f160 f   S04_MyWork04.obj
 0001:0004e690       ?ProcessForInventoryToNPCShop@MyWork@@QAEHHHHHHHHHPAH@Z 0044f690 f   S04_MyWork04.obj
 0001:0004e950       ?ProcessForInventoryToPetInventory@MyWork@@QAEHHHHHHHHPAH@Z 0044f950 f   S04_MyWork04.obj
 0001:0004eaf0       ?ProcessForInventoryToSave@MyWork@@QAEHHHHHHHHHPAH@Z 0044faf0 f   S04_MyWork04.obj
 0001:0004efa0       ?ProcessForInventoryToStore@MyWork@@QAEHHHHHHHHHPAH@Z 0044ffa0 f   S04_MyWork04.obj
 0001:0004f4d0       ?ProcessForInventoryToTrade@MyWork@@QAEHHHHHHHHHPAH@Z 004504d0 f   S04_MyWork04.obj
 0001:0004f9a0       ?ProcessForInventoryToWorld@MyWork@@QAEHHHHHHHHHPAH@Z 004509a0 f   S04_MyWork04.obj
 0001:0004fd30       ?ProcessForLearnSkill1@MyWork@@QAEHHHHPAH@Z 00450d30 f   S04_MyWork04.obj
 0001:00050020       ?ProcessForLearnSkill2@MyWork@@QAEHHHHPAH@Z 00451020 f   S04_MyWork04.obj
 0001:000502d0       ?ProcessForNPCShopToInventory@MyWork@@QAEHHHHHHHHHPAH@Z 004512d0 f   S04_MyWork04.obj
 0001:000506a0       ?ProcessForPetInventoryToInventory@MyWork@@QAEHHHHHHHHPAH@Z 004516a0 f   S04_MyWork04.obj
 0001:00050870       ?ProcessForPetInventoryToPetInventory@MyWork@@QAEHHHHHHHHPAH@Z 00451870 f   S04_MyWork04.obj
 0001:00050960       ?ProcessForSaveMoneyToInventoryMoney@MyWork@@QAEHHHHHHHHHPAH@Z 00451960 f   S04_MyWork04.obj
 0001:00050a10       ?ProcessForSaveToInventory@MyWork@@QAEHHHHHHHHHPAH@Z 00451a10 f   S04_MyWork04.obj
 0001:00050ef0       ?ProcessForSaveToSave@MyWork@@QAEHHHHHHHHHPAH@Z 00451ef0 f   S04_MyWork04.obj
 0001:00051280       ?ProcessForSeyisBarToInventoryBar@MyWork@@QAEHHHHHHHHHPAH@Z 00452280 f   S04_MyWork04.obj
 0001:00051310       ?ProcessForSkillToHotKey@MyWork@@QAEHHHHHHHPAH@Z 00452310 f   S04_MyWork04.obj
 0001:00051510       ?ProcessForSkillUpgrade@MyWork@@QAEHHHPAH@Z 00452510 f   S04_MyWork04.obj
 0001:00051600       ?ProcessForStatPlus@MyWork@@QAEHHHPAH@Z 00452600 f   S04_MyWork04.obj
 0001:00051810       ?ProcessForStoreMoneyToInventoryMoney@MyWork@@QAEHHHHHHHHHPAH@Z 00452810 f   S04_MyWork04.obj
 0001:000518c0       ?ProcessForStoreToInventory@MyWork@@QAEHHHHHHHHHPAH@Z 004528c0 f   S04_MyWork04.obj
 0001:00051dc0       ?ProcessForStoreToStore@MyWork@@QAEHHHHHHHHHPAH@Z 00452dc0 f   S04_MyWork04.obj
 0001:000522c0       ?ProcessForTradeBarToInventoryBar@MyWork@@QAEHHHHHHHHHPAH@Z 004532c0 f   S04_MyWork04.obj
 0001:000523a0       ?ProcessForTradeMoneyToInventoryMoney@MyWork@@QAEHHHHHHHHHPAH@Z 004533a0 f   S04_MyWork04.obj
 0001:000524c0       ?ProcessForTradeToInventory@MyWork@@QAEHHHHHHHHHPAH@Z 004534c0 f   S04_MyWork04.obj
 0001:00052940       ?ProcessForTradeToTrade@MyWork@@QAEHHHHHHHHHPAH@Z 00453940 f   S04_MyWork04.obj
 0001:00052cf0       ?Close@MyCenterCom@@AAEXXZ 00453cf0 f   S06_MyUpperCom.obj
 0001:00052d10       ?Close@MyRelayCom@@AAEXXZ  00453d10 f   S06_MyUpperCom.obj
 0001:00052d30       ?Connect@MyExtraCom@@AAEHXZ 00453d30 f   S06_MyUpperCom.obj
 0001:00052f10       ?Connect@MyPlayUserCom@@AAEHXZ 00453f10 f   S06_MyUpperCom.obj
 0001:00052f10       ?Connect@MyValetInfo@@AAEHXZ 00453f10 f   S06_MyUpperCom.obj
 0001:000530c0       ?GL_615_TRADE_ITEM@MyGameLog@@QAEXHHHPBDHHHHH@Z 004540c0 f   S06_MyUpperCom.obj
 0001:000531b0       ?GL_616_TRADE_MONEY@MyGameLog@@QAEXHHHH@Z 004541b0 f   S06_MyUpperCom.obj
 0001:00053220       ?GL_ADD_ITEM@MyGameLog@@QAEXHHQADHHH0H0@Z 00454220 f   S06_MyUpperCom.obj
 0001:00053290       ?GL_BUY_CASH_ITEM@MyGameLog@@QAEXHHPBDHH@Z 00454290 f   S06_MyUpperCom.obj
 0001:000532f0       ?GL_BUY_SHOP_ITEM@MyGameLog@@QAEXHHHQADHHHHH@Z 004542f0 f   S06_MyUpperCom.obj
 0001:00053370       ?GL_CAPSUL_ITEM@MyGameLog@@QAEXHHQAD@Z 00454370 f   S06_MyUpperCom.obj
 0001:000533d0       ?GL_COSTUME_ITEM@MyGameLog@@QAEXHHQAD@Z 004543d0 f   S06_MyUpperCom.obj
 0001:00053430       ?GL_CRAFT_ITEM@MyGameLog@@QAEXHHQADHH0@Z 00454430 f   S06_MyUpperCom.obj
 0001:00053490       ?GL_DAILY_ITEM@MyGameLog@@QAEXHHQAD@Z 00454490 f   S06_MyUpperCom.obj
 0001:000534f0       ?GL_EXCHANGE_ITEM@MyGameLog@@QAEXHHQADH0@Z 004544f0 f   S06_MyUpperCom.obj
 0001:00053550       ?GL_GAIN_FISH@MyGameLog@@QAEXHHQAD@Z 00454550 f   S06_MyUpperCom.obj
 0001:000535b0       ?GL_GAIN_ITEM@MyGameLog@@QAEXHHHHHPBD@Z 004545b0 f   S06_MyUpperCom.obj
 0001:00053630       ?GL_GAIN_KILLOTHERTRIBE_ITEM@MyGameLog@@QAEXHHHQAD@Z 00454630 f   S06_MyUpperCom.obj
 0001:000536b0       ?GL_IMPROVE_ITEM@MyGameLog@@QAEXHHQADHH0@Z 004546b0 f   S06_MyUpperCom.obj
 0001:00053730       ?GL_MAKE_ITEM@MyGameLog@@QAEXHHQADH0H0H0H0@Z 00454730 f   S06_MyUpperCom.obj
 0001:000537a0       ?GL_MAKE_SKILL@MyGameLog@@QAEXHH@Z 004547a0 f   S06_MyUpperCom.obj
 0001:00053800       ?GL_OPEN_SOKET_ITEM@MyGameLog@@QAEXHHQADH@Z 00454800 f   S06_MyUpperCom.obj
 0001:00053860       ?GL_PETCOMBINE_ITEM@MyGameLog@@QAEXHHQADH0H0H0H0@Z 00454860 f   S06_MyUpperCom.obj
 0001:000538d0       ?GL_PLUSS_STATE@MyGameLog@@QAEXHHHHHHH@Z 004548d0 f   S06_MyUpperCom.obj
 0001:00053930       ?GL_QUIT_LOG@MyGameLog@@QAEXPBD000H@Z 00454930 f   S06_MyUpperCom.obj
 0001:00053980       ?GL_RANK_PRIZE@MyGameLog@@QAEXHH@Z 00454980 f   S06_MyUpperCom.obj
 0001:000539e0       ?GL_SAVESLOT_ITEM@MyGameLog@@QAEXHHHHHPBD0@Z 004549e0 f   S06_MyUpperCom.obj
 0001:00053a60       ?GL_SELL_SOKET_ITEM@MyGameLog@@QAEXHHQAD@Z 00454a60 f   S06_MyUpperCom.obj
 0001:00053ac0       ?GL_STROESLOT_ITEM@MyGameLog@@QAEXHHHHHPBD0@Z 00454ac0 f   S06_MyUpperCom.obj
 0001:00053b40       ?GL_USE_INVENTORY_ITEM@MyGameLog@@QAEXHHQADHHH0HH@Z 00454b40 f   S06_MyUpperCom.obj
 0001:00053bb0       ?Init@MyCenterCom@@QAEHHHQADH@Z 00454bb0 f   S06_MyUpperCom.obj
 0001:00053c60       ?Init@MyExtraCom@@QAEHHQADH@Z 00454c60 f   S06_MyUpperCom.obj
 0001:00053cb0       ?Init@MyGameLog@@QAEHQADH@Z 00454cb0 f   S06_MyUpperCom.obj
 0001:00053d30       ?Init@MyPlayUserCom@@QAEHHQADH@Z 00454d30 f   S06_MyUpperCom.obj
 0001:00053de0       ?Init@MyRelayCom@@QAEHHQADH@Z 00454de0 f   S06_MyUpperCom.obj
 0001:00053e90       ?Init@MyValetInfo@@QAEHHQADH@Z 00454e90 f   S06_MyUpperCom.obj
 0001:00053f40       ?PROCESS_FOR_NETWORK@MyCenterCom@@QAEHPAUHWND__@@IJ@Z 00454f40 f   S06_MyUpperCom.obj
 0001:00054e90       ?PROCESS_FOR_NETWORK@MyRelayCom@@QAEHPAUHWND__@@IJ@Z 00455e90 f   S06_MyUpperCom.obj
 0001:00054ff0       ?ProcessForNetwork@MyExtraCom@@QAEHXZ 00455ff0 f   S06_MyUpperCom.obj
 0001:000550c0       ?ProcessForNetwork@MyPlayUserCom@@QAEHXZ 004560c0 f   S06_MyUpperCom.obj
 0001:000551e0       ?ProcessForSend@MyCenterCom@@QAEHXZ 004561e0 f   S06_MyUpperCom.obj
 0001:00055270       ?SearchAvatarforGM@MyCenterCom@@QAEHPBD@Z 00456270 f   S06_MyUpperCom.obj
 0001:000552e0       ?SendToLogServer@MyGameLog@@QAEXH@Z 004562e0 f   S06_MyUpperCom.obj
 0001:00055350       ?Start@MyCenterCom@@SAXPAX@Z 00456350 f   S06_MyUpperCom.obj
 0001:00055740       ?Start@MyRelayCom@@SAPAXPAX@Z 00456740 f   S06_MyUpperCom.obj
 0001:00055a80       ?U_ADD_AUTO_USER_LIST_SEND@MyPlayUserCom@@QAEXQAD0HH@Z 00456a80 f   S06_MyUpperCom.obj
 0001:00055c20       ?U_BLOCK_USER_FOR_ZONE_1_SEND@MyPlayUserCom@@QAEXHQAD@Z 00456c20 f   S06_MyUpperCom.obj
 0001:00055d90       ?U_BUY_BLOOD_ITEM_FOR_EXTRA_SEND@MyExtraCom@@QAEHH@Z 00456d90 f   S06_MyUpperCom.obj
 0001:00055e10       ?U_BUY_CASH_ITEM_FOR_EXTRA_SEND@MyExtraCom@@QAEHQADHHH0HHH@Z 00456e10 f   S06_MyUpperCom.obj
 0001:00055ef0       ?U_CHANGE_AVATAR_NAME_FOR_ZONE_SEND@MyPlayUserCom@@QAEXHPAD@Z 00456ef0 f   S06_MyUpperCom.obj
 0001:00056060       ?U_CHECK_KILL_OTHER_TRIBE_SEND@MyPlayUserCom@@QAEXQAD0@Z 00457060 f   S06_MyUpperCom.obj
 0001:000561f0       ?U_DEMAND_BROADCAST_DATA@MyRelayCom@@QAEXHQAE@Z 004571f0 f   S06_MyUpperCom.obj
 0001:000562c0       ?U_DEMAND_BROADCAST_INFO@MyCenterCom@@QAEXHQAE@Z 004572c0 f   S06_MyUpperCom.obj
 0001:00056390       ?U_DUPEFIX@MyPlayUserCom@@QAEXHQADPAUAVATAR_INFO@@PAUAUTH_INFO@@@Z 00457390 f   S06_MyUpperCom.obj
 0001:00056540       ?U_FIND_AVATAR_FOR_ZONE_SEND@MyPlayUserCom@@QAEXQAD@Z 00457540 f   S06_MyUpperCom.obj
 0001:000566b0       ?U_GET_CASH_ITEM_INFO_FOR_EXTRA_SEND@MyExtraCom@@QAEHXZ 004576b0 f   S06_MyUpperCom.obj
 0001:00056730       ?U_GET_CASH_SIZE_FOR_EXTRA_SEND@MyExtraCom@@QAEHQADPAH1@Z 00457730 f   S06_MyUpperCom.obj
 0001:000567b0       ?U_GUILD_WORK_FOR_EXTRA_SEND@MyExtraCom@@QAEHHQAE@Z 004577b0 f   S06_MyUpperCom.obj
 0001:00056820       ?U_REGISTER_USER_FOR_ZONE_0_SEND@MyPlayUserCom@@QAEXQAD@Z 00457820 f   S06_MyUpperCom.obj
 0001:00056990       ?U_REGISTER_USER_FOR_ZONE_1_SEND@MyPlayUserCom@@QAEXHQAD0QAH@Z 00457990 f   S06_MyUpperCom.obj
 0001:00056b40       ?U_REGISTER_USER_FOR_ZONE_2_SEND@MyPlayUserCom@@QAEXHQADPAUAVATAR_INFO@@QAY01HPAUAUTH_INFO@@@Z 00457b40 f   S06_MyUpperCom.obj
 0001:00056d00       ?U_REGISTER_USER_FOR_ZONE_3_SEND@MyPlayUserCom@@QAEXHQADPAUAVATAR_INFO@@QAY01HPAUAUTH_INFO@@H@Z 00457d00 f   S06_MyUpperCom.obj
 0001:00056ec0       ?U_SET_MOVE_ITEM_FOR_ZONE_SEND@MyPlayUserCom@@QAEXHPAU_MOVE_ITEM_INFO@@@Z 00457ec0 f   S06_MyUpperCom.obj
 0001:00057020       ?U_TRIBE_BANK_INFO_LOAD_SEND@MyPlayUserCom@@QAEXHHH@Z 00458020 f   S06_MyUpperCom.obj
 0001:00057190       ?U_TRIBE_BANK_INFO_SAVE_SEND@MyPlayUserCom@@QAEXQAH@Z 00458190 f   S06_MyUpperCom.obj
 0001:000572f0       ?U_TRIBE_BANK_INFO_VIEW_SEND@MyPlayUserCom@@QAEXH@Z 004582f0 f   S06_MyUpperCom.obj
 0001:00057460       ?U_UNREGISTER_USER_FOR_ZONE_SEND@MyPlayUserCom@@QAEXHQADPAUAVATAR_INFO@@PAUAUTH_INFO@@@Z 00458460 f   S06_MyUpperCom.obj
 0001:00057610       ?U_UPDATE_CASH_ITEM_INFO_FOR_EXTRA_SEND@MyExtraCom@@QAEHXZ 00458610 f   S06_MyUpperCom.obj
 0001:00057670       ?U_VALET_CHECK_ONLINE@MyPlayUserCom@@QAEXHQAD@Z 00458670 f   S06_MyUpperCom.obj
 0001:000577e0       ?U_VALET_INFO@MyValetInfo@@QAEXHQAD@Z 004587e0 f   S06_MyUpperCom.obj
 0001:00057970       ?U_VALET_UPDATE@MyValetInfo@@QAEXQADPAUVALETSHOP_INFO@@@Z 00458970 f   S06_MyUpperCom.obj
 0001:00057af0       ?U_ZONE_OK_FOR_CENTER_SEND@MyCenterCom@@QAEXXZ 00458af0 f   S06_MyUpperCom.obj
 0001:00057ba0       ?U_ZONE_OK_FOR_EXTRA_SEND@MyExtraCom@@QAEHXZ 00458ba0 f   S06_MyUpperCom.obj
 0001:00057bd0       ?U_ZONE_OK_FOR_PLAYUSER_SEND@MyPlayUserCom@@QAEXXZ 00458bd0 f   S06_MyUpperCom.obj
 0001:00057bd0       ?U_ZONE_OK_FOR_VALET_SEND@MyValetInfo@@QAEXXZ 00458bd0 f   S06_MyUpperCom.obj
 0001:00057d20       ?U_ZONE_OK_FOR_RELAY_SEND@MyRelayCom@@QAEXXZ 00458d20 f   S06_MyUpperCom.obj
 0001:00057dd0       ?W_SHUTDOWN@MyCenterCom@@QAEXXZ 00458dd0 f   S06_MyUpperCom.obj
 0001:00057e10       ?W_UPDATE_CASH_ITEM_INFO_FOR_CENTER@MyCenterCom@@QAEXH@Z 00458e10 f   S06_MyUpperCom.obj
 0001:00057ed0       ?W_ZONE_OTHER_CONNECTION_INFO@MyCenterCom@@QAEXH@Z 00458ed0 f   S06_MyUpperCom.obj
 0001:00057f90       ?AddTribeBankInfo@MyGame@@QAEXHH@Z 00458f90 f   S07_MyGame01.obj
 0001:00057fd0       ?AdjustSymbolDamageInfo@MyGame@@QAEXXZ 00458fd0 f   S07_MyGame01.obj
 0001:000584c0       ?CPTower@MyGame@@QAEXXZ    004594c0 f   S07_MyGame01.obj
 0001:000586d0       ?CheckPossibleChangeToTribe4_2@MyGame@@QAEHH@Z 004596d0 f   S07_MyGame01.obj
 0001:00058720       ?CheckSmallTribeForAdvantage@MyGame@@QAEHH@Z 00459720 f   S07_MyGame01.obj
 0001:00058820       ?Decompress@MyGame@@QAEHKPAEK0@Z 00459820 f   S07_MyGame01.obj
 0001:00058850       ?GetLevelBattleRewardInfo@MyGame@@QAEXHHPAH0H@Z 00459850 f   S07_MyGame01.obj
 0001:00059490       ?GetZone175TypeRewardInfo@MyGame@@QAEXHHHPAH0@Z 0045a490 f   S07_MyGame01.obj
 0001:00059ac0       ?Init@MyGame@@QAEHXZ       0045aac0 f   S07_MyGame01.obj
 0001:0005c1d0       ?LifeorDeath@MyGame@@QAEXXZ 0045d1d0 f   S07_MyGame01.obj
 0001:0005c6f0       ?Logic@MyGame@@QAEXM@Z     0045d6f0 f   S07_MyGame01.obj
 0001:0005d250       ?ProcessForGuardState@MyGame@@QAEXXZ 0045e250 f   S07_MyGame01.obj
 0001:0005d680       ?Process_Zone_037@MyGame@@QAEXXZ 0045e680 f   S07_MyGame01.obj
 0001:0005d8e0       ?Process_Zone_038@MyGame@@QAEXXZ 0045e8e0 f   S07_MyGame01.obj
 0001:0005de20       ?Process_Zone_049_TYPE@MyGame@@QAEXXZ 0045ee20 f   S07_MyGame01.obj
 0001:0005e6e0       ?Process_Zone_051_TYPE@MyGame@@QAEXXZ 0045f6e0 f   S07_MyGame01.obj
 0001:0005ee70       ?Process_Zone_053_TYPE@MyGame@@QAEXXZ 0045fe70 f   S07_MyGame01.obj
 0001:0005f700       ?Process_Zone_124@MyGame@@QAEXXZ 00460700 f   S07_MyGame01.obj
 0001:0005fa50       ?Process_Zone_175_TYPE@MyGame@@QAEXXZ 00460a50 f   S07_MyGame01.obj
 0001:000623c0       ?Process_Zone_194@MyGame@@QAEXXZ 004633c0 f   S07_MyGame01.obj
 0001:00062b50       ?Process_Zone_195@MyGame@@QAEXXZ 00463b50 f   S07_MyGame01.obj
 0001:00062eb0       ?Process_Zone_200_TYPE@MyGame@@QAEXXZ 00463eb0 f   S07_MyGame01.obj
 0001:00063650       ?Process_Zone_267_TYPE@MyGame@@QAEXXZ 00464650 f   S07_MyGame01.obj
 0001:00064260       ?Process_Zone_Iblis@MyGame@@QAEXXZ 00465260 f   S07_MyGame01.obj
 0001:000643f0       ?ReturnAlliance@MyGame@@QAEHH@Z 004653f0 f   S07_MyGame01.obj
 0001:00064440       ?ReturnAllianceTribe@MyGame@@QAEHH@Z 00465440 f   S07_MyGame01.obj
 0001:000644a0       ?ReturnLevelWarReward3@MyGame@@QAEXHHPAH0@Z 004654a0 f   S07_MyGame01.obj
 0001:00064bc0       ?ReturnSmallTribe@MyGame@@QAEHXZ 00465bc0 f   S07_MyGame01.obj
 0001:00064c10       ?ReturnSymbolDamageDown@MyGame@@QAEMH@Z 00465c10 f   S07_MyGame01.obj
 0001:00064c60       ?ReturnSymbolDamageUp@MyGame@@QAEHH@Z 00465c60 f   S07_MyGame01.obj
 0001:00064cb0       ?ReturnTribeForSymbol@MyGame@@QAEHH@Z 00465cb0 f   S07_MyGame01.obj
 0001:00064d10       ?ReturnTribePointWithAlliance@MyGame@@QAEHH@Z 00465d10 f   S07_MyGame01.obj
 0001:00064de0       ?ReturnTribeRole@MyGame@@QAEHQADH@Z 00465de0 f   S07_MyGame01.obj
 0001:00064e90       ?ReturnTribeSubMasterNum@MyGame@@QAEHH@Z 00465e90 f   S07_MyGame01.obj
 0001:00064f00       _printf_s                  00465f00 f i S07_MyGame01.obj
 0001:00064f30       ?CheckPossibleAttackTarget@MyGame@@QAEHHH@Z 00465f30 f   S07_MyGame02.obj
 0001:00064f80       ?ProcessAttack01@MyGame@@QAEXHPAUATTACK_FOR_PROTOCOL@@@Z 00465f80 f   S07_MyGame02.obj
 0001:00065da0       ?ProcessAttack02@MyGame@@QAEXHPAUATTACK_FOR_PROTOCOL@@@Z 00466da0 f   S07_MyGame02.obj
 0001:00067280       ?ProcessAttack03@MyGame@@QAEXHPAUATTACK_FOR_PROTOCOL@@@Z 00468280 f   S07_MyGame02.obj
 0001:00068f60       ?ProcessAttack04@MyGame@@QAEXHPAUATTACK_FOR_PROTOCOL@@@Z 00469f60 f   S07_MyGame02.obj
 0001:00069fd0       ?ProcessAttack05@MyGame@@QAEXHPAUATTACK_FOR_PROTOCOL@@@Z 0046afd0 f   S07_MyGame02.obj
 0001:0006a410       ?ProcessAttack06@MyGame@@QAEXHPAUATTACK_FOR_PROTOCOL@@@Z 0046b410 f   S07_MyGame02.obj
 0001:0006a690       ?getCriticalAttackDefValue@MyGame@@AAEIPAVAVATAR_OBJECT@@0@Z 0046b690 f   S07_MyGame02.obj
 0001:0006a6c0       ??$?6U?$char_traits@D@std@@@std@@YAAAV?$basic_ostream@DU?$char_traits@D@std@@@0@AAV10@D@Z 0046b6c0 f i S07_MyGame03.obj
 0001:0006a970       ?Broadcast@MyUtil@@QAEXHQAMHH_NH@Z 0046b970 f   S07_MyGame03.obj
 0001:0006ab60       ?Broadcast@MyUtil@@QAEXHQAMH_NH@Z 0046bb60 f   S07_MyGame03.obj
 0001:0006ad90       ?CHANGESOCKET1@MyUtil@@QAEHHH@Z 0046bd90 f   S07_MyGame03.obj
 0001:0006ad90       ?CHANGESOCKET3@MyUtil@@QAEHHH@Z 0046bd90 f   S07_MyGame03.obj
 0001:0006ad90       ?CHANGESOCKET5@MyUtil@@QAEHHH@Z 0046bd90 f   S07_MyGame03.obj
 0001:0006adb0       ?CHANGESOCKET1DEGER@MyUtil@@QAEHHH@Z 0046bdb0 f   S07_MyGame03.obj
 0001:0006adb0       ?CHANGESOCKET3DEGER@MyUtil@@QAEHHH@Z 0046bdb0 f   S07_MyGame03.obj
 0001:0006adb0       ?CHANGESOCKET5DEGER@MyUtil@@QAEHHH@Z 0046bdb0 f   S07_MyGame03.obj
 0001:0006add0       ?CHANGESOCKET2@MyUtil@@QAEHHH@Z 0046bdd0 f   S07_MyGame03.obj
 0001:0006add0       ?CHANGESOCKET4@MyUtil@@QAEHHH@Z 0046bdd0 f   S07_MyGame03.obj
 0001:0006adf0       ?CHANGESOCKET2DEGER@MyUtil@@QAEHHH@Z 0046bdf0 f   S07_MyGame03.obj
 0001:0006adf0       ?CHANGESOCKET4DEGER@MyUtil@@QAEHHH@Z 0046bdf0 f   S07_MyGame03.obj
 0001:0006ae10       ?ChangeEngraveValue@MyUtil@@QAEHHH@Z 0046be10 f   S07_MyGame03.obj
 0001:0006ae30       ?ChangeIBValue@MyUtil@@QAEHHH@Z 0046be30 f   S07_MyGame03.obj
 0001:0006ae50       ?ChangeISValue@MyUtil@@QAEHHH@Z 0046be50 f   S07_MyGame03.obj
 0001:0006ae70       ?ChangeIUValue@MyUtil@@QAEHHH@Z 0046be70 f   S07_MyGame03.obj
 0001:0006ae90       ?CheckInRange@MyUtil@@QAEHQAM0M@Z 0046be90 f   S07_MyGame03.obj
 0001:0006aee0       ?CheckInvenForItem@MyUtil@@QAE_NPAHPAUITEM_INFO@@0000@Z 0046bee0 f   S07_MyGame03.obj
 0001:0006b1b0       ?CheckNameString@MyUtil@@QAEHPAD@Z 0046c1b0 f   S07_MyGame03.obj
 0001:0006b2f0       ?CheckOverMaximum@MyUtil@@QAEHHH@Z 0046c2f0 f   S07_MyGame03.obj
 0001:0006b330       ?CheckPVNumber@MyUtil@@QAEHH@Z 0046c330 f   S07_MyGame03.obj
 0001:0006b370       ?CheckPossibleEquipItem@MyUtil@@QAEHHHHH@Z 0046c370 f   S07_MyGame03.obj
 0001:0006b3e0       ?CheckRAttackRange@MyUtil@@QAE_NHHQAM0M@Z 0046c3e0 f   S07_MyGame03.obj
 0001:0006b760       ?CheckSkillNumber@MyUtil@@QAE_NH@Z 0046c760 f   S07_MyGame03.obj
 0001:0006b8e0       ?DropItemForKillOtherTribe@MyUtil@@QAEXHHH@Z 0046c8e0 f   S07_MyGame03.obj
 0001:0006bd30       ?FindEmptyInvenForItem@MyUtil@@QAE_NHPAUITEM_INFO@@AAH1@Z 0046cd30 f   S07_MyGame03.obj
 0001:0006bfe0       ?GetDoubleXYZ@MyUtil@@QAEMQAM0@Z 0046cfe0 f   S07_MyGame03.obj
 0001:0006c030       ?GetDoubleX_Z@MyUtil@@QAEMQAM0@Z 0046d030 f   S07_MyGame03.obj
 0001:0006c070       ?GetEmptyInvenSlotIndex@MyUtil@@QAEHHH@Z 0046d070 f   S07_MyGame03.obj
 0001:0006c0c0       ?GetLengthXYZ@MyUtil@@QAEMQAM0@Z 0046d0c0 f   S07_MyGame03.obj
 0001:0006c140       ?GetYAngle@MyUtil@@QAEMMMMM@Z 0046d140 f   S07_MyGame03.obj
 0001:0006c290       ?ProcessForDropItem@MyUtil@@QAEHHHHHHQAMQADHQAH@Z 0046d290 f   S07_MyGame03.obj
 0001:0006d290       ?ProcessForExperience@MyUtil@@QAEXHHHH@Z 0046e290 f   S07_MyGame03.obj
 0001:0006dc00       ?ProcessForKillOtherTribe@MyUtil@@QAEXHHH@Z 0046ec00 f   S07_MyGame03.obj
 0001:0006e630       ?ProcessForLevelBonusSend@MyUtil@@QAEXHH@Z 0046f630 f   S07_MyGame03.obj
 0001:0006ea20       ?RandomNumber@MyUtil@@QAEHXZ 0046fa20 f   S07_MyGame03.obj
 0001:0006ea60       ?RandomNumber@MyUtil@@QAEMMM@Z 0046fa60 f   S07_MyGame03.obj
 0001:0006eac0       ?ReturnAddDate@MyUtil@@QAEHHH@Z 0046fac0 f   S07_MyGame03.obj
 0001:0006ebe0       ?ReturnFixedLevel@MyUtil@@QAEHH@Z 0046fbe0 f   S07_MyGame03.obj
 0001:0006ef00       ?ReturnHealthState@MyUtil@@QAEHH@Z 0046ff00 f   S07_MyGame03.obj
 0001:0006ef50       ?ReturnIBValue@MyUtil@@QAEHH@Z 0046ff50 f   S07_MyGame03.obj
 0001:0006ef50       ?SOCKET1@MyUtil@@QAEHH@Z   0046ff50 f   S07_MyGame03.obj
 0001:0006ef50       ?SOCKET3@MyUtil@@QAEHH@Z   0046ff50 f   S07_MyGame03.obj
 0001:0006ef50       ?SOCKET5@MyUtil@@QAEHH@Z   0046ff50 f   S07_MyGame03.obj
 0001:0006ef60       ?ReturnICValue@MyUtil@@QAEHH@Z 0046ff60 f   S07_MyGame03.obj
 0001:0006ef70       ?ReturnISValue@MyUtil@@QAEHH@Z 0046ff70 f   S07_MyGame03.obj
 0001:0006ef70       ?SOCKET2@MyUtil@@QAEHH@Z   0046ff70 f   S07_MyGame03.obj
 0001:0006ef70       ?SOCKET4@MyUtil@@QAEHH@Z   0046ff70 f   S07_MyGame03.obj
 0001:0006ef80       ?ReturnISValueWithLevelLimit@MyUtil@@QAEHHH@Z 0046ff80 f   S07_MyGame03.obj
 0001:0006f0b0       ?ReturnIUEffectValue@MyUtil@@QAEHPAUITEM_INFO@@H@Z 004700b0 f   S07_MyGame03.obj
 0001:0006f960       ?ReturnIUValue@MyUtil@@QAEHH@Z 00470960 f   S07_MyGame03.obj
 0001:0006f970       ?ReturnIUValueWithLevelLimit@MyUtil@@QAEHHH@Z 00470970 f   S07_MyGame03.obj
 0001:0006fad0       ?ReturnItemRecognitionNumber@MyUtil@@QAEHH@Z 00470ad0 f   S07_MyGame03.obj
 0001:0006fce0       ?ReturnLengthXYZ@MyUtil@@QAEMQAM0@Z 00470ce0 f   S07_MyGame03.obj
 0001:0006fdb0       ?ReturnNowDate@MyUtil@@QAEHXZ 00470db0 f   S07_MyGame03.obj
 0001:0006fe40       ?ReturnSubDate@MyUtil@@QAEHHH@Z 00470e40 f   S07_MyGame03.obj
 0001:00070050       ?ReturnVoteDate@MyUtil@@QAEHXZ 00471050 f   S07_MyGame03.obj
 0001:000700e0       ?SearchAvatar@MyUtil@@QAEHQADH@Z 004710e0 f   S07_MyGame03.obj
 0001:00070160       ?SearchValetShop@MyUtil@@QAEHHQAD@Z 00471160 f   S07_MyGame03.obj
 0001:00070220       ?SetISIUValue@MyUtil@@QAEHHH@Z 00471220 f   S07_MyGame03.obj
 0001:00070240       __snprintf                 00471240 f i S07_MyGame03.obj
 0001:00070280       ?AutoBuff@AVATAR_OBJECT@@QAEXH@Z 00471280 f   S07_MyGame04.obj
 0001:000706b0       ?ChangeQuestItem@AVATAR_OBJECT@@QAEHHH@Z 004716b0 f   S07_MyGame04.obj
 0001:00070790       ?CheckCommunityWork@AVATAR_OBJECT@@QAEHXZ 00471790 f   S07_MyGame04.obj
 0001:000707e0       ?CheckSkillForWeapon@AVATAR_OBJECT@@QAEHH@Z 004717e0 f   S07_MyGame04.obj
 0001:00070a60       ?DeleteQuestItem@AVATAR_OBJECT@@QAEHH@Z 00471a60 f   S07_MyGame04.obj
 0001:00070b80       ?GetAttackBlock@AVATAR_OBJECT@@QAEHXZ 00471b80 f   S07_MyGame04.obj
 0001:00070bb0       ?GetAttackPower@AVATAR_OBJECT@@QAEHXZ 00471bb0 f   S07_MyGame04.obj
 0001:00070d20       ?GetAttackSuccess@AVATAR_OBJECT@@QAEHXZ 00471d20 f   S07_MyGame04.obj
 0001:00070d60       ?GetBonusSkillValue@AVATAR_OBJECT@@QAEHH@Z 00471d60 f   S07_MyGame04.obj
 0001:00070e00       ?GetCritical@AVATAR_OBJECT@@QAEHXZ 00471e00 f   S07_MyGame04.obj
 0001:00070e30       ?GetCriticalDefense@AVATAR_OBJECT@@QAEHXZ 00471e30 f   S07_MyGame04.obj
 0001:00070e40       ?GetDefensePower@AVATAR_OBJECT@@QAEHXZ 00471e40 f   S07_MyGame04.obj
 0001:00070ef0       ?GetElementAttackPower@AVATAR_OBJECT@@QAEHXZ 00471ef0 f   S07_MyGame04.obj
 0001:00070f20       ?GetElementDefensePower@AVATAR_OBJECT@@QAEHXZ 00471f20 f   S07_MyGame04.obj
 0001:00070f50       ?GetLuck@AVATAR_OBJECT@@QAEHXZ 00471f50 f   S07_MyGame04.obj
 0001:00070fb0       ?GetMaxLife@AVATAR_OBJECT@@QAEHXZ 00471fb0 f   S07_MyGame04.obj
 0001:00070fc0       ?GetMaxMana@AVATAR_OBJECT@@QAEHXZ 00471fc0 f   S07_MyGame04.obj
 0001:00070fd0       ?GetReduceManaRatio@AVATAR_OBJECT@@QAEHXZ 00471fd0 f   S07_MyGame04.obj
 0001:00070ff0       ?GetWeaponClass@AVATAR_OBJECT@@QAEHXZ 00471ff0 f   S07_MyGame04.obj
 0001:00071040       ?IsUsedOrnament@AVATAR_OBJECT@@QAEHXZ 00472040 f   S07_MyGame04.obj
 0001:000710c0       ?ProcessForCreateEffectValue@AVATAR_OBJECT@@QAEXPAUACTION_INFO@@@Z 004720c0 f   S07_MyGame04.obj
 0001:00072d20       ?ProcessForDeath@AVATAR_OBJECT@@QAEXXZ 00473d20 f   S07_MyGame04.obj
 0001:00072e50       ?ProcessForDeleteEffectValue@AVATAR_OBJECT@@QAEXXZ 00473e50 f   S07_MyGame04.obj
 0001:00072fa0       ?ProcessForTradeInfo@AVATAR_OBJECT@@QAEXXZ 00473fa0 f   S07_MyGame04.obj
 0001:00073080       ?ReturnItemNumberForQuestReward@AVATAR_OBJECT@@QAEHXZ 00474080 f   S07_MyGame04.obj
 0001:000730d0       ?ReturnItemQuantityForQuestReward@AVATAR_OBJECT@@QAEHXZ 004740d0 f   S07_MyGame04.obj
 0001:00073140       ?ReturnQuestEndConditionState@AVATAR_OBJECT@@QAEHXZ 00474140 f   S07_MyGame04.obj
 0001:000731c0       ?ReturnQuestPresentState@AVATAR_OBJECT@@QAEHXZ 004741c0 f   S07_MyGame04.obj
 0001:000734a0       ?SetBasicAbilityFromEquip@AVATAR_OBJECT@@QAEXXZ 004744a0 f   S07_MyGame04.obj
 0001:00073be0       ?SetSpaceIndex@AVATAR_OBJECT@@QAEXXZ 00474be0 f   S07_MyGame04.obj
 0001:00073c50       ?Update@AVATAR_OBJECT@@QAEXM@Z 00474c50 f   S07_MyGame04.obj
 0001:00075f00       ?A002@MONSTER_OBJECT@@AAEXHM@Z 00476f00 f   S07_MyGame05.obj
 0001:00076e50       ?A002_FOR_ZONE_175_TYPE_BOSS@MONSTER_OBJECT@@AAEXHM@Z 00477e50 f   S07_MyGame05.obj
 0001:00077440       ?A004@MONSTER_OBJECT@@AAEXHM@Z 00478440 f   S07_MyGame05.obj
 0001:000775c0       ?A005@MONSTER_OBJECT@@AAEXHM@Z 004785c0 f   S07_MyGame05.obj
 0001:000778e0       ?A005_FOR_ZONE_175_TYPE_BOSS@MONSTER_OBJECT@@AAEXHM@Z 004788e0 f   S07_MyGame05.obj
 0001:00077ad0       ?A013@MONSTER_OBJECT@@AAEXHM@Z 00478ad0 f   S07_MyGame05.obj
 0001:00077e90       ?AdjustValidAttackTarget@MONSTER_OBJECT@@AAEXXZ 00478e90 f   S07_MyGame05.obj
 0001:000781a0       ?ProcessForDropItem@MONSTER_OBJECT@@QAEXH@Z 004791a0 f   S07_MyGame05.obj
 0001:00079cb0       ?SelectAvatarIndexForAttackAction@MONSTER_OBJECT@@AAEHXZ 0047acb0 f   S07_MyGame05.obj
 0001:00079e60       ?SelectAvatarIndexForMaxAttackDamage@MONSTER_OBJECT@@QAEHXZ 0047ae60 f   S07_MyGame05.obj
 0001:00079f30       ?SelectAvatarIndexForPossibleAttack@MONSTER_OBJECT@@AAEHXZ 0047af30 f   S07_MyGame05.obj
 0001:0007a110       ?SelectAvatarIndexForPossibleAttackForZone175TypeBoss@MONSTER_OBJECT@@AAEXXZ 0047b110 f   S07_MyGame05.obj
 0001:0007a330       ?SelectAvatarIndexForThrowCarAttack@MONSTER_OBJECT@@AAEHXZ 0047b330 f   S07_MyGame05.obj
 0001:0007a550       ?SetAttackInfoWithAvatar@MONSTER_OBJECT@@QAEXHKPAH@Z 0047b550 f   S07_MyGame05.obj
 0001:0007a670       ?SetSpaceIndex@MONSTER_OBJECT@@QAEXXZ 0047b670 f   S07_MyGame05.obj
 0001:0007a6b0       ?Update@MONSTER_OBJECT@@QAEXHM@Z 0047b6b0 f   S07_MyGame05.obj
 0001:0007a9d0       ?CheckNPCFunction@ZONENPCINFO@@QAEHQAMH@Z 0047b9d0 f   S07_MyGame06.obj
 0001:0007aa90       ?CheckPossibleGetItem@ITEM_OBJECT@@QAEHH@Z 0047ba90 f   S07_MyGame06.obj
 0001:0007ab80       ?Init@ZONEMAININFO@@QAEHXZ 0047bb80 f   S07_MyGame06.obj
 0001:0007bba0       ?Init@ZONENPCINFO@@QAEHXZ  0047cba0 f   S07_MyGame06.obj
 0001:0007bc20       ?ReturnMaxZoneLevelInfo@ZONEMAININFO@@QAEHH@Z 0047cc20 f   S07_MyGame06.obj
 0001:0007bc40       ?ReturnMinZoneLevelInfo@ZONEMAININFO@@QAEHH@Z 0047cc40 f   S07_MyGame06.obj
 0001:0007bc60       ?ReturnZoneTribeInfo2@ZONEMAININFO@@QAEHH@Z 0047cc60 f   S07_MyGame06.obj
 0001:0007bc90       ?SetSpaceIndex@ITEM_OBJECT@@QAEXXZ 0047cc90 f   S07_MyGame06.obj
 0001:0007bcd0       ?Update@ITEM_OBJECT@@QAEXH@Z 0047ccd0 f   S07_MyGame06.obj
 0001:0007bd40       ?ProcessForBroadcastInfo@MyGame@@QAEXHQAE@Z 0047cd40 f   S07_MyGame07.obj
 0001:0007dd90       ?KarakterAtak@AVATAR_OBJECT@@QAEHXZ 0047ed90 f   AtakPower.obj
 0001:0007ee20       ?SetSpaceIndex@SHOP_OBJECT@@QAEXXZ 0047fe20 f   S07_MyGame08.obj
 0001:0007ee60       ?Update@SHOP_OBJECT@@QAEXH@Z 0047fe60 f   S07_MyGame08.obj
 0001:0007ef80       ?CheckValidElement@ITEMSYSTEM@@AAEHH@Z 0047ff80 f   S08_MyGameSystem.obj
 0001:0007f560       ?CheckValidElement@LEVELSYSTEM@@AAEHH@Z 00480560 f   S08_MyGameSystem.obj
 0001:0007f6d0       ?CheckValidElement@MONSTERSYSTEM@@AAEHH@Z 004806d0 f   S08_MyGameSystem.obj
 0001:0007fb10       ?CheckValidElement@NPCSYSTEM@@AAEHH@Z 00480b10 f   S08_MyGameSystem.obj
 0001:0007fd70       ?CheckValidElement@QUESTSYSTEM@@AAEHH@Z 00480d70 f   S08_MyGameSystem.obj
 0001:00080080       ?CheckValidElement@SKILLSYSTEM@@AAEHH@Z 00481080 f   S08_MyGameSystem.obj
 0001:000803c0       ?GetSkillByTribeInfo@ITEMSYSTEM@@QAEPAUITEM_INFO@@HHHH@Z 004813c0 f   S08_MyGameSystem.obj
 0001:00080500       ?Init@ITEMSYSTEM@@QAEHPAD@Z 00481500 f   S08_MyGameSystem.obj
 0001:00080b10       ?Init@LEVELSYSTEM@@QAEHPAD@Z 00481b10 f   S08_MyGameSystem.obj
 0001:00080c90       ?Init@MONSTERSYSTEM@@QAEHPAD@Z 00481c90 f   S08_MyGameSystem.obj
 0001:00080f30       ?Init@NPCSYSTEM@@QAEHPAD@Z 00481f30 f   S08_MyGameSystem.obj
 0001:000811d0       ?Init@QUESTSYSTEM@@QAEHPAD@Z 004821d0 f   S08_MyGameSystem.obj
 0001:00081490       ?Init@SKILLSYSTEM@@QAEHPAD@Z 00482490 f   S08_MyGameSystem.obj
 0001:00081650       ?Init@SOCKETSYSTEM@@QAEHPAD@Z 00482650 f   S08_MyGameSystem.obj
 0001:00081940       ?PetExp200@PATSYSTEM@@QAEHHHH@Z 00482940 f   S08_MyGameSystem.obj
 0001:00081b40       ?Return@ITEMSYSTEM@@QAEPAUITEM_INFO@@HHH@Z 00482b40 f   S08_MyGameSystem.obj
 0001:00081c70       ?Return@ITEMSYSTEM@@QAEPAUITEM_INFO@@HHHPAU2@@Z 00482c70 f   S08_MyGameSystem.obj
 0001:00081de0       ?ReturnAttackPower@PATSYSTEM@@QAEMHHH@Z 00482de0 f   S08_MyGameSystem.obj
 0001:000820f0       ?ReturnAttackType@SKILLSYSTEM@@QAEHH@Z 004830f0 f   S08_MyGameSystem.obj
 0001:00082130       ?ReturnDefensePower@PATSYSTEM@@QAEMHHH@Z 00483130 f   S08_MyGameSystem.obj
 0001:00082410       ?ReturnEpicPets@PATSYSTEM@@QAEMH@Z 00483410 f   S08_MyGameSystem.obj
 0001:000827b0       ?ReturnGainExpForKillOtherTribe@LEVELSYSTEM@@QAEHHH@Z 004837b0 f   S08_MyGameSystem.obj
 0001:00082830       ?ReturnGrowStep@PATSYSTEM@@QAEMHH@Z 00483830 f   S08_MyGameSystem.obj
 0001:000829c0       ?ReturnHighExpValue@LEVELSYSTEM@@QAEHH@Z 004839c0 f   S08_MyGameSystem.obj
 0001:000829e0       ?ReturnLegandryPets@PATSYSTEM@@QAEMH@Z 004839e0 f   S08_MyGameSystem.obj
 0001:00082ae0       ?ReturnLevel@LEVELSYSTEM@@QAEHH@Z 00483ae0 f   S08_MyGameSystem.obj
 0001:00082b30       ?ReturnLevelFactor1@LEVELSYSTEM@@QAEHH@Z 00483b30 f   S08_MyGameSystem.obj
 0001:00082b60       ?ReturnLevelFactor2@LEVELSYSTEM@@QAEHH@Z 00483b60 f   S08_MyGameSystem.obj
 0001:00082b90       ?ReturnLevelFactor3@LEVELSYSTEM@@QAEHH@Z 00483b90 f   S08_MyGameSystem.obj
 0001:00082bc0       ?ReturnLevelFactorAttackBlock@LEVELSYSTEM@@QAEHH@Z 00483bc0 f   S08_MyGameSystem.obj
 0001:00082bf0       ?ReturnLevelFactorAttackPower@LEVELSYSTEM@@QAEHH@Z 00483bf0 f   S08_MyGameSystem.obj
 0001:00082c20       ?ReturnLevelFactorAttackSuccess@LEVELSYSTEM@@QAEHH@Z 00483c20 f   S08_MyGameSystem.obj
 0001:00082c50       ?ReturnLevelFactorDefensePower@LEVELSYSTEM@@QAEHH@Z 00483c50 f   S08_MyGameSystem.obj
 0001:00082c80       ?ReturnLevelFactorElementAttack@LEVELSYSTEM@@QAEHH@Z 00483c80 f   S08_MyGameSystem.obj
 0001:00082cb0       ?ReturnLevelFactorLife@LEVELSYSTEM@@QAEHH@Z 00483cb0 f   S08_MyGameSystem.obj
 0001:00082ce0       ?ReturnLevelFactorMana@LEVELSYSTEM@@QAEHH@Z 00483ce0 f   S08_MyGameSystem.obj
 0001:00082d10       ?ReturnLifeValue@PATSYSTEM@@QAEMHH@Z 00483d10 f   S08_MyGameSystem.obj
 0001:00082f70       ?ReturnManaValue@PATSYSTEM@@QAEMHH@Z 00483f70 f   S08_MyGameSystem.obj
 0001:00083170       ?ReturnMaxPetExp@PATSYSTEM@@QAEHH@Z 00484170 f   S08_MyGameSystem.obj
 0001:00083280       ?ReturnNewPetCombine@PATSYSTEM@@QAEMHHH@Z 00484280 f   S08_MyGameSystem.obj
 0001:000836a0       ?ReturnNewPets@PATSYSTEM@@QAEHHHH@Z 004846a0 f   S08_MyGameSystem.obj
 0001:00083a70       ?ReturnRareItem1@ITEMSYSTEM@@QAEPAUITEM_INFO@@HHH@Z 00484a70 f   S08_MyGameSystem.obj
 0001:00083c30       ?ReturnRareItem@ITEMSYSTEM@@QAEPAUITEM_INFO@@HHH@Z 00484c30 f   S08_MyGameSystem.obj
 0001:00083d00       ?ReturnSkillValue@SKILLSYSTEM@@QAEMHHH@Z 00484d00 f   S08_MyGameSystem.obj
 0001:00083fa0       ?Return_1@ITEMSYSTEM@@QAEPAUITEM_INFO@@HPAU2@@Z 00484fa0 f   S08_MyGameSystem.obj
 0001:00084100       ?Return_2@ITEMSYSTEM@@QAEPAUITEM_INFO@@HPAU2@@Z 00485100 f   S08_MyGameSystem.obj
 0001:00084260       ?Search@ITEMSYSTEM@@QAEPAUITEM_INFO@@H@Z 00485260 f   S08_MyGameSystem.obj
 0001:000842a0       ?Search@MONSTERSYSTEM@@QAEPAUMONSTER_INFO@@H@Z 004852a0 f   S08_MyGameSystem.obj
 0001:000842d0       ?Search@MONSTERSYSTEM@@QAEPAUMONSTER_INFO@@HH@Z 004852d0 f   S08_MyGameSystem.obj
 0001:00084330       ?Search@NPCSYSTEM@@QAEPAUNPC_INFO@@H@Z 00485330 f   S08_MyGameSystem.obj
 0001:00084360       ?Search@QUESTSYSTEM@@QAEPAUQUEST_INFO@@HH@Z 00485360 f   S08_MyGameSystem.obj
 0001:000843f0       ?Search@SKILLSYSTEM@@QAEPAUSKILL_INFO@@H@Z 004853f0 f   S08_MyGameSystem.obj
 0001:00084420       ?Search@SOCKETSYSTEM@@QAEPAUSOCKET_INFO@@HH@Z 00485420 f   S08_MyGameSystem.obj
 0001:00084470       ?CheckPointInWorldWithoutYCoord@WORLD_FOR_GXD@@AAEHQAM@Z 00485470 f   S09_MyWorld.obj
 0001:00084670       ?Free@WORLD_FOR_GXD@@QAEXXZ 00485670 f   S09_MyWorld.obj
 0001:000846e0       ?GetYCoord@WORLD_FOR_GXD@@QAEHMMPAMHMHH@Z 004856e0 f   S09_MyWorld.obj
 0001:00084a30       ?LoadWM@WORLD_FOR_GXD@@QAEHXZ 00485a30 f   S09_MyWorld.obj
 0001:00084e20       ?Move@WORLD_FOR_GXD@@QAEHQAM0MMPAH@Z 00485e20 f   S09_MyWorld.obj
 0001:00084fb0       ?Path@WORLD_FOR_GXD@@QAEXQAM0MM0@Z 00485fb0 f   S09_MyWorld.obj
 0001:00085250       ?PathForMonsterAttack@WORLD_FOR_GXD@@QAEHQAM0MM0M0@Z 00486250 f   S09_MyWorld.obj
 0001:00085480       ?CHANGECPTower@MySummonSystem@@QAEHHHQAM@Z 00486480 f   S10_MySummonSystem.obj
 0001:00085810       ?DeleteMonster@MySummonSystem@@QAEXXZ 00486810 f   S10_MySummonSystem.obj
 0001:00085840       ?Init@MySummonSystem@@QAEXXZ 00486840 f   S10_MySummonSystem.obj
 0001:000859c0       ?LoadRegionInfo_1@MySummonSystem@@AAEXPAD@Z 004869c0 f   S10_MySummonSystem.obj
 0001:00085bc0       ?MonsterForZone38@MySummonSystem@@QAEHHQAM@Z 00486bc0 f   S10_MySummonSystem.obj
 0001:00085f60       ?ReturnSpecialSortNumber@MySummonSystem@@QAEHPAUMONSTER_INFO@@@Z 00486f60 f   S10_MySummonSystem.obj
 0001:00086020       ?SummonBossMonster@MySummonSystem@@QAEXXZ 00487020 f   S10_MySummonSystem.obj
 0001:000863f0       ?SummonGuard@MySummonSystem@@QAEXHH@Z 004873f0 f   S10_MySummonSystem.obj
 0001:00087270       ?SummonMonster@MySummonSystem@@QAEXXZ 00488270 f   S10_MySummonSystem.obj
 0001:000877f0       ?SummonMonsterForSpecial@MySummonSystem@@QAEXHQAMHH@Z 004887f0 f   S10_MySummonSystem.obj
 0001:00087c00       ?SummonMonsterForTribeWeapon@MySummonSystem@@QAEHHQAM@Z 00488c00 f   S10_MySummonSystem.obj
 0001:00088010       ?SummonMonsterForZone175Type@MySummonSystem@@QAEXXZ 00489010 f   S10_MySummonSystem.obj
 0001:000883e0       ?SummonMonsterWithoutTimeLimit@MySummonSystem@@QAEXXZ 004893e0 f   S10_MySummonSystem.obj
 0001:00088980       ?SummonMonsterWithoutTimeLimitForZone175Type@MySummonSystem@@QAEXH@Z 00489980 f   S10_MySummonSystem.obj
 0001:00088df0       ?SummonTribeSymbol@MySummonSystem@@QAEXXZ 00489df0 f   S10_MySummonSystem.obj
 0001:000895d0       ??0?$TGA_IMAGE@$0CA@$0CA@$0CA@@@QAE@XZ 0048a5d0 f i S11_Sphinx.obj
 0001:000895e0       ??1?$TGA_IMAGE@$0CA@$0CA@$0CA@@@QAE@XZ 0048a5e0 f i S11_Sphinx.obj
 0001:000895e0       ?_Lock@?$basic_streambuf@DU?$char_traits@D@std@@@std@@UAEXXZ 0048a5e0 f i libcpmt:cout.obj
 0001:000895e0       ?_Unlock@?$basic_streambuf@DU?$char_traits@D@std@@@std@@UAEXXZ 0048a5e0 f i libcpmt:cout.obj
 0001:000895e0       @_guard_check_icall_nop@4  0048a5e0 f i LIBCMT:guard_support.obj
 0001:000895e0       __Mtx_destroy_in_situ      0048a5e0 f i libcpmt:mutex.obj
 0001:000895e0       ___sanitizer_annotate_contiguous_container 0048a5e0 f i libcpmt:asan_noop.obj
 0001:000895e0       ___sanitizer_annotate_contiguous_container_default 0048a5e0 f i libcpmt:asan_noop.obj
 0001:000895e0       __initialize_denormal_control 0048a5e0 f i LIBCMT:denormal_control.obj
 0001:000895e0       __initialize_invalid_parameter_handler 0048a5e0 f i LIBCMT:invalid_parameter_handler.obj
 0001:000895f0       ??_ECSphinx@@UAEPAXI@Z     0048a5f0 f i S11_Sphinx.obj
 0001:000895f0       ??_GCSphinx@@UAEPAXI@Z     0048a5f0 f i S11_Sphinx.obj
 0001:00089670       ?RefineSystem@AVATAR_OBJECT@@QAEHH@Z 0048a670 f   Socket and Refine.obj
 0001:00089910       ?Socket@AVATAR_OBJECT@@QAEHHHHH@Z 0048a910 f   Socket and Refine.obj
 0001:000899f0       ?SocketOzellikler@AVATAR_OBJECT@@QAEHHHH@Z 0048a9f0 f   Socket and Refine.obj
 0001:00089f00       ?GetOneValueFromFile@@YAHPAXPADH@Z 0048af00 f   Server_Map.obj
 0001:00089f90       ?ReadServerInfo@@YAHXZ     0048af90 f   Server_Map.obj
 0001:0008a900       ?ReadServerInfoUpdate@@YAHXZ 0048b900 f   Server_Map.obj
 0001:0008b120       ?TimerProc@@YGXPAUHWND__@@IIK@Z 0048c120 f   Server_Map.obj
 0001:0008b150       ?WindowProc@@YGJPAUHWND__@@IIJ@Z 0048c150 f   Server_Map.obj
 0001:0008b1b0       _main                      0048c1b0 f   Server_Map.obj
 0001:0008b8e0       _uncompress                0048c8e0 f   zlib:uncompr.obj
 0001:0008b990       _inflate                   0048c990 f   zlib:inflate.obj
 0001:0008cfb0       _inflateEnd                0048dfb0 f   zlib:inflate.obj
 0001:0008d000       _inflateInit2_             0048e000 f   zlib:inflate.obj
 0001:0008d0e0       _inflateInit_              0048e0e0 f   zlib:inflate.obj
 0001:0008d100       _inflateReset              0048e100 f   zlib:inflate.obj
 0001:0008d2a0       _adler32                   0048e2a0 f   zlib:adler32.obj
 0001:0008d520       _crc32                     0048e520 f   zlib:crc32.obj
 0001:0008d7e0       _zcalloc                   0048e7e0 f   zlib:zutil.obj
 0001:0008d800       _zcfree                    0048e800 f   zlib:zutil.obj
 0001:0008d810       _inflate_table             0048e810 f   zlib:inftrees.obj
 0001:0008dd00       _inflate_fast              0048ed00 f   zlib:inffast.obj
 0001:0008e10d       ??0bad_alloc@std@@QAE@XZ   0048f10d f i libcpmt:xthrow.obj
 0001:0008e125       ??0exception@std@@QAE@QBD@Z 0048f125 f i libcpmt:xthrow.obj
 0001:0008e15a       ??0length_error@std@@QAE@ABV01@@Z 0048f15a f i libcpmt:xthrow.obj
 0001:0008e175       ??0length_error@std@@QAE@PBD@Z 0048f175 f i libcpmt:xthrow.obj
 0001:0008e194       ??0logic_error@std@@QAE@ABV01@@Z 0048f194 f i libcpmt:xthrow.obj
 0001:0008e1af       ??0out_of_range@std@@QAE@ABV01@@Z 0048f1af f i libcpmt:xthrow.obj
 0001:0008e1ca       ??0out_of_range@std@@QAE@PBD@Z 0048f1ca f i libcpmt:xthrow.obj
 0001:0008e1e9       ??0runtime_error@std@@QAE@PBD@Z 0048f1e9 f i libcpmt:xthrow.obj
 0001:0008e208       ??_Ebad_exception@std@@UAEPAXI@Z 0048f208 f i libvcruntime:frame.obj
 0001:0008e208       ??_Elength_error@std@@UAEPAXI@Z 0048f208 f i libcpmt:xthrow.obj
 0001:0008e208       ??_Elogic_error@std@@UAEPAXI@Z 0048f208 f i libcpmt:xthrow.obj
 0001:0008e208       ??_Eout_of_range@std@@UAEPAXI@Z 0048f208 f i libcpmt:xthrow.obj
 0001:0008e208       ??_Gbad_exception@std@@UAEPAXI@Z 0048f208 f i libvcruntime:frame.obj
 0001:0008e208       ??_Glength_error@std@@UAEPAXI@Z 0048f208 f i libcpmt:xthrow.obj
 0001:0008e208       ??_Glogic_error@std@@UAEPAXI@Z 0048f208 f i libcpmt:xthrow.obj
 0001:0008e208       ??_Gout_of_range@std@@UAEPAXI@Z 0048f208 f i libcpmt:xthrow.obj
 0001:0008e235       ?_Xbad_alloc@std@@YAXXZ    0048f235 f   libcpmt:xthrow.obj
 0001:0008e235       ?__scrt_throw_std_bad_alloc@@YAXXZ 0048f235 f   LIBCMT:throw_bad_alloc.obj
 0001:0008e252       ?_Xlength_error@std@@YAXPBD@Z 0048f252 f   libcpmt:xthrow.obj
 0001:0008e272       ?_Xout_of_range@std@@YAXPBD@Z 0048f272 f   libcpmt:xthrow.obj
 0001:0008e292       ?_Xruntime_error@std@@YAXPBD@Z 0048f292 f   libcpmt:xthrow.obj
 0001:0008e2b2       ?uncaught_exception@std@@YA_NXZ 0048f2b2 f   libcpmt:uncaught_exception.obj
 0001:0008e2b7       ?_Syserror_map@std@@YAPBDH@Z 0048f2b7 f   libcpmt:syserror.obj
 0001:0008e2dc       ??$_Allocate@$07U_Default_allocate_traits@std@@$0A@@std@@YAPAXI@Z 0048f2dc f i libcpmt:cout.obj
 0001:0008e302       ??$_Deallocate@$07$0A@@std@@YAXPAXI@Z 0048f302 f i libcpmt:cout.obj
 0001:0008e32e       ??$_Fgetc@D@std@@YA_NAADPAU_iobuf@@@Z 0048f32e f i libcpmt:cout.obj
 0001:0008e34e       ??$_Fputc@D@std@@YA_NDPAU_iobuf@@@Z 0048f34e f i libcpmt:cout.obj
 0001:0008e368       ??$_Reallocate_grow_by@V<lambda_1>@?1??push_back@?$basic_string@DU?$char_traits@D@std@@V?$allocator@D@2@@std@@QAEXD@Z@D@?$basic_string@DU?$char_traits@D@std@@V?$allocator@D@2@@std@@AAEAAV01@IV<lambda_1>@?1??push_back@01@QAEXD@Z@D@Z 0048f368 f i libcpmt:cout.obj
 0001:0008e422       ??$use_facet@V?$codecvt@DDU_Mbstatet@@@std@@@std@@YAABV?$codecvt@DDU_Mbstatet@@@0@ABVlocale@0@@Z 0048f422 f i libcpmt:cout.obj
 0001:0008e4b7       ??0?$basic_ios@DU?$char_traits@D@std@@@std@@IAE@XZ 0048f4b7 f i libcpmt:cout.obj
 0001:0008e4dc       ??0?$basic_ostream@DU?$char_traits@D@std@@@std@@QAE@PAV?$basic_streambuf@DU?$char_traits@D@std@@@1@_N@Z 0048f4dc f i libcpmt:cout.obj
 0001:0008e544       ??0?$basic_streambuf@DU?$char_traits@D@std@@@std@@IAE@XZ 0048f544 f i libcpmt:cout.obj
 0001:0008e5b5       ??0_Init_cout@std@@QAE@XZ  0048f5b5 f i libcpmt:cout.obj
 0001:0008e5f5       ??0ios_base@std@@IAE@XZ    0048f5f5 f i libcpmt:cout.obj
 0001:0008e621       ??0locale@std@@QAE@ABV01@@Z 0048f621 f i libcpmt:cout.obj
 0001:0008e64c       ??1?$basic_filebuf@DU?$char_traits@D@std@@@std@@UAE@XZ 0048f64c f i libcpmt:cout.obj
 0001:0008e6a9       ??1?$basic_ios@DU?$char_traits@D@std@@@std@@UAE@XZ 0048f6a9 f i libcpmt:cout.obj
 0001:0008e6ee       ??1?$basic_streambuf@DU?$char_traits@D@std@@@std@@UAE@XZ 0048f6ee f i libcpmt:cout.obj
 0001:0008e70f       ??Bid@locale@std@@QAEIXZ   0048f70f f i libcpmt:cout.obj
 0001:0008e744       ??_D?$basic_ostream@DU?$char_traits@D@std@@@std@@QAEXXZ 0048f744 f i libcpmt:cout.obj
 0001:0008e7a5       ??_E?$basic_ostream@DU?$char_traits@D@std@@@std@@$4PPPPPPPM@A@AEPAXI@Z 0048f7a5 f i libcpmt:cout.obj
 0001:0008e7ad       ??_E?$basic_filebuf@DU?$char_traits@D@std@@@std@@UAEPAXI@Z 0048f7ad f i libcpmt:cout.obj
 0001:0008e7ad       ??_G?$basic_filebuf@DU?$char_traits@D@std@@@std@@UAEPAXI@Z 0048f7ad f i libcpmt:cout.obj
 0001:0008e7cf       ??_E?$basic_ios@DU?$char_traits@D@std@@@std@@UAEPAXI@Z 0048f7cf f i libcpmt:cout.obj
 0001:0008e7cf       ??_G?$basic_ios@DU?$char_traits@D@std@@@std@@UAEPAXI@Z 0048f7cf f i libcpmt:cout.obj
 0001:0008e82c       ??_E?$basic_ostream@DU?$char_traits@D@std@@@std@@UAEPAXI@Z 0048f82c f i libcpmt:cout.obj
 0001:0008e82c       ??_G?$basic_ostream@DU?$char_traits@D@std@@@std@@UAEPAXI@Z 0048f82c f i libcpmt:cout.obj
 0001:0008e851       ??_E?$basic_streambuf@DU?$char_traits@D@std@@@std@@UAEPAXI@Z 0048f851 f i libcpmt:cout.obj
 0001:0008e851       ??_G?$basic_streambuf@DU?$char_traits@D@std@@@std@@UAEPAXI@Z 0048f851 f i libcpmt:cout.obj
 0001:0008e873       ??_E?$codecvt@DDU_Mbstatet@@@std@@MAEPAXI@Z 0048f873 f i libcpmt:cout.obj
 0001:0008e873       ??_G?$codecvt@DDU_Mbstatet@@@std@@MAEPAXI@Z 0048f873 f i libcpmt:cout.obj
 0001:0008e896       ??_Eios_base@std@@UAEPAXI@Z 0048f896 f i libcpmt:cout.obj
 0001:0008e896       ??_Gios_base@std@@UAEPAXI@Z 0048f896 f i libcpmt:cout.obj
 0001:0008e8f3       ?_Adjust_manually_vector_aligned@std@@YAXAAPAXAAI@Z 0048f8f3 f i libcpmt:cout.obj
 0001:0008e917       ?_Apply_annotation@?$basic_string@DU?$char_traits@D@std@@V?$allocator@D@2@@std@@CAXQBDIII@Z 0048f917 f i libcpmt:cout.obj
 0001:0008e966       ?_C_str@locale@std@@QBEPBDXZ 0048f966 f i libcpmt:cout.obj
 0001:0008e97e       ?_Calculate_growth@?$basic_string@DU?$char_traits@D@std@@V?$allocator@D@2@@std@@CAIIII@Z 0048f97e f i libcpmt:cout.obj
 0001:0008e9ae       ?_Create_annotation@?$basic_string@DU?$char_traits@D@std@@V?$allocator@D@2@@std@@ABEXXZ 0048f9ae f i libcpmt:cout.obj
 0001:0008e9c8       ?_Endwrite@?$basic_filebuf@DU?$char_traits@D@std@@@std@@IAE_NXZ 0048f9c8 f i libcpmt:cout.obj
 0001:0008ea77       ?_Erase_noexcept@?$basic_string@DU?$char_traits@D@std@@V?$allocator@D@2@@std@@AAEAAV12@II@Z 0048fa77 f i libcpmt:cout.obj
 0001:0008eacb       ?_Getcat@?$codecvt@DDU_Mbstatet@@@std@@SAIPAPBVfacet@locale@2@PBV42@@Z 0048facb f i libcpmt:cout.obj
 0001:0008eb33       ?_Getfacet@locale@std@@QBEPBVfacet@12@I@Z 0048fb33 f i libcpmt:cout.obj
 0001:0008eb74       ?_Init@?$basic_filebuf@DU?$char_traits@D@std@@@std@@IAEXPAU_iobuf@@W4_Initfl@12@@Z 0048fb74 f i libcpmt:cout.obj
 0001:0008ebf1       ?_Init@?$basic_streambuf@DU?$char_traits@D@std@@@std@@IAEXXZ 0048fbf1 f i libcpmt:cout.obj
 0001:0008ec2e       ?_Init@ios_base@std@@IAEXXZ 0048fc2e f i libcpmt:cout.obj
 0001:0008ec99       ?_Initcvt@?$basic_filebuf@DU?$char_traits@D@std@@@std@@IAEXABV?$codecvt@DDU_Mbstatet@@@2@@Z 0048fc99 f i libcpmt:cout.obj
 0001:0008ecc4       ?_Lock@?$basic_filebuf@DU?$char_traits@D@std@@@std@@UAEXXZ 0048fcc4 f i libcpmt:cout.obj
 0001:0008ecd4       ?_Modify_annotation@?$basic_string@DU?$char_traits@D@std@@V?$allocator@D@2@@std@@ABEXII@Z 0048fcd4 f i libcpmt:cout.obj
 0001:0008ecfb       ?_Remove_annotation@?$basic_string@DU?$char_traits@D@std@@V?$allocator@D@2@@std@@ABEXXZ 0048fcfb f i libcpmt:cout.obj
 0001:0008ed15       ?_Reset_back@?$basic_filebuf@DU?$char_traits@D@std@@@std@@AAEXXZ 0048fd15 f i libcpmt:cout.obj
 0001:0008ed38       ?_Set_back@?$basic_filebuf@DU?$char_traits@D@std@@@std@@AAEXXZ 0048fd38 f i libcpmt:cout.obj
 0001:0008ed75       ?_Tidy_deallocate@?$basic_string@DU?$char_traits@D@std@@V?$allocator@D@2@@std@@AAEXXZ 0048fd75 f i libcpmt:cout.obj
 0001:0008eda1       ?_Unlock@?$basic_filebuf@DU?$char_traits@D@std@@@std@@UAEXXZ 0048fda1 f i libcpmt:cout.obj
 0001:0008edb1       ?always_noconv@codecvt_base@std@@QBE_NXZ 0048fdb1 f i libcpmt:cout.obj
 0001:0008edc9       ?close@?$basic_filebuf@DU?$char_traits@D@std@@@std@@QAEPAV12@XZ 0048fdc9 f i libcpmt:cout.obj
 0001:0008ee2d       ?do_always_noconv@?$codecvt@DDU_Mbstatet@@@std@@MBE_NXZ 0048fe2d f i libcpmt:cout.obj
 0001:0008ee2d       ___acrt_uninitialize_command_line 0048fe2d f i libucrt:argv_data.obj
 0001:0008ee2d       __should_initialize_environment 0048fe2d f i LIBCMT:env_mode.obj
 0001:0008ee30       ?do_encoding@codecvt_base@std@@MBEHXZ 0048fe30 f i libcpmt:cout.obj
 0001:0008ee30       ?do_max_length@codecvt_base@std@@MBEHXZ 0048fe30 f i libcpmt:cout.obj
 0001:0008ee30       __get_startup_argv_mode    0048fe30 f i LIBCMT:argv_mode.obj
 0001:0008ee34       ?do_in@?$codecvt@DDU_Mbstatet@@@std@@MBEHAAU_Mbstatet@@PBD1AAPBDPAD3AAPAD@Z 0048fe34 f i libcpmt:cout.obj
 0001:0008ee34       ?do_out@?$codecvt@DDU_Mbstatet@@@std@@MBEHAAU_Mbstatet@@PBD1AAPBDPAD3AAPAD@Z 0048fe34 f i libcpmt:cout.obj
 0001:0008ee4e       ?do_length@?$codecvt@DDU_Mbstatet@@@std@@MBEHAAU_Mbstatet@@PBD1I@Z 0048fe4e f i libcpmt:cout.obj
 0001:0008ee63       ?do_unshift@?$codecvt@DDU_Mbstatet@@@std@@MBEHAAU_Mbstatet@@PAD1AAPAD@Z 0048fe63 f i libcpmt:cout.obj
 0001:0008ee75       ?imbue@?$basic_filebuf@DU?$char_traits@D@std@@@std@@MAEXABVlocale@2@@Z 0048fe75 f i libcpmt:cout.obj
 0001:0008ee91       ?imbue@?$basic_streambuf@DU?$char_traits@D@std@@@std@@MAEXABVlocale@2@@Z 0048fe91 f i libcpmt:cout.obj
 0001:0008ee94       ?init@?$basic_ios@DU?$char_traits@D@std@@@std@@IAEXPAV?$basic_streambuf@DU?$char_traits@D@std@@@2@_N@Z 0048fe94 f i libcpmt:cout.obj
 0001:0008eedd       ?overflow@?$basic_filebuf@DU?$char_traits@D@std@@@std@@MAEHH@Z 0048fedd f i libcpmt:cout.obj
 0001:0008efe7       ?overflow@?$basic_streambuf@DU?$char_traits@D@std@@@std@@MAEHH@Z 0048ffe7 f i libcpmt:cout.obj
 0001:0008efe7       ?pbackfail@?$basic_streambuf@DU?$char_traits@D@std@@@std@@MAEHH@Z 0048ffe7 f i libcpmt:cout.obj
 0001:0008efed       ?pbackfail@?$basic_filebuf@DU?$char_traits@D@std@@@std@@MAEHH@Z 0048ffed f i libcpmt:cout.obj
 0001:0008f06f       ?push_back@?$basic_string@DU?$char_traits@D@std@@V?$allocator@D@2@@std@@QAEXD@Z 0049006f f i libcpmt:cout.obj
 0001:0008f0b6       ?seekoff@?$basic_filebuf@DU?$char_traits@D@std@@@std@@MAE?AV?$fpos@U_Mbstatet@@@2@_JHH@Z 004900b6 f i libcpmt:cout.obj
 0001:0008f177       ?seekoff@?$basic_streambuf@DU?$char_traits@D@std@@@std@@MAE?AV?$fpos@U_Mbstatet@@@2@_JHH@Z 00490177 f i libcpmt:cout.obj
 0001:0008f196       ?seekpos@?$basic_filebuf@DU?$char_traits@D@std@@@std@@MAE?AV?$fpos@U_Mbstatet@@@2@V32@H@Z 00490196 f i libcpmt:cout.obj
 0001:0008f226       ?seekpos@?$basic_streambuf@DU?$char_traits@D@std@@@std@@MAE?AV?$fpos@U_Mbstatet@@@2@V32@H@Z 00490226 f i libcpmt:cout.obj
 0001:0008f245       ?setbuf@?$basic_filebuf@DU?$char_traits@D@std@@@std@@MAEPAV?$basic_streambuf@DU?$char_traits@D@std@@@2@PAD_J@Z 00490245 f i libcpmt:cout.obj
 0001:0008f293       ?setbuf@?$basic_streambuf@DU?$char_traits@D@std@@@std@@MAEPAV12@PAD_J@Z 00490293 f i libcpmt:cout.obj
 0001:0008f298       ?showmanyc@?$basic_streambuf@DU?$char_traits@D@std@@@std@@MAE_JXZ 00490298 f i libcpmt:cout.obj
 0001:0008f29d       ?sync@?$basic_filebuf@DU?$char_traits@D@std@@@std@@MAEHXZ 0049029d f i libcpmt:cout.obj
 0001:0008f2d9       ?sync@?$basic_streambuf@DU?$char_traits@D@std@@@std@@MAEHXZ 004902d9 f i libcpmt:cout.obj
 0001:0008f2d9       ___scrt_exe_initialize_mta 004902d9 f i LIBCMT:utility_desktop.obj
 0001:0008f2d9       ___scrt_initialize_winrt   004902d9 f i LIBCMT:utility_desktop.obj
 0001:0008f2d9       ___scrt_stub_for_initialize_mta 004902d9 f i LIBCMT:utility_desktop.obj
 0001:0008f2d9       __get_startup_commit_mode  004902d9 f i LIBCMT:commit_mode.obj
 0001:0008f2d9       __get_startup_new_mode     004902d9 f i LIBCMT:new_mode.obj
 0001:0008f2d9       __get_startup_thread_locale_mode 004902d9 f i LIBCMT:thread_locale.obj
 0001:0008f2d9       __matherr                  004902d9 f i LIBCMT:matherr.obj
 0001:0008f2dc       ?uflow@?$basic_filebuf@DU?$char_traits@D@std@@@std@@MAEHXZ 004902dc f i libcpmt:cout.obj
 0001:0008f46a       ?uflow@?$basic_streambuf@DU?$char_traits@D@std@@@std@@MAEHXZ 0049046a f i libcpmt:cout.obj
 0001:0008f49d       ?underflow@?$basic_filebuf@DU?$char_traits@D@std@@@std@@MAEHXZ 0049049d f i libcpmt:cout.obj
 0001:0008f4ed       ?underflow@?$basic_streambuf@DU?$char_traits@D@std@@@std@@MAEHXZ 004904ed f i libcpmt:cout.obj
 0001:0008f4f1       ?widen@?$basic_ios@DU?$char_traits@D@std@@@std@@QBEDD@Z 004904f1 f i libcpmt:cout.obj
 0001:0008f540       ?xsgetn@?$basic_filebuf@DU?$char_traits@D@std@@@std@@MAE_JPAD_J@Z 00490540 f i libcpmt:cout.obj
 0001:0008f628       ?xsgetn@?$basic_streambuf@DU?$char_traits@D@std@@@std@@MAE_JPAD_J@Z 00490628 f i libcpmt:cout.obj
 0001:0008f717       ?xsputn@?$basic_filebuf@DU?$char_traits@D@std@@@std@@MAE_JPBD_J@Z 00490717 f i libcpmt:cout.obj
 0001:0008f7fc       ?xsputn@?$basic_streambuf@DU?$char_traits@D@std@@@std@@MAE_JPBD_J@Z 004907fc f i libcpmt:cout.obj
 0001:0008f8e7       __Mtx_init_in_situ         004908e7 f   libcpmt:mutex.obj
 0001:0008f903       __Mtx_lock                 00490903 f   libcpmt:mutex.obj
 0001:0008f914       __Mtx_unlock               00490914 f   libcpmt:mutex.obj
 0001:0008fa5e       ??0system_error@std@@QAE@HABVerror_category@1@PBD@Z 00490a5e f i libcpmt:thread0.obj
 0001:0008faab       ??_E_Generic_error_category@std@@UAEPAXI@Z 00490aab f i libcpmt:thread0.obj
 0001:0008faab       ??_G_Generic_error_category@std@@UAEPAXI@Z 00490aab f i libcpmt:thread0.obj
 0001:0008fac8       ?_Throw_Cpp_error@std@@YAXH@Z 00490ac8 f   libcpmt:thread0.obj
 0001:0008fafd       ?generic_category@std@@YAABVerror_category@1@XZ 00490afd f i libcpmt:thread0.obj
 0001:0008fb03       ?message@_Generic_error_category@std@@UBE?AV?$basic_string@DU?$char_traits@D@std@@V?$allocator@D@2@@2@H@Z 00490b03 f i libcpmt:thread0.obj
 0001:0008fb20       ?name@_Generic_error_category@std@@UBEPBDXZ 00490b20 f i libcpmt:thread0.obj
 0001:0008fb26       ??0_Init_locks@std@@QAE@XZ 00490b26 f   libcpmt:xlock.obj
 0001:0008fb53       ??0_Lockit@std@@QAE@H@Z    00490b53 f   libcpmt:xlock.obj
 0001:0008fb84       ??1_Init_locks@std@@QAE@XZ 00490b84 f   libcpmt:xlock.obj
 0001:0008fbab       ??1_Lockit@std@@QAE@XZ     00490bab f   libcpmt:xlock.obj
 0001:0008fbca       ??0_Locimp@locale@std@@AAE@_N@Z 00490bca f i libcpmt:locale0.obj
 0001:0008fc0b       ??1_Fac_node@std@@QAE@XZ   00490c0b f i libcpmt:locale0.obj
 0001:0008fc3c       ??1_Fac_tidy_reg_t@std@@QAE@XZ 00490c3c f i libcpmt:locale0.obj
 0001:0008fc63       ??1_Locimp@locale@std@@MAE@XZ 00490c63 f i libcpmt:locale0.obj
 0001:0008fc8e       ??4?$_Yarn@D@std@@QAEAAV01@PBD@Z 00490c8e f i libcpmt:locale0.obj
 0001:0008fce2       ??_E_Locimp@locale@std@@MAEPAXI@Z 00490ce2 f i libcpmt:locale0.obj
 0001:0008fce2       ??_G_Locimp@locale@std@@MAEPAXI@Z 00490ce2 f i libcpmt:locale0.obj
 0001:0008fd04       ?_Facet_Register@std@@YAXPAV_Facet_base@1@@Z 00490d04 f   libcpmt:locale0.obj
 0001:0008fd30       ?_Getgloballocale@locale@std@@CAPAV_Locimp@12@XZ 00490d30 f   libcpmt:locale0.obj
 0001:0008fd36       ?_Init@locale@std@@CAPAV_Locimp@12@_N@Z 00490d36 f   libcpmt:locale0.obj
 0001:0008fdc3       ?_Locimp_dtor@_Locimp@locale@std@@CAXPAV123@@Z 00490dc3 f   libcpmt:locale0.obj
 0001:0008fe34       ?_Locinfo_ctor@_Locinfo@std@@SAXPAV12@PBD@Z 00490e34 f   libcpmt:locale0.obj
 0001:0008fe7f       ?_Locinfo_dtor@_Locinfo@std@@SAXPAV12@@Z 00490e7f f   libcpmt:locale0.obj
 0001:0008fe99       ?_New_Locimp@_Locimp@locale@std@@CAPAV123@_N@Z 00490e99 f   libcpmt:locale0.obj
 0001:0008febc       ?_Setgloballocale@locale@std@@CAXPAX@Z 00490ebc f   libcpmt:locale0.obj
 0001:0008fee4       __Deletegloballocale       00490ee4 f   libcpmt:locale0.obj
 0001:0008ff49       __Getctype                 00490f49 f   libcpmt:_tolower.obj
 0001:0008ffb4       __Tolower                  00490fb4 f   libcpmt:_tolower.obj
 0001:000900c0       __Getcvt                   004910c0 f   libcpmt:xwctomb.obj
 0001:00090133       __Toupper                  00491133 f   libcpmt:_toupper.obj
 0001:0009023f       ?_Addstd@ios_base@std@@SAXPAV12@@Z 0049123f f   libcpmt:ios.obj
 0001:00090291       ?_Callfns@ios_base@std@@AAEXW4event@12@@Z 00491291 f i libcpmt:ios.obj
 0001:000902c4       ?_Ios_base_dtor@ios_base@std@@CAXPAV12@@Z 004912c4 f   libcpmt:ios.obj
 0001:00090304       ?_Tidy@ios_base@std@@AAEXXZ 00491304 f i libcpmt:ios.obj
 0001:0009037f       ??1_Init_atexit@@QAE@XZ    0049137f f i libcpmt:iosptrs.obj
 0001:000903e7       ?_Atexit@@YAXP6AXXZ@Z      004913e7 f   libcpmt:iosptrs.obj
 0001:00090416       __Timespec64_get_sys       00491416 f   libcpmt:xtime.obj
 0001:00090454       __Xtime_get_ticks          00491454 f   libcpmt:xtime.obj
 0001:0009047b       __Mtxdst                   0049147b f   libcpmt:xmtx.obj
 0001:00090489       __Mtxinit                  00491489 f   libcpmt:xmtx.obj
 0001:0009049e       __Mtxlock                  0049149e f   libcpmt:xmtx.obj
 0001:000904ac       __Mtxunlock                004914ac f   libcpmt:xmtx.obj
 0001:000904ba       ??1?$__crt_scoped_stack_ptr@_W@@QAE@XZ 004914ba f i libcpmt:StlLCMapStringA.obj
 0001:000904d3       ___crtLCMapStringA         004914d3 f   libcpmt:StlLCMapStringA.obj
 0001:0009069f       __freea_crt                0049169f f i libcpmt:StlLCMapStringA.obj
 0001:00090702       ___crtGetSystemTimePreciseAsFileTime 00491702 f   libcpmt:winapisupp.obj
 0001:00090757       ??2@YAPAXI@Z               00491757 f   LIBCMT:new_scalar.obj
 0001:00090787       ??3@YAXPAXI@Z              00491787 f   LIBCMT:delete_scalar_size.obj
 0001:000907d9       ___scrt_acquire_startup_lock 004917d9 f   LIBCMT:utility.obj
 0001:0009080b       ___scrt_initialize_crt     0049180b f   LIBCMT:utility.obj
 0001:00090844       ___scrt_initialize_onexit_tables 00491844 f   LIBCMT:utility.obj
 0001:000908cb       ___scrt_is_nonwritable_in_current_image 004918cb f   LIBCMT:utility.obj
 0001:0009095f       ___scrt_release_startup_lock 0049195f f   LIBCMT:utility.obj
 0001:0009097c       ___scrt_uninitialize_crt   0049197c f   LIBCMT:utility.obj
 0001:000909a4       __onexit                   004919a4 f   LIBCMT:utility.obj
 0001:000909d1       _atexit                    004919d1 f   LIBCMT:utility.obj
 0001:000909e6       ___raise_securityfailure   004919e6 f   LIBCMT:gs_report.obj
 0001:00090a0e       ___report_gsfailure        00491a0e f   LIBCMT:gs_report.obj
 0001:00090b08       ___report_rangecheckfailure 00491b08 f   LIBCMT:gs_report.obj
 0001:00090b14       ___report_securityfailure  00491b14 f   LIBCMT:gs_report.obj
 0001:00090be3       __Init_thread_footer       00491be3 f   LIBCMT:thread_safe_statics.obj
 0001:00090c34       __Init_thread_header       00491c34 f   LIBCMT:thread_safe_statics.obj
 0001:00090c83       __Init_thread_wait_v2      00491c83 f   LIBCMT:thread_safe_statics.obj
 0001:00090c98       @__security_check_cookie@4 00491c98 f   LIBCMT:secchk.obj
 0001:00090cb0       __alloca_probe             00491cb0 f   LIBCMT:chkstk.obj
 0001:00090cb0       __chkstk                   00491cb0 f   LIBCMT:chkstk.obj
 0001:00090cdb       ??_Etype_info@@UAEPAXI@Z   00491cdb f i LIBCMT:std_type_info_static.obj
 0001:00090cdb       ??_Gtype_info@@UAEPAXI@Z   00491cdb f i LIBCMT:std_type_info_static.obj
 0001:00090d00       __allshl                   00491d00 f   LIBCMT:llshl.obj
 0001:00090d20       __aullrem                  00491d20 f   LIBCMT:ullrem.obj
 0001:00090da0       __aullshr                  00491da0 f   LIBCMT:ullshr.obj
 0001:00090dbf       ___isa_available_init      00491dbf f   LIBCMT:cpu_disp.obj
 0001:00090f93       ??_V@YAXPAX@Z              00491f93 f   LIBCMT:delete_array.obj
 0001:00090fa0       __ultod3                   00491fa0 f   LIBCMT:ftol3.obj
 0001:00090fe9       ??_L@YGXPAXIIP6EX0@Z1@Z    00491fe9 f   LIBCMT:ehvecctr.obj
 0001:0009105d       ??_M@YGXPAXIIP6EX0@Z@Z     0049205d f   LIBCMT:ehvecdtr.obj
 0001:000910e2       ?__ArrayUnwind@@YGXPAXIIP6EX0@Z@Z 004920e2 f   LIBCMT:ehvecdtr.obj
 0001:00091180       __alldiv                   00492180 f   LIBCMT:lldiv.obj
 0001:00091471       _mainCRTStartup            00492471 f   LIBCMT:exe_main.obj
 0001:0009147b       __EH_epilog3               0049247b f   LIBCMT:ehprolg3.obj
 0001:0009148f       __EH_epilog3_GS            0049248f f   LIBCMT:ehprolg3.obj
 0001:0009149e       __EH_prolog3               0049249e f   LIBCMT:ehprolg3.obj
 0001:000914d1       __EH_prolog3_GS            004924d1 f   LIBCMT:ehprolg3.obj
 0001:00091507       __EH_prolog3_catch         00492507 f   LIBCMT:ehprolg3.obj
 0001:00091540       __aulldiv                  00492540 f   LIBCMT:ulldiv.obj
 0001:000915b0       __alloca_probe_16          004925b0 f   LIBCMT:alloca16.obj
 0001:000915c6       __alloca_probe_8           004925c6     LIBCMT:alloca16.obj
 0001:000915e0       __allmul                   004925e0 f   LIBCMT:llmul.obj
 0001:00091614       ??3@YAXPAX@Z               00492614 f   LIBCMT:delete_scalar.obj
 0001:00091619       ___scrt_is_ucrt_dll_in_use 00492619 f   LIBCMT:ucrt_detection.obj
 0001:00091625       ___scrt_fastfail           00492625 f   LIBCMT:utility_desktop.obj
 0001:0009173a       ___scrt_initialize_mta     0049273a f   LIBCMT:utility_desktop.obj
 0001:0009173f       ___scrt_is_managed_app     0049273f f   LIBCMT:utility_desktop.obj
 0001:00091781       ___scrt_set_unhandled_exception_filter 00492781 f   LIBCMT:utility_desktop.obj
 0001:0009178d       ___scrt_unhandled_exception_filter@4 0049278d f   LIBCMT:utility_desktop.obj
 0001:000917e3       __crt_debugger_hook        004927e3 f   LIBCMT:utility_desktop.obj
 0001:000917f0       __SEH_prolog4              004927f0 f   LIBCMT:sehprolg4.obj
 0001:00091882       ___security_init_cookie    00492882 f   LIBCMT:gs_support.obj
 0001:000918cd       __get_startup_file_mode    004928cd f   LIBCMT:file_mode.obj
 0001:000918d3       ?__scrt_initialize_type_info@@YAXXZ 004928d3 f   LIBCMT:tncleanup.obj
 0001:000918df       __initialize_default_precision 004928df f   LIBCMT:default_precision.obj
 0001:00091900       ___scrt_initialize_default_local_stdio_options 00492900 f   LIBCMT:default_local_stdio_options.obj
 0001:0009191d       ___scrt_is_user_matherr_present 0049291d f   LIBCMT:matherr_detection.obj
 0001:00091929       ___scrt_get_dyn_tls_init_callback 00492929 f   LIBCMT:dyn_tls_init.obj
 0001:0009192f       ___scrt_get_dyn_tls_dtor_callback 0049292f f   LIBCMT:dyn_tls_dtor.obj
 0001:00091935       __RTC_Initialize           00492935 f   LIBCMT:initsect.obj
 0001:00091961       __RTC_Terminate            00492961 f   LIBCMT:initsect.obj
 0001:0009198d       ___WSAFDIsSet@8            0049298d f   WS2_32:WS2_32.dll
 0001:00091993       ___DestructExceptionObject 00492993 f   libvcruntime:ehhelpers.obj
 0001:00091a34       ?_CallMemberFunction0@@YGXQAX0@Z 00492a34 f i libvcruntime:ehhelpers.obj
 0001:00091a99       __IsExceptionObjectToBeDestroyed 00492a99 f   libvcruntime:ehhelpers.obj
 0001:00091abf       ___AdjustPointer           00492abf f   libvcruntime:ehhelpers.obj
 0001:00091ae4       ___FrameUnwindFilter       00492ae4 f   libvcruntime:ehhelpers.obj
 0001:00091b3a       ___current_exception       00492b3a f   libvcruntime:ehhelpers.obj
 0001:00091b43       ___current_exception_context 00492b43 f   libvcruntime:ehhelpers.obj
 0001:00091b4c       ___std_terminate           00492b4c f   libvcruntime:ehhelpers.obj
 0001:00091b51       ___std_exception_copy      00492b51 f   libvcruntime:std_exception.obj
 0001:00091bb4       ___std_exception_destroy   00492bb4 f   libvcruntime:std_exception.obj
 0001:00091bd3       __CxxThrowException@8      00492bd3 f   libvcruntime:throw.obj
 0001:00091c3f       ?GetRangeOfTrysToCheck@__FrameHandler3@@SA?AU?$pair@Viterator@TryBlockMap@__FrameHandler3@@V123@@std@@AAVTryBlockMap@1@HPAXPBU_s_FuncInfo@@H@Z 00492c3f f   libvcruntime:trnsctrl.obj
 0001:00091cae       ?_CallCatchBlock2@@YAPAXPAUEHRegistrationNode@@PBU_s_FuncInfo@@PAXHK@Z 00492cae f   libvcruntime:trnsctrl.obj
 0001:00091d0b       ?_CallSETranslator@@YAHPAUEHExceptionRecord@@PAUEHRegistrationNode@@PAX2PBU_s_FuncInfo@@H1@Z 00492d0b f   libvcruntime:trnsctrl.obj
 0001:00091dfb       ?_JumpToContinuation@@YGXPAXPAUEHRegistrationNode@@@Z 00492dfb f   libvcruntime:trnsctrl.obj
 0001:00091e2b       ?_UnwindNestedFrames@@YGXPAUEHRegistrationNode@@PAUEHExceptionRecord@@@Z 00492e2b f   libvcruntime:trnsctrl.obj
 0001:00091e7e       __CatchGuardHandler        00492e7e f   libvcruntime:trnsctrl.obj
 0001:00091eaf       __CreateFrameInfo          00492eaf f   libvcruntime:trnsctrl.obj
 0001:00091ed3       __FindAndUnlinkFrame       00492ed3 f   libvcruntime:trnsctrl.obj
 0001:00091f1b       __TranslatorGuardHandler   00492f1b f   libvcruntime:trnsctrl.obj
 0001:00091fb8       ___CxxFrameHandler3        00492fb8 f   libvcruntime:trnsctrl.obj
 0001:00091ff0       _memcpy                    00492ff0 f   libvcruntime:memcpy.obj
 0001:00091ff0       _memmove                   00492ff0 f   libvcruntime:memmove.obj
 0001:00092570       _memset                    00493570 f   libvcruntime:memset.obj
 0001:000926ca       __get_purecall_handler     004936ca f   libvcruntime:purevirt.obj
 0001:000926d1       __purecall                 004936d1 f   libvcruntime:purevirt.obj
 0001:000926ed       ___uncaught_exception      004936ed f   libvcruntime:uncaught_exception.obj
 0001:00092710       _memcmp                    00493710 f   libvcruntime:memcmp.obj
 0001:00093d8c       ___vcrt_initialize         00494d8c f   libvcruntime:initialization.obj
 0001:00093dab       ___vcrt_uninitialize       00494dab f   libvcruntime:initialization.obj
 0001:00093e10       __except_handler4          00494e10 f   libvcruntime:chandler4.obj
 0001:00093f6e       ___std_type_info_compare   00494f6e f   libvcruntime:std_type_info.obj
 0001:00093faa       ___vcrt_freefls@4          00494faa f   libvcruntime:per_thread_data.obj
 0001:00093fc6       ___vcrt_getptd             00494fc6 f   libvcruntime:per_thread_data.obj
 0001:00093fd4       ___vcrt_getptd_noexit      00494fd4 f   libvcruntime:per_thread_data.obj
 0001:00094066       ___vcrt_getptd_noinit      00495066 f   libvcruntime:per_thread_data.obj
 0001:0009409d       ___vcrt_initialize_ptd     0049509d f   libvcruntime:per_thread_data.obj
 0001:000940d0       ___vcrt_uninitialize_ptd   004950d0 f   libvcruntime:per_thread_data.obj
 0001:0009481d       ??$TypeMatchHelper@V__FrameHandler3@@@@YAHPBU_s_HandlerType@@PBU_s_CatchableType@@PBU_s_ThrowInfo@@@Z 0049581d f i libvcruntime:frame.obj
 0001:000948ab       ??$__InternalCxxFrameHandler@V__FrameHandler3@@@@YA?AW4_EXCEPTION_DISPOSITION@@PAUEHExceptionRecord@@PAUEHRegistrationNode@@PAU_CONTEXT@@PAXPBU_s_FuncInfo@@H1E@Z 004958ab f i libvcruntime:frame.obj
 0001:000949ad       ??$__InternalCxxFrameHandlerWrapper@V__FrameHandler3@@@@YA?AW4_EXCEPTION_DISPOSITION@@PAUEHExceptionRecord@@PAUEHRegistrationNode@@PAU_CONTEXT@@PAXPBU_s_FuncInfo@@H1E@Z 004959ad f i libvcruntime:frame.obj
 0001:000949b6       ??0bad_exception@std@@QAE@ABV01@@Z 004959b6 f i libvcruntime:frame.obj
 0001:000949d1       ??0bad_exception@std@@QAE@XZ 004959d1 f i libvcruntime:frame.obj
 0001:000949e9       ??8type_info@@QBE_NABV0@@Z 004959e9 f i libvcruntime:frame.obj
 0001:00094c60       ?FrameUnwindToEmptyState@__FrameHandler3@@SAXPAUEHRegistrationNode@@PAXPBU_s_FuncInfo@@@Z 00495c60 f   libvcruntime:frame.obj
 0001:00094c78       ?FrameUnwindToState@__FrameHandler3@@SAXPAUEHRegistrationNode@@PAXPBU_s_FuncInfo@@H@Z 00495c78 f   libvcruntime:frame.obj
 0001:00094dfa       ?_CallMemberFunction1@@YGXQAX00@Z 00495dfa f i libvcruntime:frame.obj
 0001:00094e0a       ?_CallMemberFunction2@@YGXQAX00H@Z 00495e0a f i libvcruntime:frame.obj
 0001:00094e1d       ?getESTypes@__FrameHandler3@@SAPBU_s_ESTypeList@@PBU_s_FuncInfo@@@Z 00495e1d f i libvcruntime:frame.obj
 0001:00094e30       __CallSettingFrame@12      00495e30 f   libvcruntime:lowhelpr.obj
 0001:00094e57       __NLG_Return               00495e57     libvcruntime:lowhelpr.obj
 0001:00094e7c       ___except_validate_context_record 00495e7c f   libvcruntime:jbcxrval.obj
 0001:00094eac       ___vcrt_initialize_locks   00495eac f   libvcruntime:locks.obj
 0001:00094ee8       ___vcrt_uninitialize_locks 00495ee8 f   libvcruntime:locks.obj
 0001:00094f20       __local_unwind4            00495f20 f   libvcruntime:exsup4.obj
 0001:00095010       @_EH4_CallFilterFunc@8     00496010 f   libvcruntime:exsup4.obj
 0001:00095030       @_EH4_TransferToHandler@8  00496030 f   libvcruntime:exsup4.obj
 0001:00095050       @_EH4_GlobalUnwind2@8      00496050 f   libvcruntime:exsup4.obj
 0001:00095070       @_EH4_LocalUnwind@16       00496070 f   libvcruntime:exsup4.obj
 0001:00095172       ___vcrt_FlsAlloc           00496172 f   libvcruntime:winapi_downlevel.obj
 0001:000951ad       ___vcrt_FlsFree            004961ad f   libvcruntime:winapi_downlevel.obj
 0001:000951e8       ___vcrt_FlsGetValue        004961e8 f   libvcruntime:winapi_downlevel.obj
 0001:00095223       ___vcrt_FlsSetValue        00496223 f   libvcruntime:winapi_downlevel.obj
 0001:00095261       ___vcrt_InitializeCriticalSectionEx 00496261 f   libvcruntime:winapi_downlevel.obj
 0001:000952a8       _unexpected                004962a8 f   libvcruntime:unexpected.obj
 0001:000952c5       ?GetCurrentState@__FrameHandler3@@SAHPAUEHRegistrationNode@@PAXPBU_s_FuncInfo@@@Z 004962c5 f   libvcruntime:ehstate.obj
 0001:000952e2       ?SetState@__FrameHandler3@@SAXPAUEHRegistrationNode@@PBU_s_FuncInfo@@H@Z 004962e2 f   libvcruntime:ehstate.obj
 0001:000952f0       __NLG_Notify1              004962f0 f   libvcruntime:exsup.obj
 0001:00095300       __NLG_Notify               00496300 f   libvcruntime:exsup.obj
 0001:00095317       __NLG_Dispatch             00496317     libvcruntime:exsup.obj
 0001:00095317       __NLG_Dispatch2            00496317     libvcruntime:exsup.obj
 0001:00095320       __NLG_Call                 00496320 f   libvcruntime:exsup.obj
 0001:00095322       __NLG_Return2              00496322     libvcruntime:exsup.obj
 0001:00095323       ??0__crt_cached_ptd_host@@QAE@QAU__crt_locale_pointers@@@Z 00496323 f i libucrt:invalid_parameter.obj
 0001:0009536b       ??1__crt_cached_ptd_host@@QAE@XZ 0049636b f i libucrt:invalid_parameter.obj
 0001:000953a7       ?check_synchronize_global_state_index@__crt_cached_ptd_host@@AAEIXZ 004963a7 f i libucrt:invalid_parameter.obj
 0001:000953d0       ?force_synchronize_per_thread_data@__crt_cached_ptd_host@@AAEPAU__acrt_ptd@@XZ 004963d0 f i libucrt:invalid_parameter.obj
 0001:00095416       ?get_raw_ptd@__crt_cached_ptd_host@@QAEPAU__acrt_ptd@@XZ 00496416 f i libucrt:invalid_parameter.obj
 0001:00095433       ___acrt_call_reportfault   00496433 f   libucrt:invalid_parameter.obj
 0001:0009556c       ___acrt_initialize_invalid_parameter_handler 0049656c f   libucrt:invalid_parameter.obj
 0001:0009557b       __invalid_parameter        0049657b f   libucrt:invalid_parameter.obj
 0001:000955b2       __invalid_parameter_internal 004965b2 f   libucrt:invalid_parameter.obj
 0001:0009562f       __invalid_parameter_noinfo 0049662f f   libucrt:invalid_parameter.obj
 0001:0009563f       __invalid_parameter_noinfo_noreturn 0049663f f   libucrt:invalid_parameter.obj
 0001:0009565c       __invoke_watson            0049665c f   libucrt:invalid_parameter.obj
 0001:00095865       __itoa                     00496865 f   libucrt:xtoa.obj
 0001:00095865       _itoa                      00496865 f   libucrt:xtoa.obj
 0001:0009589a       __itow_s                   0049689a f   libucrt:xtoa.obj
 0001:00095d0a       ??$count@D@formatting_buffer@__crt_stdio_output@@QBEIXZ 00496d0a f i libucrt:output.obj
 0001:00095d22       ??$ensure_buffer_is_big_enough@D@formatting_buffer@__crt_stdio_output@@QAE_NIAAV__crt_cached_ptd_host@@@Z 00496d22 f i libucrt:output.obj
 0001:00095da3       ??$is_overflow_condition@K@__crt_strtox@@YA_NIK@Z 00496da3 f i libucrt:output.obj
 0001:00095dd7       ??$is_wide_character_specifier@D@__crt_stdio_output@@YA_N_KDW4length_modifier@0@@Z 00496dd7 f i libucrt:output.obj
 0001:00095e08       ??$make_c_string_character_source@DPAPAD@__crt_strtox@@YA?AV?$c_string_character_source@D@0@QBDQAPAD@Z 00496e08 f i libucrt:output.obj
 0001:00095e08       ??$make_c_string_character_source@_WPAPA_W@__crt_strtox@@YA?AV?$c_string_character_source@_W@0@QB_WQAPA_W@Z 00496e08 f i libucrt:output.obj
 0001:00095e23       ??$parse_integer@KV?$c_string_character_source@D@__crt_strtox@@$0A@@__crt_strtox@@YAKAAV__crt_cached_ptd_host@@V?$c_string_character_source@D@0@H_N@Z 00496e23 f i libucrt:output.obj
 0001:00096032       ??$scratch_data@D@formatting_buffer@__crt_stdio_output@@QAEPADXZ 00497032 f i libucrt:output.obj
 0001:00096050       ??$type_case_integer@$07@?$output_processor@DV?$stream_output_adapter@D@__crt_stdio_output@@V?$format_validation_base@DV?$stream_output_adapter@D@__crt_stdio_output@@@2@@__crt_stdio_output@@AAE_N_N@Z 00497050 f i libucrt:output.obj
 0001:00096050       ??$type_case_integer@$07@?$output_processor@DV?$stream_output_adapter@D@__crt_stdio_output@@V?$standard_base@DV?$stream_output_adapter@D@__crt_stdio_output@@@2@@__crt_stdio_output@@AAE_N_N@Z 00497050 f i libucrt:output.obj
 0001:00096050       ??$type_case_integer@$07@?$output_processor@DV?$string_output_adapter@D@__crt_stdio_output@@V?$format_validation_base@DV?$string_output_adapter@D@__crt_stdio_output@@@2@@__crt_stdio_output@@AAE_N_N@Z 00497050 f i libucrt:output.obj
 0001:00096050       ??$type_case_integer@$07@?$output_processor@DV?$string_output_adapter@D@__crt_stdio_output@@V?$standard_base@DV?$string_output_adapter@D@__crt_stdio_output@@@2@@__crt_stdio_output@@AAE_N_N@Z 00497050 f i libucrt:output.obj
 0001:000961dd       ??$type_case_integer@$09@?$output_processor@DV?$stream_output_adapter@D@__crt_stdio_output@@V?$format_validation_base@DV?$stream_output_adapter@D@__crt_stdio_output@@@2@@__crt_stdio_output@@AAE_N_N@Z 004971dd f i libucrt:output.obj
 0001:000961dd       ??$type_case_integer@$09@?$output_processor@DV?$stream_output_adapter@D@__crt_stdio_output@@V?$standard_base@DV?$stream_output_adapter@D@__crt_stdio_output@@@2@@__crt_stdio_output@@AAE_N_N@Z 004971dd f i libucrt:output.obj
 0001:000961dd       ??$type_case_integer@$09@?$output_processor@DV?$string_output_adapter@D@__crt_stdio_output@@V?$format_validation_base@DV?$string_output_adapter@D@__crt_stdio_output@@@2@@__crt_stdio_output@@AAE_N_N@Z 004971dd f i libucrt:output.obj
 0001:000961dd       ??$type_case_integer@$09@?$output_processor@DV?$string_output_adapter@D@__crt_stdio_output@@V?$standard_base@DV?$string_output_adapter@D@__crt_stdio_output@@@2@@__crt_stdio_output@@AAE_N_N@Z 004971dd f i libucrt:output.obj
 0001:0009636a       ??$type_case_integer@$0BA@@?$output_processor@DV?$stream_output_adapter@D@__crt_stdio_output@@V?$format_validation_base@DV?$stream_output_adapter@D@__crt_stdio_output@@@2@@__crt_stdio_output@@AAE_N_N@Z 0049736a f i libucrt:output.obj
 0001:0009636a       ??$type_case_integer@$0BA@@?$output_processor@DV?$stream_output_adapter@D@__crt_stdio_output@@V?$standard_base@DV?$stream_output_adapter@D@__crt_stdio_output@@@2@@__crt_stdio_output@@AAE_N_N@Z 0049736a f i libucrt:output.obj
 0001:0009636a       ??$type_case_integer@$0BA@@?$output_processor@DV?$string_output_adapter@D@__crt_stdio_output@@V?$format_validation_base@DV?$string_output_adapter@D@__crt_stdio_output@@@2@@__crt_stdio_output@@AAE_N_N@Z 0049736a f i libucrt:output.obj
 0001:0009636a       ??$type_case_integer@$0BA@@?$output_processor@DV?$string_output_adapter@D@__crt_stdio_output@@V?$standard_base@DV?$string_output_adapter@D@__crt_stdio_output@@@2@@__crt_stdio_output@@AAE_N_N@Z 0049736a f i libucrt:output.obj
 0001:000964f7       ??$type_case_integer_parse_into_buffer@I$07@?$output_processor@DV?$stream_output_adapter@D@__crt_stdio_output@@V?$format_validation_base@DV?$stream_output_adapter@D@__crt_stdio_output@@@2@@__crt_stdio_output@@AAEXI_N@Z 004974f7 f i libucrt:output.obj
 0001:000964f7       ??$type_case_integer_parse_into_buffer@I$07@?$output_processor@DV?$stream_output_adapter@D@__crt_stdio_output@@V?$standard_base@DV?$stream_output_adapter@D@__crt_stdio_output@@@2@@__crt_stdio_output@@AAEXI_N@Z 004974f7 f i libucrt:output.obj
 0001:000964f7       ??$type_case_integer_parse_into_buffer@I$07@?$output_processor@DV?$string_output_adapter@D@__crt_stdio_output@@V?$format_validation_base@DV?$string_output_adapter@D@__crt_stdio_output@@@2@@__crt_stdio_output@@AAEXI_N@Z 004974f7 f i libucrt:output.obj
 0001:000964f7       ??$type_case_integer_parse_into_buffer@I$07@?$output_processor@DV?$string_output_adapter@D@__crt_stdio_output@@V?$standard_base@DV?$string_output_adapter@D@__crt_stdio_output@@@2@@__crt_stdio_output@@AAEXI_N@Z 004974f7 f i libucrt:output.obj
 0001:0009655a       ??$type_case_integer_parse_into_buffer@I$09@?$output_processor@DV?$stream_output_adapter@D@__crt_stdio_output@@V?$format_validation_base@DV?$stream_output_adapter@D@__crt_stdio_output@@@2@@__crt_stdio_output@@AAEXI_N@Z 0049755a f i libucrt:output.obj
 0001:0009655a       ??$type_case_integer_parse_into_buffer@I$09@?$output_processor@DV?$stream_output_adapter@D@__crt_stdio_output@@V?$standard_base@DV?$stream_output_adapter@D@__crt_stdio_output@@@2@@__crt_stdio_output@@AAEXI_N@Z 0049755a f i libucrt:output.obj
 0001:0009655a       ??$type_case_integer_parse_into_buffer@I$09@?$output_processor@DV?$string_output_adapter@D@__crt_stdio_output@@V?$format_validation_base@DV?$string_output_adapter@D@__crt_stdio_output@@@2@@__crt_stdio_output@@AAEXI_N@Z 0049755a f i libucrt:output.obj
 0001:0009655a       ??$type_case_integer_parse_into_buffer@I$09@?$output_processor@DV?$string_output_adapter@D@__crt_stdio_output@@V?$standard_base@DV?$string_output_adapter@D@__crt_stdio_output@@@2@@__crt_stdio_output@@AAEXI_N@Z 0049755a f i libucrt:output.obj
 0001:000965e1       ??$type_case_integer_parse_into_buffer@I$0BA@@?$output_processor@DV?$stream_output_adapter@D@__crt_stdio_output@@V?$format_validation_base@DV?$stream_output_adapter@D@__crt_stdio_output@@@2@@__crt_stdio_output@@AAEXI_N@Z 004975e1 f i libucrt:output.obj
 0001:000965e1       ??$type_case_integer_parse_into_buffer@I$0BA@@?$output_processor@DV?$stream_output_adapter@D@__crt_stdio_output@@V?$standard_base@DV?$stream_output_adapter@D@__crt_stdio_output@@@2@@__crt_stdio_output@@AAEXI_N@Z 004975e1 f i libucrt:output.obj
 0001:000965e1       ??$type_case_integer_parse_into_buffer@I$0BA@@?$output_processor@DV?$string_output_adapter@D@__crt_stdio_output@@V?$format_validation_base@DV?$string_output_adapter@D@__crt_stdio_output@@@2@@__crt_stdio_output@@AAEXI_N@Z 004975e1 f i libucrt:output.obj
 0001:000965e1       ??$type_case_integer_parse_into_buffer@I$0BA@@?$output_processor@DV?$string_output_adapter@D@__crt_stdio_output@@V?$standard_base@DV?$string_output_adapter@D@__crt_stdio_output@@@2@@__crt_stdio_output@@AAEXI_N@Z 004975e1 f i libucrt:output.obj
 0001:0009665e       ??$type_case_integer_parse_into_buffer@_K$07@?$output_processor@DV?$stream_output_adapter@D@__crt_stdio_output@@V?$format_validation_base@DV?$stream_output_adapter@D@__crt_stdio_output@@@2@@__crt_stdio_output@@AAEX_K_N@Z 0049765e f i libucrt:output.obj
 0001:0009665e       ??$type_case_integer_parse_into_buffer@_K$07@?$output_processor@DV?$stream_output_adapter@D@__crt_stdio_output@@V?$standard_base@DV?$stream_output_adapter@D@__crt_stdio_output@@@2@@__crt_stdio_output@@AAEX_K_N@Z 0049765e f i libucrt:output.obj
 0001:0009665e       ??$type_case_integer_parse_into_buffer@_K$07@?$output_processor@DV?$string_output_adapter@D@__crt_stdio_output@@V?$format_validation_base@DV?$string_output_adapter@D@__crt_stdio_output@@@2@@__crt_stdio_output@@AAEX_K_N@Z 0049765e f i libucrt:output.obj
 0001:0009665e       ??$type_case_integer_parse_into_buffer@_K$07@?$output_processor@DV?$string_output_adapter@D@__crt_stdio_output@@V?$standard_base@DV?$string_output_adapter@D@__crt_stdio_output@@@2@@__crt_stdio_output@@AAEX_K_N@Z 0049765e f i libucrt:output.obj
 0001:000966d6       ??$type_case_integer_parse_into_buffer@_K$09@?$output_processor@DV?$stream_output_adapter@D@__crt_stdio_output@@V?$format_validation_base@DV?$stream_output_adapter@D@__crt_stdio_output@@@2@@__crt_stdio_output@@AAEX_K_N@Z 004976d6 f i libucrt:output.obj
 0001:000966d6       ??$type_case_integer_parse_into_buffer@_K$09@?$output_processor@DV?$stream_output_adapter@D@__crt_stdio_output@@V?$standard_base@DV?$stream_output_adapter@D@__crt_stdio_output@@@2@@__crt_stdio_output@@AAEX_K_N@Z 004976d6 f i libucrt:output.obj
 0001:000966d6       ??$type_case_integer_parse_into_buffer@_K$09@?$output_processor@DV?$string_output_adapter@D@__crt_stdio_output@@V?$format_validation_base@DV?$string_output_adapter@D@__crt_stdio_output@@@2@@__crt_stdio_output@@AAEX_K_N@Z 004976d6 f i libucrt:output.obj
 0001:000966d6       ??$type_case_integer_parse_into_buffer@_K$09@?$output_processor@DV?$string_output_adapter@D@__crt_stdio_output@@V?$standard_base@DV?$string_output_adapter@D@__crt_stdio_output@@@2@@__crt_stdio_output@@AAEX_K_N@Z 004976d6 f i libucrt:output.obj
 0001:0009677d       ??$type_case_integer_parse_into_buffer@_K$0BA@@?$output_processor@DV?$stream_output_adapter@D@__crt_stdio_output@@V?$format_validation_base@DV?$stream_output_adapter@D@__crt_stdio_output@@@2@@__crt_stdio_output@@AAEX_K_N@Z 0049777d f i libucrt:output.obj
 0001:0009677d       ??$type_case_integer_parse_into_buffer@_K$0BA@@?$output_processor@DV?$stream_output_adapter@D@__crt_stdio_output@@V?$standard_base@DV?$stream_output_adapter@D@__crt_stdio_output@@@2@@__crt_stdio_output@@AAEX_K_N@Z 0049777d f i libucrt:output.obj
 0001:0009677d       ??$type_case_integer_parse_into_buffer@_K$0BA@@?$output_processor@DV?$string_output_adapter@D@__crt_stdio_output@@V?$format_validation_base@DV?$string_output_adapter@D@__crt_stdio_output@@@2@@__crt_stdio_output@@AAEX_K_N@Z 0049777d f i libucrt:output.obj
 0001:0009677d       ??$type_case_integer_parse_into_buffer@_K$0BA@@?$output_processor@DV?$string_output_adapter@D@__crt_stdio_output@@V?$standard_base@DV?$string_output_adapter@D@__crt_stdio_output@@@2@@__crt_stdio_output@@AAEX_K_N@Z 0049777d f i libucrt:output.obj
 0001:00096807       ??0?$output_adapter_data@DV?$stream_output_adapter@D@__crt_stdio_output@@@__crt_stdio_output@@IAE@ABV?$stream_output_adapter@D@1@_KQBDAAV__crt_cached_ptd_host@@QAD@Z 00497807 f i libucrt:output.obj
 0001:00096807       ??0?$output_adapter_data@DV?$string_output_adapter@D@__crt_stdio_output@@@__crt_stdio_output@@IAE@ABV?$string_output_adapter@D@1@_KQBDAAV__crt_cached_ptd_host@@QAD@Z 00497807 f i libucrt:output.obj
 0001:0009686e       ??1formatting_buffer@__crt_stdio_output@@QAE@XZ 0049786e f i libucrt:output.obj
 0001:00096888       ??4?$__crt_unique_heap_ptr@DU__crt_internal_free_policy@@@@QAEAAV0@$$QAV0@@Z 00497888 f i libucrt:output.obj
 0001:000969e4       ?crop_zeroes@__crt_stdio_output@@YAXPADQAU__crt_locale_pointers@@@Z 004979e4 f i libucrt:output.obj
 0001:00096a44       ?find_next_state@?$output_processor@DV?$stream_output_adapter@D@__crt_stdio_output@@V?$format_validation_base@DV?$stream_output_adapter@D@__crt_stdio_output@@@2@@__crt_stdio_output@@ABE?AW4state@2@DW432@@Z 00497a44 f i libucrt:output.obj
 0001:00096a44       ?find_next_state@?$output_processor@DV?$string_output_adapter@D@__crt_stdio_output@@V?$format_validation_base@DV?$string_output_adapter@D@__crt_stdio_output@@@2@@__crt_stdio_output@@ABE?AW4state@2@DW432@@Z 00497a44 f i libucrt:output.obj
 0001:00096a81       ?find_next_state@?$output_processor@DV?$stream_output_adapter@D@__crt_stdio_output@@V?$standard_base@DV?$stream_output_adapter@D@__crt_stdio_output@@@2@@__crt_stdio_output@@ABE?AW4state@2@DW432@@Z 00497a81 f i libucrt:output.obj
 0001:00096a81       ?find_next_state@?$output_processor@DV?$string_output_adapter@D@__crt_stdio_output@@V?$standard_base@DV?$string_output_adapter@D@__crt_stdio_output@@@2@@__crt_stdio_output@@ABE?AW4state@2@DW432@@Z 00497a81 f i libucrt:output.obj
 0001:00096abc       ?force_decimal_point@__crt_stdio_output@@YAXPADQAU__crt_locale_pointers@@@Z 00497abc f i libucrt:output.obj
 0001:00096b18       ?parse_int_from_format_string@?$output_processor@DV?$stream_output_adapter@D@__crt_stdio_output@@V?$format_validation_base@DV?$stream_output_adapter@D@__crt_stdio_output@@@2@@__crt_stdio_output@@AAE_NQAH@Z 00497b18 f i libucrt:output.obj
 0001:00096b18       ?parse_int_from_format_string@?$output_processor@DV?$stream_output_adapter@D@__crt_stdio_output@@V?$standard_base@DV?$stream_output_adapter@D@__crt_stdio_output@@@2@@__crt_stdio_output@@AAE_NQAH@Z 00497b18 f i libucrt:output.obj
 0001:00096b18       ?parse_int_from_format_string@?$output_processor@DV?$string_output_adapter@D@__crt_stdio_output@@V?$format_validation_base@DV?$string_output_adapter@D@__crt_stdio_output@@@2@@__crt_stdio_output@@AAE_NQAH@Z 00497b18 f i libucrt:output.obj
 0001:00096b18       ?parse_int_from_format_string@?$output_processor@DV?$string_output_adapter@D@__crt_stdio_output@@V?$standard_base@DV?$string_output_adapter@D@__crt_stdio_output@@@2@@__crt_stdio_output@@AAE_NQAH@Z 00497b18 f i libucrt:output.obj
 0001:00096b90       ?process@?$output_processor@DV?$stream_output_adapter@D@__crt_stdio_output@@V?$format_validation_base@DV?$stream_output_adapter@D@__crt_stdio_output@@@2@@__crt_stdio_output@@QAEHXZ 00497b90 f i libucrt:output.obj
 0001:00096e50       ?process@?$output_processor@DV?$stream_output_adapter@D@__crt_stdio_output@@V?$standard_base@DV?$stream_output_adapter@D@__crt_stdio_output@@@2@@__crt_stdio_output@@QAEHXZ 00497e50 f i libucrt:output.obj
 0001:00097100       ?process@?$output_processor@DV?$string_output_adapter@D@__crt_stdio_output@@V?$format_validation_base@DV?$string_output_adapter@D@__crt_stdio_output@@@2@@__crt_stdio_output@@QAEHXZ 00498100 f i libucrt:output.obj
 0001:000973e4       ?process@?$output_processor@DV?$string_output_adapter@D@__crt_stdio_output@@V?$standard_base@DV?$string_output_adapter@D@__crt_stdio_output@@@2@@__crt_stdio_output@@QAEHXZ 004983e4 f i libucrt:output.obj
 0001:000976b8       ?state_case_size@?$output_processor@DV?$stream_output_adapter@D@__crt_stdio_output@@V?$format_validation_base@DV?$stream_output_adapter@D@__crt_stdio_output@@@2@@__crt_stdio_output@@AAE_NXZ 004986b8 f i libucrt:output.obj
 0001:000976b8       ?state_case_size@?$output_processor@DV?$stream_output_adapter@D@__crt_stdio_output@@V?$standard_base@DV?$stream_output_adapter@D@__crt_stdio_output@@@2@@__crt_stdio_output@@AAE_NXZ 004986b8 f i libucrt:output.obj
 0001:00097811       ?state_case_size@?$output_processor@DV?$string_output_adapter@D@__crt_stdio_output@@V?$format_validation_base@DV?$string_output_adapter@D@__crt_stdio_output@@@2@@__crt_stdio_output@@AAE_NXZ 00498811 f i libucrt:output.obj
 0001:00097811       ?state_case_size@?$output_processor@DV?$string_output_adapter@D@__crt_stdio_output@@V?$standard_base@DV?$string_output_adapter@D@__crt_stdio_output@@@2@@__crt_stdio_output@@AAE_NXZ 00498811 f i libucrt:output.obj
 0001:0009796a       ?state_case_type@?$output_processor@DV?$stream_output_adapter@D@__crt_stdio_output@@V?$format_validation_base@DV?$stream_output_adapter@D@__crt_stdio_output@@@2@@__crt_stdio_output@@AAE_NXZ 0049896a f i libucrt:output.obj
 0001:0009796a       ?state_case_type@?$output_processor@DV?$stream_output_adapter@D@__crt_stdio_output@@V?$standard_base@DV?$stream_output_adapter@D@__crt_stdio_output@@@2@@__crt_stdio_output@@AAE_NXZ 0049896a f i libucrt:output.obj
 0001:00097cac       ?state_case_type@?$output_processor@DV?$string_output_adapter@D@__crt_stdio_output@@V?$format_validation_base@DV?$string_output_adapter@D@__crt_stdio_output@@@2@@__crt_stdio_output@@AAE_NXZ 00498cac f i libucrt:output.obj
 0001:00097cac       ?state_case_type@?$output_processor@DV?$string_output_adapter@D@__crt_stdio_output@@V?$standard_base@DV?$string_output_adapter@D@__crt_stdio_output@@@2@@__crt_stdio_output@@AAE_NXZ 00498cac f i libucrt:output.obj
 0001:0009800b       ?to_integer_size@__crt_stdio_output@@YAIW4length_modifier@1@@Z 0049900b f i libucrt:output.obj
 0001:0009805f       ?type_case_Z@?$output_processor@DV?$stream_output_adapter@D@__crt_stdio_output@@V?$format_validation_base@DV?$stream_output_adapter@D@__crt_stdio_output@@@2@@__crt_stdio_output@@AAE_NXZ 0049905f f i libucrt:output.obj
 0001:0009805f       ?type_case_Z@?$output_processor@DV?$stream_output_adapter@D@__crt_stdio_output@@V?$standard_base@DV?$stream_output_adapter@D@__crt_stdio_output@@@2@@__crt_stdio_output@@AAE_NXZ 0049905f f i libucrt:output.obj
 0001:0009805f       ?type_case_Z@?$output_processor@DV?$string_output_adapter@D@__crt_stdio_output@@V?$format_validation_base@DV?$string_output_adapter@D@__crt_stdio_output@@@2@@__crt_stdio_output@@AAE_NXZ 0049905f f i libucrt:output.obj
 0001:0009805f       ?type_case_Z@?$output_processor@DV?$string_output_adapter@D@__crt_stdio_output@@V?$standard_base@DV?$string_output_adapter@D@__crt_stdio_output@@@2@@__crt_stdio_output@@AAE_NXZ 0049905f f i libucrt:output.obj
 0001:000980c2       ?type_case_a@?$output_processor@DV?$stream_output_adapter@D@__crt_stdio_output@@V?$format_validation_base@DV?$stream_output_adapter@D@__crt_stdio_output@@@2@@__crt_stdio_output@@AAE_NXZ 004990c2 f i libucrt:output.obj
 0001:000980c2       ?type_case_a@?$output_processor@DV?$stream_output_adapter@D@__crt_stdio_output@@V?$standard_base@DV?$stream_output_adapter@D@__crt_stdio_output@@@2@@__crt_stdio_output@@AAE_NXZ 004990c2 f i libucrt:output.obj
 0001:000980c2       ?type_case_a@?$output_processor@DV?$string_output_adapter@D@__crt_stdio_output@@V?$format_validation_base@DV?$string_output_adapter@D@__crt_stdio_output@@@2@@__crt_stdio_output@@AAE_NXZ 004990c2 f i libucrt:output.obj
 0001:000980c2       ?type_case_a@?$output_processor@DV?$string_output_adapter@D@__crt_stdio_output@@V?$standard_base@DV?$string_output_adapter@D@__crt_stdio_output@@@2@@__crt_stdio_output@@AAE_NXZ 004990c2 f i libucrt:output.obj
 0001:00098253       ?type_case_c_tchar@?$output_processor@DV?$stream_output_adapter@D@__crt_stdio_output@@V?$format_validation_base@DV?$stream_output_adapter@D@__crt_stdio_output@@@2@@__crt_stdio_output@@AAE_ND@Z 00499253 f i libucrt:output.obj
 0001:00098253       ?type_case_c_tchar@?$output_processor@DV?$stream_output_adapter@D@__crt_stdio_output@@V?$standard_base@DV?$stream_output_adapter@D@__crt_stdio_output@@@2@@__crt_stdio_output@@AAE_ND@Z 00499253 f i libucrt:output.obj
 0001:00098253       ?type_case_c_tchar@?$output_processor@DV?$string_output_adapter@D@__crt_stdio_output@@V?$format_validation_base@DV?$string_output_adapter@D@__crt_stdio_output@@@2@@__crt_stdio_output@@AAE_ND@Z 00499253 f i libucrt:output.obj
 0001:00098253       ?type_case_c_tchar@?$output_processor@DV?$string_output_adapter@D@__crt_stdio_output@@V?$standard_base@DV?$string_output_adapter@D@__crt_stdio_output@@@2@@__crt_stdio_output@@AAE_ND@Z 00499253 f i libucrt:output.obj
 0001:000982e8       ?type_case_n@?$output_processor@DV?$stream_output_adapter@D@__crt_stdio_output@@V?$format_validation_base@DV?$stream_output_adapter@D@__crt_stdio_output@@@2@@__crt_stdio_output@@AAE_NXZ 004992e8 f i libucrt:output.obj
 0001:000982e8       ?type_case_n@?$output_processor@DV?$stream_output_adapter@D@__crt_stdio_output@@V?$standard_base@DV?$stream_output_adapter@D@__crt_stdio_output@@@2@@__crt_stdio_output@@AAE_NXZ 004992e8 f i libucrt:output.obj
 0001:000982e8       ?type_case_n@?$output_processor@DV?$string_output_adapter@D@__crt_stdio_output@@V?$format_validation_base@DV?$string_output_adapter@D@__crt_stdio_output@@@2@@__crt_stdio_output@@AAE_NXZ 004992e8 f i libucrt:output.obj
 0001:000982e8       ?type_case_n@?$output_processor@DV?$string_output_adapter@D@__crt_stdio_output@@V?$standard_base@DV?$string_output_adapter@D@__crt_stdio_output@@@2@@__crt_stdio_output@@AAE_NXZ 004992e8 f i libucrt:output.obj
 0001:0009836d       ?type_case_o@?$output_processor@DV?$stream_output_adapter@D@__crt_stdio_output@@V?$format_validation_base@DV?$stream_output_adapter@D@__crt_stdio_output@@@2@@__crt_stdio_output@@AAE_NXZ 0049936d f i libucrt:output.obj
 0001:0009836d       ?type_case_o@?$output_processor@DV?$stream_output_adapter@D@__crt_stdio_output@@V?$standard_base@DV?$stream_output_adapter@D@__crt_stdio_output@@@2@@__crt_stdio_output@@AAE_NXZ 0049936d f i libucrt:output.obj
 0001:0009836d       ?type_case_o@?$output_processor@DV?$string_output_adapter@D@__crt_stdio_output@@V?$format_validation_base@DV?$string_output_adapter@D@__crt_stdio_output@@@2@@__crt_stdio_output@@AAE_NXZ 0049936d f i libucrt:output.obj
 0001:0009836d       ?type_case_o@?$output_processor@DV?$string_output_adapter@D@__crt_stdio_output@@V?$standard_base@DV?$string_output_adapter@D@__crt_stdio_output@@@2@@__crt_stdio_output@@AAE_NXZ 0049936d f i libucrt:output.obj
 0001:0009838a       ?type_case_p@?$output_processor@DV?$stream_output_adapter@D@__crt_stdio_output@@V?$format_validation_base@DV?$stream_output_adapter@D@__crt_stdio_output@@@2@@__crt_stdio_output@@AAE_NXZ 0049938a f i libucrt:output.obj
 0001:0009838a       ?type_case_p@?$output_processor@DV?$stream_output_adapter@D@__crt_stdio_output@@V?$standard_base@DV?$stream_output_adapter@D@__crt_stdio_output@@@2@@__crt_stdio_output@@AAE_NXZ 0049938a f i libucrt:output.obj
 0001:0009838a       ?type_case_p@?$output_processor@DV?$string_output_adapter@D@__crt_stdio_output@@V?$format_validation_base@DV?$string_output_adapter@D@__crt_stdio_output@@@2@@__crt_stdio_output@@AAE_NXZ 0049938a f i libucrt:output.obj
 0001:0009838a       ?type_case_p@?$output_processor@DV?$string_output_adapter@D@__crt_stdio_output@@V?$standard_base@DV?$string_output_adapter@D@__crt_stdio_output@@@2@@__crt_stdio_output@@AAE_NXZ 0049938a f i libucrt:output.obj
 0001:000983a0       ?type_case_s@?$output_processor@DV?$stream_output_adapter@D@__crt_stdio_output@@V?$format_validation_base@DV?$stream_output_adapter@D@__crt_stdio_output@@@2@@__crt_stdio_output@@AAE_NXZ 004993a0 f i libucrt:output.obj
 0001:000983a0       ?type_case_s@?$output_processor@DV?$stream_output_adapter@D@__crt_stdio_output@@V?$standard_base@DV?$stream_output_adapter@D@__crt_stdio_output@@@2@@__crt_stdio_output@@AAE_NXZ 004993a0 f i libucrt:output.obj
 0001:000983a0       ?type_case_s@?$output_processor@DV?$string_output_adapter@D@__crt_stdio_output@@V?$format_validation_base@DV?$string_output_adapter@D@__crt_stdio_output@@@2@@__crt_stdio_output@@AAE_NXZ 004993a0 f i libucrt:output.obj
 0001:000983a0       ?type_case_s@?$output_processor@DV?$string_output_adapter@D@__crt_stdio_output@@V?$standard_base@DV?$string_output_adapter@D@__crt_stdio_output@@@2@@__crt_stdio_output@@AAE_NXZ 004993a0 f i libucrt:output.obj
 0001:00098412       ?unget@?$c_string_character_source@D@__crt_strtox@@QAEXD@Z 00499412 f i libucrt:output.obj
 0001:0009843b       ?unget@?$c_string_character_source@_W@__crt_strtox@@QAEX_W@Z 0049943b f i libucrt:output.obj
 0001:00098470       ?update_locale_slow@__crt_cached_ptd_host@@AAEXXZ 00499470 f i libucrt:output.obj
 0001:000984cb       ?validate@?$c_string_character_source@D@__crt_strtox@@QBE_NXZ 004994cb f i libucrt:output.obj
 0001:000984cb       ?validate@?$c_string_character_source@_W@__crt_strtox@@QBE_NXZ 004994cb f i libucrt:output.obj
 0001:000984e6       ?validate@?$stream_output_adapter@D@__crt_stdio_output@@QBE_NAAV__crt_cached_ptd_host@@@Z 004994e6 f i libucrt:output.obj
 0001:0009851e       ?validate@?$string_output_adapter@D@__crt_stdio_output@@QBE_NAAV__crt_cached_ptd_host@@@Z 0049951e f i libucrt:output.obj
 0001:0009854f       ?validate_stream_is_ansi_if_required@?$__acrt_stdio_char_traits@D@@SA_NQAU_iobuf@@@Z 0049954f f i libucrt:output.obj
 0001:000985d6       ?write_character@?$output_adapter_common@DV?$stream_output_adapter@D@__crt_stdio_output@@@__crt_stdio_output@@QBEXDQAHAAV__crt_cached_ptd_host@@@Z 004995d6 f i libucrt:output.obj
 0001:000985f8       ?write_character_without_count_update@?$stream_output_adapter@D@__crt_stdio_output@@QBE_NDAAV__crt_cached_ptd_host@@@Z 004995f8 f i libucrt:output.obj
 0001:00098632       ?write_string@?$stream_output_adapter@D@__crt_stdio_output@@QBEXQBDHQAHAAV__crt_cached_ptd_host@@@Z 00499632 f i libucrt:output.obj
 0001:0009865e       ?write_string@?$string_output_adapter@D@__crt_stdio_output@@QBEXQBDHQAHAAV__crt_cached_ptd_host@@@Z 0049965e f i libucrt:output.obj
 0001:000986c5       ?write_string_impl@?$output_adapter_common@DV?$stream_output_adapter@D@__crt_stdio_output@@@__crt_stdio_output@@IBEXQBDHQAHAAV__crt_cached_ptd_host@@@Z 004996c5 f i libucrt:output.obj
 0001:00098744       ___acrt_locale_get_ctype_array_value 00499744 f i libucrt:output.obj
 0001:00098766       ___stdio_common_vfprintf   00499766 f   libucrt:output.obj
 0001:0009880a       ___stdio_common_vfprintf_s 0049980a f   libucrt:output.obj
 0001:000988ae       ___stdio_common_vsprintf   004998ae f   libucrt:output.obj
 0001:000988ef       ___stdio_common_vsprintf_s 004998ef f   libucrt:output.obj
 0001:00098bc1       __localtime64              00499bc1 f   libucrt:localtime.obj
 0001:00098cbe       __strtime                  00499cbe f   libucrt:strtime.obj
 0001:00098cda       __time64                   00499cda f   libucrt:time.obj
 0001:00098d42       _frexp                     00499d42 f   libucrt:frexp.obj
 0001:00098e3c       _calloc                    00499e3c f   libucrt:calloc.obj
 0001:00098e47       _free                      00499e47 f   libucrt:free.obj
 0001:00098e62       _rand                      00499e62 f   libucrt:rand.obj
 0001:00098e83       _srand                     00499e83 f   libucrt:rand.obj
 0001:00098ea0       _strcspn                   00499ea0 f   libucrt:strcspn.obj
 0001:00098ee6       _localeconv                00499ee6 f   libucrt:localeconv.obj
 0001:00098f0e       __dclass                   00499f0e f   libucrt:nan.obj
 0001:00098f1f       __dsign                    00499f1f f   libucrt:nan.obj
 0001:00098f2f       __ldclass                  00499f2f f   libucrt:nanl.obj
 0001:00098f43       ___acrt_initialize_stdio   00499f43 f   libucrt:_file.obj
 0001:0009900b       ___acrt_iob_func           0049a00b f   libucrt:_file.obj
 0001:0009901b       ___acrt_uninitialize_stdio 0049a01b f   libucrt:_file.obj
 0001:00099067       __get_stream_buffer_pointers 0049a067 f   libucrt:_file.obj
 0001:000990ad       __lock_file                0049a0ad f   libucrt:_file.obj
 0001:000990c1       __unlock_file              0049a0c1 f   libucrt:_file.obj
 0001:000990d5       ??$is_overflow_condition@_K@__crt_strtox@@YA_NI_K@Z 0049a0d5 f i libucrt:atox.obj
 0001:00099116       ??$parse_integer@KV?$c_string_character_source@D@__crt_strtox@@$00@__crt_strtox@@YAKAAV__crt_cached_ptd_host@@V?$c_string_character_source@D@0@H_N@Z 0049a116 f i libucrt:atox.obj
 0001:0009935d       ??$parse_integer@KV?$c_string_character_source@_W@__crt_strtox@@$00@__crt_strtox@@YAKAAV__crt_cached_ptd_host@@V?$c_string_character_source@_W@0@H_N@Z 0049a35d f i libucrt:atox.obj
 0001:0009996b       ??$parse_integer@_KV?$c_string_character_source@D@__crt_strtox@@$00@__crt_strtox@@YA_KAAV__crt_cached_ptd_host@@V?$c_string_character_source@D@0@H_N@Z 0049a96b f i libucrt:atox.obj
 0001:00099c33       __ischartype_l             0049ac33 f i libucrt:atox.obj
 0001:00099c8a       __wtol                     0049ac8a f   libucrt:atox.obj
 0001:00099cc9       _atoi                      0049acc9 f   libucrt:atox.obj
 0001:00099d08       ??$assemble_floating_point_snan@N@__crt_strtox@@YAX_NAAN@Z 0049ad08 f i libucrt:input.obj
 0001:00099d29       ??$assemble_floating_point_value_t@M@__crt_strtox@@YA?AW4SLD_STATUS@@_NH_KAAM@Z 0049ad29 f i libucrt:input.obj
 0001:00099d59       ??$assemble_floating_point_value_t@N@__crt_strtox@@YA?AW4SLD_STATUS@@_NH_KAAN@Z 0049ad59 f i libucrt:input.obj
 0001:00099e4f       ??$convert_decimal_string_to_floating_type@M@__crt_strtox@@YA?AW4SLD_STATUS@@ABUfloating_point_string@0@AAM@Z 0049ae4f f i libucrt:input.obj
 0001:00099e70       ??$convert_decimal_string_to_floating_type@N@__crt_strtox@@YA?AW4SLD_STATUS@@ABUfloating_point_string@0@AAN@Z 0049ae70 f i libucrt:input.obj
 0001:00099e91       ??$convert_hexadecimal_string_to_floating_type@M@__crt_strtox@@YA?AW4SLD_STATUS@@ABUfloating_point_string@0@AAM@Z 0049ae91 f i libucrt:input.obj
 0001:00099eb2       ??$convert_hexadecimal_string_to_floating_type@N@__crt_strtox@@YA?AW4SLD_STATUS@@ABUfloating_point_string@0@AAN@Z 0049aeb2 f i libucrt:input.obj
 0001:00099ed3       ??$make_input_adapter_character_source@V?$string_input_adapter@D@__crt_stdio_input@@@__crt_strtox@@YA?AV?$input_adapter_character_source@V?$string_input_adapter@D@__crt_stdio_input@@@0@QAV?$string_input_adapter@D@__crt_stdio_input@@_KQA_N@Z 0049aed3 f i libucrt:input.obj
 0001:00099ef1       ??$parse_floating_point@V?$input_adapter_character_source@V?$string_input_adapter@D@__crt_stdio_input@@@__crt_strtox@@M@__crt_strtox@@YA?AW4SLD_STATUS@@QAU__crt_locale_pointers@@V?$input_adapter_character_source@V?$string_input_adapter@D@__crt_stdio_input@@@0@QAM@Z 0049aef1 f i libucrt:input.obj
 0001:00099f7b       ??$parse_floating_point@V?$input_adapter_character_source@V?$string_input_adapter@D@__crt_stdio_input@@@__crt_strtox@@N@__crt_strtox@@YA?AW4SLD_STATUS@@QAU__crt_locale_pointers@@V?$input_adapter_character_source@V?$string_input_adapter@D@__crt_stdio_input@@@0@QAN@Z 0049af7b f i libucrt:input.obj
 0001:0009a005       ??$parse_floating_point_from_source@V?$input_adapter_character_source@V?$string_input_adapter@D@__crt_stdio_input@@@__crt_strtox@@@__crt_strtox@@YA?AW4floating_point_parse_result@0@QAU__crt_locale_pointers@@AAV?$input_adapter_character_source@V?$string_input_adapter@D@__crt_stdio_input@@@0@AAUfloating_point_string@0@@Z 0049b005 f i libucrt:input.obj
 0001:0009a467       ??$parse_floating_point_possible_infinity@DV?$input_adapter_character_source@V?$string_input_adapter@D@__crt_stdio_input@@@__crt_strtox@@_K@__crt_strtox@@YA?AW4floating_point_parse_result@0@AADAAV?$input_adapter_character_source@V?$string_input_adapter@D@__crt_stdio_input@@@0@_K@Z 0049b467 f i libucrt:input.obj
 0001:0009a526       ??$parse_floating_point_possible_nan@DV?$input_adapter_character_source@V?$string_input_adapter@D@__crt_stdio_input@@@__crt_strtox@@_K@__crt_strtox@@YA?AW4floating_point_parse_result@0@AADAAV?$input_adapter_character_source@V?$string_input_adapter@D@__crt_stdio_input@@@0@_K@Z 0049b526 f i libucrt:input.obj
 0001:0009a62e       ??$parse_floating_point_possible_nan_is_ind@DV?$input_adapter_character_source@V?$string_input_adapter@D@__crt_stdio_input@@@__crt_strtox@@@__crt_strtox@@YA_NAADAAV?$input_adapter_character_source@V?$string_input_adapter@D@__crt_stdio_input@@@0@@Z 0049b62e f i libucrt:input.obj
 0001:0009a668       ??$parse_floating_point_possible_nan_is_snan@DV?$input_adapter_character_source@V?$string_input_adapter@D@__crt_stdio_input@@@__crt_strtox@@@__crt_strtox@@YA_NAADAAV?$input_adapter_character_source@V?$string_input_adapter@D@__crt_stdio_input@@@0@@Z 0049b668 f i libucrt:input.obj
 0001:0009a6a2       ??$parse_floating_point_write_result@M@__crt_strtox@@YA?AW4SLD_STATUS@@W4floating_point_parse_result@0@ABUfloating_point_string@0@QAM@Z 0049b6a2 f i libucrt:input.obj
 0001:0009a80e       ??$parse_floating_point_write_result@N@__crt_strtox@@YA?AW4SLD_STATUS@@W4floating_point_parse_result@0@ABUfloating_point_string@0@QAN@Z 0049b80e f i libucrt:input.obj
 0001:0009a932       ??$parse_integer@_KV?$input_adapter_character_source@V?$string_input_adapter@D@__crt_stdio_input@@@__crt_strtox@@$00@__crt_strtox@@YA_KAAV__crt_cached_ptd_host@@V?$input_adapter_character_source@V?$string_input_adapter@D@__crt_stdio_input@@@0@H_N@Z 0049b932 f i libucrt:input.obj
 0001:0009ac36       ??$parse_integer@_KV?$input_adapter_character_source@V?$string_input_adapter@D@__crt_stdio_input@@@__crt_strtox@@@__crt_strtox@@YA_KQAU__crt_locale_pointers@@V?$input_adapter_character_source@V?$string_input_adapter@D@__crt_stdio_input@@@0@H_N@Z 0049bc36 f i libucrt:input.obj
 0001:0009ac92       ??$process_floating_point_specifier_t@M@?$input_processor@DV?$string_input_adapter@D@__crt_stdio_input@@@__crt_stdio_input@@AAE_NXZ 0049bc92 f i libucrt:input.obj
 0001:0009acfb       ??$process_floating_point_specifier_t@N@?$input_processor@DV?$string_input_adapter@D@__crt_stdio_input@@@__crt_stdio_input@@AAE_NXZ 0049bcfb f i libucrt:input.obj
 0001:0009ad64       ??$process_string_specifier_tchar@D@?$input_processor@DV?$string_input_adapter@D@__crt_stdio_input@@@__crt_stdio_input@@AAE_NW4conversion_mode@1@D@Z 0049bd64 f i libucrt:input.obj
 0001:0009aec6       ??$process_string_specifier_tchar@_W@?$input_processor@DV?$string_input_adapter@D@__crt_stdio_input@@@__crt_stdio_input@@AAE_NW4conversion_mode@1@_W@Z 0049bec6 f i libucrt:input.obj
 0001:0009b034       ??$skip_whitespace@Vstring_input_adapter@__crt_stdio_input@@D@__crt_stdio_input@@YAHAAV?$string_input_adapter@D@0@QAU__crt_locale_pointers@@@Z 0049c034 f i libucrt:input.obj
 0001:0009b063       ??$write_floating_point@M@?$input_processor@DV?$string_input_adapter@D@__crt_stdio_input@@@__crt_stdio_input@@AAE_NABM@Z 0049c063 f i libucrt:input.obj
 0001:0009b098       ??$write_floating_point@N@?$input_processor@DV?$string_input_adapter@D@__crt_stdio_input@@@__crt_stdio_input@@AAE_NABN@Z 0049c098 f i libucrt:input.obj
 0001:0009b0d3       ??0?$format_string_parser@D@__crt_stdio_input@@QAE@_KQBE@Z 0049c0d3 f i libucrt:input.obj
 0001:0009b11d       ??0?$input_adapter_character_source@V?$string_input_adapter@D@__crt_stdio_input@@@__crt_strtox@@QAE@$$QAV01@@Z 0049c11d f i libucrt:input.obj
 0001:0009b15a       ??0?$input_adapter_character_source@V?$string_input_adapter@D@__crt_stdio_input@@@__crt_strtox@@QAE@QAV?$string_input_adapter@D@__crt_stdio_input@@_KQA_N@Z 0049c15a f i libucrt:input.obj
 0001:0009b18b       ??0?$input_processor@DV?$string_input_adapter@D@__crt_stdio_input@@@__crt_stdio_input@@QAE@ABV?$string_input_adapter@D@1@_KQBDQAU__crt_locale_pointers@@QAD@Z 0049c18b f i libucrt:input.obj
 0001:0009b1cf       ??0_LocaleUpdate@@QAE@QAU__crt_locale_pointers@@@Z 0049c1cf f i libucrt:input.obj
 0001:0009b251       ??R<lambda_644f8ab42ed3fd1d660977a2364b3a7d>@@QBE@XZ 0049c251 f i libucrt:input.obj
 0001:0009b251       ??R<lambda_f1fa4c266c18b246f3ed9c36247dab4f>@@QBE@XZ 0049c251 f i libucrt:input.obj
 0001:0009b251       ??R<lambda_f765c90ab33e8386abf09c0f079d37e9>@@QBE@XZ 0049c251 f i libucrt:input.obj
 0001:0009b27b       ?advance@?$format_string_parser@D@__crt_stdio_input@@QAE_NXZ 0049c27b f i libucrt:input.obj
 0001:0009b393       ?as_double@floating_point_value@__crt_strtox@@QBEAANXZ 0049c393 f i libucrt:input.obj
 0001:0009b3b8       ?as_float@floating_point_value@__crt_strtox@@QBEAAMXZ 0049c3b8 f i libucrt:input.obj
 0001:0009b3dd       ?assemble_floating_point_infinity@__crt_strtox@@YAX_NABVfloating_point_value@1@@Z 0049c3dd f i libucrt:input.obj
 0001:0009b41d       ?assemble_floating_point_value@__crt_strtox@@YA?AW4SLD_STATUS@@_KH_N1ABVfloating_point_value@1@@Z 0049c41d f i libucrt:input.obj
 0001:0009b776       ?assemble_floating_point_value_from_big_integer@__crt_strtox@@YA?AW4SLD_STATUS@@ABUbig_integer@1@I_N1ABVfloating_point_value@1@@Z 0049c776 f i libucrt:input.obj
 0001:0009b908       ?assemble_floating_point_zero@__crt_strtox@@YAX_NABVfloating_point_value@1@@Z 0049c908 f i libucrt:input.obj
 0001:0009b93d       ?convert_decimal_string_to_floating_type_common@__crt_strtox@@YA?AW4SLD_STATUS@@ABUfloating_point_string@1@ABVfloating_point_value@1@@Z 0049c93d f i libucrt:input.obj
 0001:0009d6e3       ?convert_hexadecimal_string_to_floating_type_common@__crt_strtox@@YA?AW4SLD_STATUS@@ABUfloating_point_string@1@ABVfloating_point_value@1@@Z 0049e6e3 f i libucrt:input.obj
 0001:0009d789       ?denormal_mantissa_mask@floating_point_value@__crt_strtox@@QBE_KXZ 0049e789 f i libucrt:input.obj
 0001:0009d7a0       ?divide@__crt_strtox@@YA_KAAUbig_integer@1@ABU21@@Z 0049e7a0 f i libucrt:input.obj
 0001:0009dc4b       ?get@?$input_adapter_character_source@V?$string_input_adapter@D@__crt_stdio_input@@@__crt_strtox@@QAEDXZ 0049ec4b f i libucrt:input.obj
 0001:0009dc82       ?get@?$string_input_adapter@D@__crt_stdio_input@@QAEHXZ 0049ec82 f i libucrt:input.obj
 0001:0009dc98       ?is_character_allowed_in_string@?$input_processor@DV?$string_input_adapter@D@__crt_stdio_input@@@__crt_stdio_input@@ABE_NW4conversion_mode@2@H@Z 0049ec98 f i libucrt:input.obj
 0001:0009dce8       ?length@?$format_string_parser@D@__crt_stdio_input@@QBEIXZ 0049ece8 f i libucrt:input.obj
 0001:0009dd36       ?normal_mantissa_mask@floating_point_value@__crt_strtox@@QBE_KXZ 0049ed36 f i libucrt:input.obj
 0001:0009dd4d       ?process@?$input_processor@DV?$string_input_adapter@D@__crt_stdio_input@@@__crt_stdio_input@@QAEHXZ 0049ed4d f i libucrt:input.obj
 0001:0009ddd1       ?process_character_count_specifier@?$input_processor@DV?$string_input_adapter@D@__crt_stdio_input@@@__crt_stdio_input@@AAE_NXZ 0049edd1 f i libucrt:input.obj
 0001:0009dde9       ?process_conversion_specifier@?$input_processor@DV?$string_input_adapter@D@__crt_stdio_input@@@__crt_stdio_input@@AAE_NXZ 0049ede9 f i libucrt:input.obj
 0001:0009de5d       ?process_floating_point_specifier@?$input_processor@DV?$string_input_adapter@D@__crt_stdio_input@@@__crt_stdio_input@@AAE_NXZ 0049ee5d f i libucrt:input.obj
 0001:0009de8d       ?process_integer_specifier@?$input_processor@DV?$string_input_adapter@D@__crt_stdio_input@@@__crt_stdio_input@@AAE_NI_N@Z 0049ee8d f i libucrt:input.obj
 0001:0009def2       ?process_literal_character@?$input_processor@DV?$string_input_adapter@D@__crt_stdio_input@@@__crt_stdio_input@@AAE_NXZ 0049eef2 f i libucrt:input.obj
 0001:0009df28       ?process_literal_character_tchar@?$input_processor@DV?$string_input_adapter@D@__crt_stdio_input@@@__crt_stdio_input@@AAE_ND@Z 0049ef28 f i libucrt:input.obj
 0001:0009df76       ?process_state@?$input_processor@DV?$string_input_adapter@D@__crt_stdio_input@@@__crt_stdio_input@@AAE_NXZ 0049ef76 f i libucrt:input.obj
 0001:0009dfb8       ?process_string_specifier@?$input_processor@DV?$string_input_adapter@D@__crt_stdio_input@@@__crt_stdio_input@@AAE_NW4conversion_mode@2@@Z 0049efb8 f i libucrt:input.obj
 0001:0009e000       ?process_whitespace@?$input_processor@DV?$string_input_adapter@D@__crt_stdio_input@@@__crt_stdio_input@@AAE_NXZ 0049f000 f i libucrt:input.obj
 0001:0009e01d       ?restore_state@?$input_adapter_character_source@V?$string_input_adapter@D@__crt_stdio_input@@@__crt_strtox@@QAE_N_K@Z 0049f01d f i libucrt:input.obj
 0001:0009e042       ?scan_conversion_specifier@?$format_string_parser@D@__crt_stdio_input@@AAE_NXZ 0049f042 f i libucrt:input.obj
 0001:0009e1be       ?scan_optional_field_width@?$format_string_parser@D@__crt_stdio_input@@AAE_NXZ 0049f1be f i libucrt:input.obj
 0001:0009e252       ?scan_optional_length_modifier@?$format_string_parser@D@__crt_stdio_input@@AAEXXZ 0049f252 f i libucrt:input.obj
 0001:0009e372       ?scan_optional_literal_character_trail_bytes_tchar@?$format_string_parser@D@__crt_stdio_input@@AAE_ND@Z 0049f372 f i libucrt:input.obj
 0001:0009e3c4       ?scan_optional_wide_modifier@?$format_string_parser@D@__crt_stdio_input@@AAEXXZ 0049f3c4 f i libucrt:input.obj
 0001:0009e3e2       ?scan_scanset_range@?$format_string_parser@D@__crt_stdio_input@@AAE_NXZ 0049f3e2 f i libucrt:input.obj
 0001:0009e51b       ?set@?$scanset_buffer@E@__crt_stdio_input@@QAEXE@Z 0049f51b f i libucrt:input.obj
 0001:0009e546       ?set_wide_for_c_s_or_scanset@?$format_string_parser@D@__crt_stdio_input@@AAEXXZ 0049f546 f i libucrt:input.obj
 0001:0009e567       ?to_floating_point_length@__crt_stdio_input@@YAIW4length_modifier@1@@Z 0049f567 f i libucrt:input.obj
 0001:0009e58a       ?to_integer_length@__crt_stdio_input@@YAIW4length_modifier@1@@Z 0049f58a f i libucrt:input.obj
 0001:0009e5dd       ?unget@?$input_adapter_character_source@V?$string_input_adapter@D@__crt_stdio_input@@@__crt_strtox@@QAEXD@Z 0049f5dd f i libucrt:input.obj
 0001:0009e624       ?unget@?$string_input_adapter@D@__crt_stdio_input@@QAEXH@Z 0049f624 f i libucrt:input.obj
 0001:0009e643       ?validate@?$format_string_parser@D@__crt_stdio_input@@QBE_NXZ 0049f643 f i libucrt:input.obj
 0001:0009e65f       ?validate@?$input_adapter_character_source@V?$string_input_adapter@D@__crt_stdio_input@@@__crt_strtox@@QBE_NXZ 0049f65f f i libucrt:input.obj
 0001:0009e680       ?validate@?$string_input_adapter@D@__crt_stdio_input@@QAE_NXZ 0049f680 f i libucrt:input.obj
 0001:0009e6a2       ?write_character@?$input_processor@DV?$string_input_adapter@D@__crt_stdio_input@@@__crt_stdio_input@@AAE_NQA_WIAAPA_WAAID@Z 0049f6a2 f i libucrt:input.obj
 0001:0009e70f       ?write_integer@?$input_processor@DV?$string_input_adapter@D@__crt_stdio_input@@@__crt_stdio_input@@AAE_N_K@Z 0049f70f f i libucrt:input.obj
 0001:0009e77e       ___stdio_common_vsscanf    0049f77e f   libucrt:input.obj
 0001:0009e830       _strncmp                   0049f830 f   libucrt:strncmp.obj
 0001:0009e8b0       _strncpy                   0049f8b0 f   libucrt:strncpy.obj
 0001:0009e9e0       __libm_sse2_cos_precise    0049f9e0 f   libucrt:cos_sse2_precise.obj
 0001:0009eba0       __libm_sse2_sin_precise    0049fba0 f   libucrt:sin_sse2_precise.obj
 0001:0009ed68       _malloc                    0049fd68 f   libucrt:malloc.obj
 0001:0009ed73       ___acrt_errno_from_os_error 0049fd73 f   libucrt:errno.obj
 0001:0009edb6       ___acrt_errno_map_os_error 0049fdb6 f   libucrt:errno.obj
 0001:0009edd9       ___acrt_errno_map_os_error_ptd 0049fdd9 f   libucrt:errno.obj
 0001:0009edfd       ___doserrno                0049fdfd f   libucrt:errno.obj
 0001:0009ee10       __errno                    0049fe10 f   libucrt:errno.obj
 0001:0009ef48       _fclose                    0049ff48 f   libucrt:fclose.obj
 0001:0009f01f       __fwrite_internal          004a001f f   libucrt:fwrite.obj
 0001:0009f096       __fwrite_nolock_internal   004a0096 f   libucrt:fwrite.obj
 0001:0009f23d       _fwrite                    004a023d f   libucrt:fwrite.obj
 0001:0009f280       __libm_sse2_sqrt_precise   004a0280 f   libucrt:sqrt_sse2_precise.obj
 0001:0009f380       __libm_sse2_asin_precise   004a0380 f   libucrt:asin_sse2_precise.obj
 0001:0009f8e0       __libm_sse2_pow_precise    004a08e0 f   libucrt:pow_sse2_precise.obj
 0001:000a0430       _ceil                      004a1430 f   libucrt:ceil_pentium4.obj
 0001:000a0470       __ceil_pentium4            004a1470 f   libucrt:ceil_pentium4.obj
 0001:000a054d       __fread_nolock_s           004a154d f   libucrt:fread.obj
 0001:000a0726       _fread                     004a1726 f   libucrt:fread.obj
 0001:000a0743       _fread_s                   004a1743 f   libucrt:fread.obj
 0001:000a07e0       ?LongLongSub@@YAJ_J0PA_J@Z 004a17e0 f i libucrt:fseek.obj
 0001:000a0ac9       __fseeki64                 004a1ac9 f   libucrt:fseek.obj
 0001:000a10fa       __ftelli64                 004a20fa f   libucrt:ftell.obj
 0001:000a1130       __ftelli64_nolock_internal 004a2130 f   libucrt:ftell.obj
 0001:000a119f       ??$parse_floating_point@V?$c_string_character_source@D@__crt_strtox@@N@__crt_strtox@@YA?AW4SLD_STATUS@@QAU__crt_locale_pointers@@V?$c_string_character_source@D@0@QAN@Z 004a219f f i libucrt:atof.obj
 0001:000a121f       ??$parse_floating_point_from_source@V?$c_string_character_source@D@__crt_strtox@@@__crt_strtox@@YA?AW4floating_point_parse_result@0@QAU__crt_locale_pointers@@AAV?$c_string_character_source@D@0@AAUfloating_point_string@0@@Z 004a221f f i libucrt:atof.obj
 0001:000a1637       ??$parse_floating_point_possible_infinity@DV?$c_string_character_source@D@__crt_strtox@@PBD@__crt_strtox@@YA?AW4floating_point_parse_result@0@AADAAV?$c_string_character_source@D@0@PBD@Z 004a2637 f i libucrt:atof.obj
 0001:000a16ea       ??$parse_floating_point_possible_nan@DV?$c_string_character_source@D@__crt_strtox@@PBD@__crt_strtox@@YA?AW4floating_point_parse_result@0@AADAAV?$c_string_character_source@D@0@PBD@Z 004a26ea f i libucrt:atof.obj
 0001:000a17ee       ??$parse_floating_point_possible_nan_is_ind@DV?$c_string_character_source@D@__crt_strtox@@@__crt_strtox@@YA_NAADAAV?$c_string_character_source@D@0@@Z 004a27ee f i libucrt:atof.obj
 0001:000a182a       ??$parse_floating_point_possible_nan_is_snan@DV?$c_string_character_source@D@__crt_strtox@@@__crt_strtox@@YA_NAADAAV?$c_string_character_source@D@0@@Z 004a282a f i libucrt:atof.obj
 0001:000a1866       ??R<lambda_32aa245da1b5b882fa96db788295c8b2>@@QBE@XZ 004a2866 f i libucrt:atof.obj
 0001:000a1866       ??R<lambda_690cf26ff5d754c94c32cf642e9f01bc>@@QBE@XZ 004a2866 f i libucrt:atof.obj
 0001:000a1866       ??R<lambda_e51f7abad2595a5950d3223319845217>@@QBE@XZ 004a2866 f i libucrt:atof.obj
 0001:000a188c       _atof                      004a288c f   libucrt:atof.obj
 0001:000a189f       __fgetc_nolock             004a289f f   libucrt:fgetc.obj
 0001:000a18db       __fgetchar                 004a28db f   libucrt:fgetc.obj
 0001:000a18eb       _fgetc                     004a28eb f   libucrt:fgetc.obj
 0001:000a1a04       _getchar                   004a2a04 f   libucrt:fgetc.obj
 0001:000a1c42       ___acrt_stdio_flush_nolock 004a2c42 f   libucrt:fflush.obj
 0001:000a1cab       __fflush_nolock            004a2cab f   libucrt:fflush.obj
 0001:000a1d10       __flushall                 004a2d10 f   libucrt:fflush.obj
 0001:000a1d19       _fflush                    004a2d19 f   libucrt:fflush.obj
 0001:000a1d6c       _fgetpos                   004a2d6c f   libucrt:fgetpos.obj
 0001:000a1efb       __fputc_nolock_internal    004a2efb f   libucrt:fputc.obj
 0001:000a1f28       _fputc                     004a2f28 f   libucrt:fputc.obj
 0001:000a1f5c       _fsetpos                   004a2f5c f   libucrt:fsetpos.obj
 0001:000a215b       _setvbuf                   004a315b f   libucrt:setvbuf.obj
 0001:000a2195       __ungetc_nolock            004a3195 f   libucrt:ungetc.obj
 0001:000a2289       _ungetc                    004a3289 f   libucrt:ungetc.obj
 0001:000a22fc       _abort                     004a32fc f   libucrt:abort.obj
 0001:000a2340       ___acrt_initialize_locks   004a3340 f   libucrt:locks.obj
 0001:000a2381       ___acrt_lock               004a3381 f   libucrt:locks.obj
 0001:000a2398       ___acrt_uninitialize_locks 004a3398 f   libucrt:locks.obj
 0001:000a23c9       ___acrt_unlock             004a33c9 f   libucrt:locks.obj
 0001:000a23e0       __lock_locales             004a33e0 f   libucrt:locks.obj
 0001:000a23ee       __unlock_locales           004a33ee f   libucrt:locks.obj
 0001:000a264c       _setlocale                 004a364c f   libucrt:setlocale.obj
 0001:000a2684       ___pctype_func             004a3684 f   libucrt:ctype.obj
 0001:000a26b0       _islower                   004a36b0 f   libucrt:_ctype.obj
 0001:000a2740       _isspace                   004a3740 f   libucrt:_ctype.obj
 0001:000a27d0       _isupper                   004a37d0 f   libucrt:_ctype.obj
 0001:000a2854       ____lc_codepage_func       004a3854 f   libucrt:initctype.obj
 0001:000a2879       ____lc_locale_name_func    004a3879 f   libucrt:initctype.obj
 0001:000a28a0       ____mb_cur_max_func        004a38a0 f   libucrt:initctype.obj
 0001:000a28c5       ___acrt_locale_initialize_ctype 004a38c5 f   libucrt:initctype.obj
 0001:000a2d22       __wcsdup                   004a3d22 f   libucrt:wcsdup.obj
 0001:000a2d81       ___strncnt                 004a3d81 f   libucrt:strncnt.obj
 0001:000a2d9d       ??$__acrt_convert_wcs_mbs_cp@D_WV<lambda_62f6974d9771e494a5ea317cc32e971c>@@U__crt_win32_buffer_internal_dynamic_resizing@@@@YAHQBDAAV?$__crt_win32_buffer@_WU__crt_win32_buffer_internal_dynamic_resizing@@@@ABV<lambda_62f6974d9771e494a5ea317cc32e971c>@@I@Z 004a3d9d f i libucrt:strftime.obj
 0001:000a2e4f       ??$__acrt_convert_wcs_mbs_cp@_WDV<lambda_0fec1a7b3f42a53036604e18c2d5e07e>@@U__crt_win32_buffer_no_resizing@@@@YAHQB_WAAV?$__crt_win32_buffer@DU__crt_win32_buffer_no_resizing@@@@ABV<lambda_0fec1a7b3f42a53036604e18c2d5e07e>@@I@Z 004a3e4f f i libucrt:strftime.obj
 0001:000a2f11       ??$__acrt_mbs_to_wcs_cp@U__crt_win32_buffer_internal_dynamic_resizing@@@@YAHQBDAAV?$__crt_win32_buffer@_WU__crt_win32_buffer_internal_dynamic_resizing@@@@I@Z 004a3f11 f i libucrt:strftime.obj
 0001:000a2f2e       ??R<lambda_0fec1a7b3f42a53036604e18c2d5e07e>@@QBE@IQB_WQADI@Z 004a3f2e f i libucrt:strftime.obj
 0001:000a2f2e       ??R<lambda_28bda7af82a03b66c1cb3803a755f95d>@@QBE@IQB_WQADI@Z 004a3f2e f i libucrt:argv_wildcards.obj
 0001:000a2f52       ?_deallocate@?$__crt_win32_buffer@DU__crt_win32_buffer_internal_dynamic_resizing@@@@AAEXXZ 004a3f52 f i libucrt:argv_wildcards.obj
 0001:000a2f52       ?_deallocate@?$__crt_win32_buffer@_WU__crt_win32_buffer_internal_dynamic_resizing@@@@AAEXXZ 004a3f52 f i libucrt:strftime.obj
 0001:000a2f6c       ?allocate@?$__crt_win32_buffer@DU__crt_win32_buffer_no_resizing@@@@QAEHI@Z 004a3f6c f i libucrt:strftime.obj
 0001:000a2f93       ?allocate@?$__crt_win32_buffer@_WU__crt_win32_buffer_internal_dynamic_resizing@@@@QAEHI@Z 004a3f93 f i libucrt:strftime.obj
 0001:000a2fd2       ?allocate@__crt_win32_buffer_internal_dynamic_resizing@@SAHQAPAXIABV__crt_win32_buffer_empty_debug_info@@@Z 004a3fd2 f i libucrt:strftime.obj
 0001:000a2ff1       ?set_to_nullptr@?$__crt_win32_buffer@DU__crt_win32_buffer_no_resizing@@@@QAEXXZ 004a3ff1 f i libucrt:strftime.obj
 0001:000a3005       ??$__crt_time_is_leap_year@H@@YA_NH@Z 004a4005 f i libucrt:wcsftime.obj
 0001:000a3048       _strnlen                   004a4048 f   libucrt:strnlen.obj
 0001:000a316a       _wcsnlen                   004a416a f   libucrt:strnlen.obj
 0001:000a331a       ??$__crt_fast_decode_pointer@P6AHI@Z@@YAP6AHI@ZQ6AHI@Z@Z 004a431a f i libucrt:new_handler.obj
 0001:000a331a       ??$__crt_fast_decode_pointer@P6AXH@Z@@YAP6AXH@ZQ6AXH@Z@Z 004a431a f i libucrt:signal.obj
 0001:000a331a       ??$__crt_fast_decode_pointer@P6GXPAXK0@Z@@YAP6GXPAXK0@ZQ6GX0K0@Z@Z 004a431a f i libucrt:exit.obj
 0001:000a3335       ___acrt_initialize_new_handler 004a4335 f   libucrt:new_handler.obj
 0001:000a3344       __callnewh                 004a4344 f   libucrt:new_handler.obj
 0001:000a3370       __query_new_handler        004a4370 f   libucrt:new_handler.obj
 0001:000a33c7       __seh_filter_exe           004a43c7 f   libucrt:exception_filter.obj
 0001:000a355a       ??$__crt_fast_encode_pointer@P6AHPAU_exception@@@Z@@YAP6AHPAU_exception@@@ZQ6AH0@Z@Z 004a455a f i libucrt:matherr.obj
 0001:000a355a       ??$__crt_fast_encode_pointer@P6AHXZ@@YAP6AHXZQ6AHXZ@Z 004a455a f i libucrt:onexit.obj
 0001:000a355a       ??$__crt_fast_encode_pointer@P6GHPA_WKJ@Z@@YAP6GHPA_WKJ@ZQ6GH0KJ@Z@Z 004a455a f i libucrt:winapi_thunks.obj
 0001:000a355a       ??$__crt_fast_encode_pointer@P6GXPAXK0@Z@@YAP6GXPAXK0@ZQ6GX0K0@Z@Z 004a455a f i libucrt:exit.obj
 0001:000a355a       ??$__crt_fast_encode_pointer@PAP6AXXZ@@YAPAP6AXXZQAP6AXXZ@Z 004a455a f i libucrt:onexit.obj
 0001:000a355a       ??$__crt_fast_encode_pointer@PAX@@YAPAXQAX@Z 004a455a f i libucrt:initialization.obj
 0001:000a37c4       ___acrt_initialize_thread_local_exit_callback 004a47c4 f   libucrt:exit.obj
 0001:000a37d3       __c_exit                   004a47d3 f   libucrt:exit.obj
 0001:000a37e2       __cexit                    004a47e2 f   libucrt:exit.obj
 0001:000a37f1       __exit                     004a47f1 f   libucrt:exit.obj
 0001:000a3807       __register_thread_local_exe_atexit_callback 004a4807 f   libucrt:exit.obj
 0001:000a382d       _exit                      004a482d f   libucrt:exit.obj
 0001:000a3af4       ___acrt_allocate_buffer_for_argv 004a4af4 f   libucrt:argv_parsing.obj
 0001:000a3b43       __configure_narrow_argv    004a4b43 f   libucrt:argv_parsing.obj
 0001:000a3fbe       ___dcrt_get_or_create_narrow_environment_nolock 004a4fbe f   libucrt:environment_initialization.obj
 0001:000a3fc3       ___dcrt_get_or_create_wide_environment_nolock 004a4fc3 f   libucrt:environment_initialization.obj
 0001:000a3fc8       ___dcrt_uninitialize_environments_nolock 004a4fc8 f   libucrt:environment_initialization.obj
 0001:000a4019       __get_initial_narrow_environment 004a5019 f   libucrt:environment_initialization.obj
 0001:000a402d       __initialize_narrow_environment 004a502d f   libucrt:environment_initialization.obj
 0001:000a42c4       __crt_atexit               004a52c4 f   libucrt:onexit.obj
 0001:000a42da       __execute_onexit_table     004a52da f   libucrt:onexit.obj
 0001:000a4318       __initialize_onexit_table  004a5318 f   libucrt:onexit.obj
 0001:000a4341       __register_onexit_function 004a5341 f   libucrt:onexit.obj
 0001:000a446f       ___acrt_initialize         004a546f f   libucrt:initialization.obj
 0001:000a4481       ___acrt_uninitialize       004a5481 f   libucrt:initialization.obj
 0001:000a44b1       __errcode                  004a54b1 f   libucrt:fpexcept.obj
 0001:000a44e5       __except1                  004a54e5 f   libucrt:fpexcept.obj
 0001:000a45b3       __handle_exc               004a55b3 f   libucrt:fpexcept.obj
 0001:000a4833       __raise_exc                004a5833 f   libucrt:fpexcept.obj
 0001:000a4856       __raise_exc_ex             004a5856 f   libucrt:fpexcept.obj
 0001:000a4b47       __set_errno_from_matherr   004a5b47 f   libucrt:fpexcept.obj
 0001:000a4b78       __umatherr                 004a5b78 f   libucrt:fpexcept.obj
 0001:000a4c18       _terminate                 004a5c18 f   libucrt:terminate.obj
 0001:000a4c54       __query_app_type           004a5c54 f   libucrt:report_runtime_error.obj
 0001:000a4c5a       __set_app_type             004a5c5a f   libucrt:report_runtime_error.obj
 0001:000a4c69       ___acrt_has_user_matherr   004a5c69 f   libucrt:matherr.obj
 0001:000a4c86       ___acrt_initialize_user_matherr 004a5c86 f   libucrt:matherr.obj
 0001:000a4c95       ___acrt_invoke_user_matherr 004a5c95 f   libucrt:matherr.obj
 0001:000a4ccb       ___setusermatherr          004a5ccb f   libucrt:matherr.obj
 0001:000a4ce0       __initterm                 004a5ce0 f   libucrt:initterm.obj
 0001:000a4d0b       __initterm_e               004a5d0b f   libucrt:initterm.obj
 0001:000a4d39       __set_fmode                004a5d39 f   libucrt:setmode.obj
 0001:000a4d76       ___acrt_initialize_command_line 004a5d76 f   libucrt:argv_data.obj
 0001:000a4d8f       ___p___argc                004a5d8f f   libucrt:argv_data.obj
 0001:000a4d95       ___p___argv                004a5d95 f   libucrt:argv_data.obj
 0001:000a4e9b       ??0_expandlocale_locale_name_cache@@QAE@QA_WIQAU__crt_qualified_locale_data@@@Z 004a5e9b f i libucrt:wsetlocale.obj
 0001:000a4ee5       ??1_expandlocale_locale_name_cache@@QAE@XZ 004a5ee5 f i libucrt:wsetlocale.obj
 0001:000a507d       ?commit_locale_name@_expandlocale_locale_name_cache@@QAEXQB_WI@Z 004a607d f i libucrt:wsetlocale.obj
 0001:000a50c1       ?commit_locale_name_cache_already_updated@_expandlocale_locale_name_cache@@QAEXQB_WI@Z 004a60c1 f i libucrt:wsetlocale.obj
 0001:000a50f6       ___acrt_copy_locale_name   004a60f6 f   libucrt:wsetlocale.obj
 0001:000a5156       ___acrt_set_locale_changed 004a6156 f   libucrt:wsetlocale.obj
 0001:000a5161       ___acrt_uninitialize_locale 004a6161 f   libucrt:wsetlocale.obj
 0001:000a5188       ___lc_lctowcs              004a6188 f   libucrt:wsetlocale.obj
 0001:000a51f8       ___lc_wcstolc              004a61f8 f   libucrt:wsetlocale.obj
 0001:000a5335       __configthreadlocale       004a6335 f   libucrt:wsetlocale.obj
 0001:000a578c       __wcscats                  004a678c f   libucrt:wsetlocale.obj
 0001:000a57cd       __wsetlocale               004a67cd f   libucrt:wsetlocale.obj
 0001:000a64c2       __query_new_mode           004a74c2 f   libucrt:new_mode.obj
 0001:000a64c9       __set_new_mode             004a74c9 f   libucrt:new_mode.obj
 0001:000a64f8       ___p__commode              004a74f8 f   libucrt:ncommode.obj
 0001:000a64fe       __controlfp_s              004a74fe f   libucrt:contrlfp.obj
 0001:000a655d       _strcpy_s                  004a755d f   libucrt:strcpy_s.obj
 0001:000a65b7       _wcsncmp                   004a75b7 f   libucrt:wcsncmp.obj
 0001:000a692f       ___acrt_getptd             004a792f f   libucrt:per_thread_data.obj
 0001:000a69ea       ___acrt_getptd_head        004a79ea f   libucrt:per_thread_data.obj
 0001:000a6a80       ___acrt_getptd_noexit      004a7a80 f   libucrt:per_thread_data.obj
 0001:000a6b31       ___acrt_getptd_noexit_explicit 004a7b31 f   libucrt:per_thread_data.obj
 0001:000a6bd4       ___acrt_initialize_ptd     004a7bd4 f   libucrt:per_thread_data.obj
 0001:000a6c00       ___acrt_uninitialize_ptd   004a7c00 f   libucrt:per_thread_data.obj
 0001:000a6c1a       __free_base                004a7c1a f   libucrt:free_base.obj
 0001:000a6c54       __malloc_base              004a7c54 f   libucrt:malloc_base.obj
 0001:000a6ca2       ___acrt_update_locale_info 004a7ca2 f   libucrt:locale_update.obj
 0001:000a6ccf       ___acrt_update_locale_info_explicit 004a7ccf f   libucrt:locale_update.obj
 0001:000a6d00       ___acrt_update_multibyte_info 004a7d00 f   libucrt:locale_update.obj
 0001:000a6d2d       ___acrt_update_multibyte_info_explicit 004a7d2d f   libucrt:locale_update.obj
 0001:000a6d5e       ?__acrt_fp_classify@@YA?AW4__acrt_fp_class@@ABN@Z 004a7d5e f i libucrt:cvt.obj
 0001:000a7736       ___acrt_fp_format          004a8736 f   libucrt:cvt.obj
 0001:000a78b7       __wctomb_internal          004a88b7 f   libucrt:wctomb.obj
 0001:000a7a21       __mbtowc_internal          004a8a21 f   libucrt:mbtowc.obj
 0001:000a7b54       __mbtowc_l                 004a8b54 f   libucrt:mbtowc.obj
 0001:000a7b8c       __fileno                   004a8b8c f   libucrt:fileno.obj
 0001:000a7bb3       __get_printf_count_output  004a8bb3 f   libucrt:printf_count_output.obj
 0001:000a7bc8       ___acrt_should_use_temporary_buffer 004a8bc8 f   libucrt:_sftbuf.obj
 0001:000a7c06       ___acrt_stdio_begin_temporary_buffering_nolock 004a8c06 f   libucrt:_sftbuf.obj
 0001:000a7cb1       ___acrt_stdio_end_temporary_buffering_nolock 004a8cb1 f   libucrt:_sftbuf.obj
 0001:000a7e55       ___acrt_initialize_lowio   004a8e55 f   libucrt:ioinit.obj
 0001:000a7eb5       ___acrt_uninitialize_lowio 004a8eb5 f   libucrt:ioinit.obj
 0001:000a7ee1       ___acrt_initialize_timeset 004a8ee1 f   libucrt:timeset.obj
 0001:000a7f16       ___daylight                004a8f16 f   libucrt:timeset.obj
 0001:000a7f1c       ___dstbias                 004a8f1c f   libucrt:timeset.obj
 0001:000a7f22       ___timezone                004a8f22 f   libucrt:timeset.obj
 0001:000a7f28       ___tzname                  004a8f28 f   libucrt:timeset.obj
 0001:000a7f2e       ___wide_tzname             004a8f2e f   libucrt:timeset.obj
 0001:000a7f34       __get_daylight             004a8f34 f   libucrt:timeset.obj
 0001:000a7f60       __get_dstbias              004a8f60 f   libucrt:timeset.obj
 0001:000a7f8c       __get_timezone             004a8f8c f   libucrt:timeset.obj
 0001:000a7fb8       ??$__crt_time_elapsed_leap_years@H@@YAHH@Z 004a8fb8 f i libucrt:gmtime.obj
 0001:000a81f5       ___getgmtimebuf            004a91f5 f   libucrt:gmtime.obj
 0001:000a8233       __gmtime64_s               004a9233 f   libucrt:gmtime.obj
 0001:000a823e       ?__acrt_get_utf8_acp_compatibility_codepage@@YAIXZ 004a923e f i libucrt:tzset.obj
 0001:000a8b3c       ___tzset                   004a9b3c f   libucrt:tzset.obj
 0001:000a8b99       __isindst                  004a9b99 f   libucrt:tzset.obj
 0001:000a8f17       ___acrt_AppPolicyGetProcessTerminationMethodInternal@4 004a9f17 f   libucrt:winapi_thunks.obj
 0001:000a8f57       ___acrt_AreFileApisANSI@0  004a9f57 f   libucrt:winapi_thunks.obj
 0001:000a8f76       ___acrt_CompareStringEx@36 004a9f76 f   libucrt:winapi_thunks.obj
 0001:000a8fd3       ___acrt_EnumSystemLocalesEx@16 004a9fd3 f   libucrt:winapi_thunks.obj
 0001:000a9027       ___acrt_FlsAlloc@4         004aa027 f   libucrt:winapi_thunks.obj
 0001:000a9066       ___acrt_FlsFree@4          004aa066 f   libucrt:winapi_thunks.obj
 0001:000a90a5       ___acrt_FlsGetValue@4      004aa0a5 f   libucrt:winapi_thunks.obj
 0001:000a90e4       ___acrt_FlsSetValue@8      004aa0e4 f   libucrt:winapi_thunks.obj
 0001:000a9126       ___acrt_GetLocaleInfoEx@16 004aa126 f   libucrt:winapi_thunks.obj
 0001:000a9165       ___acrt_GetUserDefaultLocaleName@8 004aa165 f   libucrt:winapi_thunks.obj
 0001:000a91a1       ___acrt_InitializeCriticalSectionEx@12 004aa1a1 f   libucrt:winapi_thunks.obj
 0001:000a91ec       ___acrt_IsValidLocaleName@4 004aa1ec f   libucrt:winapi_thunks.obj
 0001:000a9224       ___acrt_LCIDToLocaleName@16 004aa224 f   libucrt:winapi_thunks.obj
 0001:000a9263       ___acrt_LCMapStringEx@36   004aa263 f   libucrt:winapi_thunks.obj
 0001:000a92c0       ___acrt_LocaleNameToLCID@8 004aa2c0 f   libucrt:winapi_thunks.obj
 0001:000a92f1       ___acrt_can_use_vista_locale_apis 004aa2f1 f   libucrt:winapi_thunks.obj
 0001:000a92fc       ___acrt_eagerly_load_locale_apis 004aa2fc f   libucrt:winapi_thunks.obj
 0001:000a9333       ___acrt_initialize_winapi_thunks 004aa333 f   libucrt:winapi_thunks.obj
 0001:000a9347       ___acrt_uninitialize_winapi_thunks 004aa347 f   libucrt:winapi_thunks.obj
 0001:000a937d       __decomp                   004aa37d f   libucrt:util.obj
 0001:000a944f       __set_exp                  004aa44f f   libucrt:util.obj
 0001:000a947c       __sptype                   004aa47c f   libucrt:util.obj
 0001:000a94df       ___set_fpsr_sse2           004aa4df f   libucrt:fpctrl.obj
 0001:000a955f       __clrfp                    004aa55f f   libucrt:fpctrl.obj
 0001:000a9570       __ctrlfp                   004aa570 f   libucrt:fpctrl.obj
 0001:000a959a       __set_statfp               004aa59a f   libucrt:fpctrl.obj
 0001:000a95f3       __statfp                   004aa5f3 f   libucrt:fpctrl.obj
 0001:000a9603       __calloc_base              004aa603 f   libucrt:calloc_base.obj
 0001:000a9660       __dtest                    004aa660 f   libucrt:_test.obj
 0001:000a96c4       __ldtest                   004aa6c4 f   libucrt:_test.obj
 0001:000a96cf       __fcloseall                004aa6cf f   libucrt:closeall.obj
 0001:000a977a       ___acrt_stdio_free_buffer_nolock 004aa77a f   libucrt:_freebuf.obj
 0001:000a97ba       _iswctype                  004aa7ba f   libucrt:iswctype.obj
 0001:000a9823       __isctype_l                004aa823 f   libucrt:isctype.obj
 0001:000a98ee       _strtoull                  004aa8ee f   libucrt:strtox.obj
 0001:000a993a       _wcstol                    004aa93a f   libucrt:strtox.obj
 0001:000a9980       _fegetround                004aa980 f   libucrt:fegetround.obj
 0001:000a9990       __CIcos                    004aa990 f   libucrt:cos_impl.obj
 0001:000a99cb       __CIcos_default            004aa9cb f   libucrt:cos_impl.obj
 0001:000a99df       __cos_default              004aa9df     libucrt:cos_impl.obj
 0001:000a9a80       __CIsin                    004aaa80 f   libucrt:sin_impl.obj
 0001:000a9abb       __CIsin_default            004aaabb f   libucrt:sin_impl.obj
 0001:000a9acf       __sin_default              004aaacf     libucrt:sin_impl.obj
 0001:000a9bf3       __close_internal           004aabf3 f   libucrt:close.obj
 0001:000a9c96       __close_nolock_internal    004aac96 f   libucrt:close.obj
 0001:000a9d36       ?__acrt_stdio_free_stream@@YAXV__crt_stdio_stream@@@Z 004aad36 f   libucrt:stream.obj
 0001:000aa513       __write_internal           004ab513 f   libucrt:write.obj
 0001:000aa624       __write_nolock             004ab624 f   libucrt:write.obj
 0001:000aaa8d       ___acrt_stdio_flush_and_write_narrow_nolock 004aba8d f   libucrt:_flsbuf.obj
 0001:000aaa98       ___libm_error_support      004aba98 f   libucrt:libm_error.obj
 0001:000aac90       _sqrt                      004abc90 f   libucrt:sqrt.obj
 0001:000aaca0       __CIasin                   004abca0 f   libucrt:asin_impl.obj
 0001:000aacdb       __CIasin_default           004abcdb f   libucrt:asin_impl.obj
 0001:000aacef       __asin_default             004abcef     libucrt:asin_impl.obj
 0001:000aadb0       __CIpow                    004abdb0 f   libucrt:pow_impl.obj
 0001:000aadeb       __CIpow_default            004abdeb f   libucrt:pow_impl.obj
 0001:000aae04       __pow_default              004abe04     libucrt:pow_impl.obj
 0001:000aaffc       ___acrt_initialize_sse2    004abffc f   libucrt:mathfcns.obj
 0001:000ab00c       __ceil_default             004ac00c f   libucrt:ceil.obj
 0001:000ab5a6       __read                     004ac5a6 f   libucrt:read.obj
 0001:000ab6bf       __read_nolock              004ac6bf f   libucrt:read.obj
 0001:000abbd9       ___acrt_stdio_refill_and_read_narrow_nolock 004acbd9 f   libucrt:_filbuf.obj
 0001:000abd8c       __lseeki64                 004acd8c f   libucrt:lseek.obj
 0001:000abdcc       __lseeki64_internal        004acdcc f   libucrt:lseek.obj
 0001:000abdea       __lseeki64_nolock          004acdea f   libucrt:lseek.obj
 0001:000abe2a       __lseeki64_nolock_internal 004ace2a f   libucrt:lseek.obj
 0001:000abeea       __commit                   004aceea f   libucrt:commit.obj
 0001:000abf67       ___acrt_stdio_allocate_buffer_nolock 004acf67 f   libucrt:_getbuf.obj
 0001:000ac095       ___acrt_get_sigabrt_handler 004ad095 f   libucrt:signal.obj
 0001:000ac0bc       ___acrt_initialize_signal_handlers 004ad0bc f   libucrt:signal.obj
 0001:000ac0da       _raise                     004ad0da f   libucrt:signal.obj
 0001:000ac56f       _mbstowcs_s                004ad56f f   libucrt:mbstowcs.obj
 0001:000ac928       __wcstombs_s_l             004ad928 f   libucrt:wcstombs.obj
 0001:000aca45       ___acrt_GetLocaleInfoA     004ada45 f   libucrt:getlocaleinfoa.obj
 0001:000acbf5       ___acrt_GetStringTypeA     004adbf5 f   libucrt:getstringtypea.obj
 0001:000acee5       ___acrt_LCMapStringA       004adee5 f   libucrt:lcmapstringa.obj
 0001:000acf2e       _wcscpy_s                  004adf2e f   libucrt:wcscpy_s.obj
 0001:000acf92       __realloc_base             004adf92 f   libucrt:realloc_base.obj
 0001:000ad093       ___acrt_MultiByteToWideChar 004ae093 f   libucrt:multibytetowidechar.obj
 0001:000ad14d       ___acrt_WideCharToMultiByte 004ae14d f   libucrt:widechartomultibyte.obj
 0001:000ad1b9       ___ascii_wcsicmp           004ae1b9 f   libucrt:wcsicmp.obj
 0001:000ad1f6       __towlower_internal        004ae1f6 f i libucrt:wcsicmp.obj
 0001:000ad235       __wcsicmp                  004ae235 f   libucrt:wcsicmp.obj
 0001:000ad27e       __wcsicmp_l                004ae27e f   libucrt:wcsicmp.obj
 0001:000ad336       ___acrt_app_verifier_enabled 004ae336 f   libucrt:peb_access.obj
 0001:000ad348       ___acrt_is_secure_process  004ae348 f   libucrt:peb_access.obj
 0001:000ad35b       ___acrt_get_process_end_policy 004ae35b f   libucrt:win_policies.obj
 0001:000ad39a       ??$__acrt_convert_wcs_mbs_cp@_WDV<lambda_28bda7af82a03b66c1cb3803a755f95d>@@U__crt_win32_buffer_internal_dynamic_resizing@@@@YAHQB_WAAV?$__crt_win32_buffer@DU__crt_win32_buffer_internal_dynamic_resizing@@@@ABV<lambda_28bda7af82a03b66c1cb3803a755f95d>@@I@Z 004ae39a f i libucrt:argv_wildcards.obj
 0001:000ad938       ?allocate@?$__crt_win32_buffer@DU__crt_win32_buffer_internal_dynamic_resizing@@@@QAEHI@Z 004ae938 f i libucrt:argv_wildcards.obj
 0001:000ad9fb       ___acrt_expand_narrow_argv_wildcards 004ae9fb f   libucrt:argv_wildcards.obj
 0001:000ada06       ___acrt_GetModuleFileNameA 004aea06 f   libucrt:getmodulefilenamea.obj
 0001:000ae023       ___acrt_initialize_multibyte 004af023 f   libucrt:mbctype.obj
 0001:000ae06b       ___acrt_update_thread_multibyte_data 004af06b f   libucrt:mbctype.obj
 0001:000ae07e       __setmbcp_nolock           004af07e f   libucrt:mbctype.obj
 0001:000ae2d3       __ismbblead                004af2d3 f   libucrt:ismbbyte.obj
 0001:000ae322       ___dcrt_get_narrow_environment_from_os 004af322 f   libucrt:get_environment_from_os.obj
 0001:000ae3c2       ___dcrt_get_wide_environment_from_os 004af3c2 f   libucrt:get_environment_from_os.obj
 0001:000aeb4a       ___dcrt_set_variable_in_narrow_environment_nolock 004afb4a f   libucrt:setenv.obj
 0001:000aeb55       ___dcrt_set_variable_in_wide_environment_nolock 004afb55 f   libucrt:setenv.obj
 0001:000aeb60       __recalloc_base            004afb60 f   libucrt:recalloc.obj
 0001:000aebcd       ___acrt_initialize_heap    004afbcd f   libucrt:heap_handle.obj
 0001:000aebde       ___acrt_uninitialize_heap  004afbde f   libucrt:heap_handle.obj
 0001:000aebe8       ___acrt_execute_initializers 004afbe8 f   libucrt:shared_initialization.obj
 0001:000aec50       ___acrt_execute_uninitializers 004afc50 f   libucrt:shared_initialization.obj
 0001:000aec81       _wcscat_s                  004afc81 f   libucrt:wcscat_s.obj
 0001:000aedbe       _wcsncpy_s                 004afdbe f   libucrt:wcsncpy_s.obj
 0001:000aedc9       ___acrt_lowio_create_handle_array 004afdc9 f   libucrt:osfinfo.obj
 0001:000aee44       ___acrt_lowio_destroy_handle_array 004afe44 f   libucrt:osfinfo.obj
 0001:000aee79       ___acrt_lowio_ensure_fh_exists 004afe79 f   libucrt:osfinfo.obj
 0001:000aef17       ___acrt_lowio_lock_fh      004aff17 f   libucrt:osfinfo.obj
 0001:000aef3a       ___acrt_lowio_unlock_fh    004aff3a f   libucrt:osfinfo.obj
 0001:000aef5d       __free_osfhnd              004aff5d f   libucrt:osfinfo.obj
 0001:000aefee       __get_osfhandle            004affee f   libucrt:osfinfo.obj
 0001:000af058       ___acrt_initialize_fmode   004b0058 f   libucrt:txtmode.obj
 0001:000af06e       ___acrt_locale_free_monetary 004b006e f   libucrt:initmon.obj
 0001:000af16c       ___acrt_locale_initialize_monetary 004b016c f   libucrt:initmon.obj
 0001:000af4cd       ___acrt_locale_free_numeric 004b04cd f   libucrt:initnum.obj
 0001:000af536       ___acrt_locale_initialize_numeric 004b0536 f   libucrt:initnum.obj
 0001:000af9f4       ___acrt_locale_free_time   004b09f4 f   libucrt:inittime.obj
 0001:000afad8       ___acrt_locale_initialize_time 004b0ad8 f   libucrt:inittime.obj
 0001:000afc3b       _wcsncat_s                 004b0c3b f   libucrt:wcsncat_s.obj
 0001:000afc46       _wcscspn                   004b0c46 f   libucrt:wcscspn.obj
 0001:000afc9f       _wcspbrk                   004b0c9f f   libucrt:wcspbrk.obj
 0001:000afced       ___acrt_add_locale_ref     004b0ced f   libucrt:locale_refcounting.obj
 0001:000afd6a       ___acrt_free_locale        004b0d6a f   libucrt:locale_refcounting.obj
 0001:000afeb2       ___acrt_locale_add_lc_time_reference 004b0eb2 f   libucrt:locale_refcounting.obj
 0001:000afedb       ___acrt_locale_free_lc_time_if_unreferenced 004b0edb f   libucrt:locale_refcounting.obj
 0001:000aff0c       ___acrt_locale_release_lc_time_reference 004b0f0c f   libucrt:locale_refcounting.obj
 0001:000aff35       ___acrt_release_locale_ref 004b0f35 f   libucrt:locale_refcounting.obj
 0001:000affb6       ___acrt_update_thread_locale_data 004b0fb6 f   libucrt:locale_refcounting.obj
 0001:000b0037       __updatetlocinfoEx_nolock  004b1037 f   libucrt:locale_refcounting.obj
 0001:000b077e       ___acrt_get_qualified_locale 004b177e f   libucrt:get_qualified_locale.obj
 0001:000b10f3       ___acrt_get_qualified_locale_downlevel 004b20f3 f   libucrt:getqloc_downlevel.obj
 0001:000b138a       __clearfp                  004b238a f   libucrt:ieee87.obj
 0001:000b1468       __control87                004b2468 f   libucrt:ieee87.obj
 0001:000b18b8       ___acrt_fp_strflt_to_string 004b28b8 f   libucrt:_fptostr.obj
 0001:000b19b2       ___acrt_fltout             004b29b2 f   libucrt:cfout.obj
 0001:000b2f9a       ?__c32rtomb_utf8@__crt_mbstring@@YAIPAD_UPAU_Mbstatet@@AAV__crt_cached_ptd_host@@@Z 004b3f9a f   libucrt:c32rtomb.obj
 0001:000b3076       ?__mbrtowc_utf8@__crt_mbstring@@YAIPA_WPBDIPAU_Mbstatet@@AAV__crt_cached_ptd_host@@@Z 004b4076 f   libucrt:mbrtowc.obj
 0001:000b30b9       ?__mbsrtowcs_utf8@__crt_mbstring@@YAIPA_WPAPBDIPAU_Mbstatet@@AAV__crt_cached_ptd_host@@@Z 004b40b9 f   libucrt:mbrtowc.obj
 0001:000b31c1       __isatty                   004b41c1 f   libucrt:isatty.obj
 0001:000b33a8       __wgetenv_s                004b43a8 f   libucrt:getenv.obj
 0001:000b3403       ___acrt_DownlevelLCIDToLocaleName 004b4403 f   libucrt:lcidtoname_downlevel.obj
 0001:000b34a6       ___acrt_DownlevelLocaleNameToLCID 004b44a6 f   libucrt:lcidtoname_downlevel.obj
 0001:000b379b       ___acrt_fenv_get_common_round_control 004b479b f   libucrt:_fenvutils.obj
 0001:000b37bd       ___acrt_fenv_get_control   004b47bd f   libucrt:_fenvutils.obj
 0001:000b383d       ___acrt_fenv_get_status    004b483d f   libucrt:_fenvutils.obj
 0001:000b38e7       ___acrt_fenv_set_control   004b48e7 f   libucrt:_fenvutils.obj
 0001:000b3962       ___acrt_fenv_set_status    004b4962 f   libucrt:_fenvutils.obj
 0001:000b3a5e       ___acrt_GetStringTypeW     004b4a5e f   libucrt:getstringtypew.obj
 0001:000b3a80       __CIcos_pentium4           004b4a80 f   libucrt:cos_pentium4.obj
 0001:000b3a98       __cos_pentium4             004b4a98     libucrt:cos_pentium4.obj
 0001:000b3c30       __trandisp1                004b4c30 f   libucrt:87disp.obj
 0001:000b3ca5       __trandisp2                004b4ca5 f   libucrt:87disp.obj
 0001:000b3d3f       __rttospopde               004b4d3f     libucrt:87disp.obj
 0001:000b3d44       __rttospop                 004b4d44     libucrt:87disp.obj
 0001:000b3d50       __rtnospop                 004b4d50 f   libucrt:87disp.obj
 0001:000b3d60       __rttosnpop                004b4d60 f   libucrt:87disp.obj
 0001:000b3d61       __rtnospopde               004b4d61     libucrt:87disp.obj
 0001:000b3d68       __rtzeropop                004b4d68     libucrt:87disp.obj
 0001:000b3d6a       __rtzeronpop               004b4d6a     libucrt:87disp.obj
 0001:000b3d70       __rtzerospop               004b4d70 f   libucrt:87disp.obj
 0001:000b3d7d       __rtonepop                 004b4d7d     libucrt:87disp.obj
 0001:000b3d80       __rtonenpop                004b4d80 f   libucrt:87disp.obj
 0001:000b3d90       __tosnan1                  004b4d90 f   libucrt:87disp.obj
 0001:000b3dc0       __nosnan2                  004b4dc0 f   libucrt:87disp.obj
 0001:000b3dd0       __tosnan2                  004b4dd0 f   libucrt:87disp.obj
 0001:000b3e00       __nan2                     004b4e00 f   libucrt:87disp.obj
 0001:000b3e40       __rtindfpop                004b4e40 f   libucrt:87disp.obj
 0001:000b3e42       __rtindfnpop               004b4e42     libucrt:87disp.obj
 0001:000b3e53       __rttosnpopde              004b4e53     libucrt:87disp.obj
 0001:000b3e60       __rtatan2inf               004b4e60 f   libucrt:87disp.obj
 0001:000b3e7d       __rtchsifneg               004b4e7d     libucrt:87disp.obj
 0001:000b3e90       __twoToTOS                 004b4e90 f   libucrt:common.obj
 0001:000b3ea5       __load_CW                  004b4ea5 f   libucrt:common.obj
 0001:000b3ebc       __convertTOStoQNaN         004b4ebc f   libucrt:common.obj
 0001:000b3ed5       __fload_withFB             004b4ed5 f   libucrt:common.obj
 0001:000b3f18       __checkTOS_withFB          004b4f18 f   libucrt:common.obj
 0001:000b3f2e       __fast_exit                004b4f2e f   libucrt:common.obj
 0001:000b3f3b       __math_exit                004b4f3b f   libucrt:common.obj
 0001:000b3f65       __check_overflow_exit      004b4f65 f   libucrt:common.obj
 0001:000b3f79       __check_range_exit         004b4f79 f   libucrt:common.obj
 0001:000b4020       __startTwoArgErrorHandling 004b5020 f   libucrt:genexcep.obj
 0001:000b4037       __startOneArgErrorHandling 004b5037 f   libucrt:genexcep.obj
 0001:000b4080       __CIsin_pentium4           004b5080 f   libucrt:sin_pentium4.obj
 0001:000b4098       __sin_pentium4             004b5098     libucrt:sin_pentium4.obj
 0001:000b4248       ___ascii_wcsnicmp          004b5248 f   libucrt:wcsnicmp.obj
 0001:000b4297       __wcsnicmp                 004b5297 f   libucrt:wcsnicmp.obj
 0001:000b42e3       __wcsnicmp_l               004b52e3 f   libucrt:wcsnicmp.obj
 0001:000b43b6       __strnicmp                 004b53b6 f   libucrt:strnicmp.obj
 0001:000b4423       __strnicmp_l               004b5423 f   libucrt:strnicmp.obj
 0001:000b44ee       __putwch_nolock            004b54ee f   libucrt:putwch.obj
 0001:000b4520       __CIsqrt                   004b5520 f   libucrt:sqrt_impl.obj
 0001:000b4534       __sqrt_common              004b5534     libucrt:sqrt_impl.obj
 0001:000b45e0       __CIasin_pentium4          004b55e0 f   libucrt:asin_pentium4.obj
 0001:000b45f8       __asin_pentium4            004b55f8     libucrt:asin_pentium4.obj
 0001:000b4b60       __CIpow_pentium4           004b5b60 f   libucrt:pow_pentium4.obj
 0001:000b4b79       __pow_pentium4             004b5b79     libucrt:pow_pentium4.obj
 0001:000b56a0       __fFEXP                    004b66a0 f   libucrt:87tran.obj
 0001:000b56f7       __rtinfpopse               004b66f7     libucrt:87tran.obj
 0001:000b56f9       __rtinfnpopse              004b66f9     libucrt:87tran.obj
 0001:000b5709       __fFLN                     004b6709     libucrt:87tran.obj
 0001:000b57be       __rtinfpop                 004b67be     libucrt:87tran.obj
 0001:000b57c0       __rtinfnpop                004b67c0     libucrt:87tran.obj
 0001:000b57d0       __rtforexpinf              004b67d0 f   libucrt:87tran.obj
 0001:000b57dd       __ffexpm1                  004b67dd     libucrt:87tran.obj
 0001:000b5886       __d_inttype                004b6886 f   libucrt:powhlp.obj
 0001:000b58ee       __powhlp                   004b68ee f   libucrt:powhlp.obj
 0001:000b5a19       __frnd                     004b6a19 f   libucrt:frnd.obj
 0001:000b5a2d       ?__wcsrtombs_utf8@__crt_mbstring@@YAIPADPAPB_WIPAU_Mbstatet@@AAV__crt_cached_ptd_host@@@Z 004b6a2d f   libucrt:wcrtomb.obj
 0001:000b5bf3       _strncpy_s                 004b6bf3 f   libucrt:strncpy_s.obj
 0001:000b5bfe       __towlower_l               004b6bfe f   libucrt:towlower.obj
 0001:000b5ce0       _qsort                     004b6ce0 f   libucrt:qsort.obj
 0001:000b61d0       _strpbrk                   004b71d0 f   libucrt:strpbrk.obj
 0001:000b6210       __mbsdec                   004b7210 f   libucrt:mbsdec.obj
 0001:000b6227       __mbsdec_l                 004b7227 f   libucrt:mbsdec.obj
 0001:000b62c3       __wcsnicoll                004b72c3 f   libucrt:wcsnicol.obj
 0001:000b6330       __wcsnicoll_l              004b7330 f   libucrt:wcsnicol.obj
 0001:000b63f0       __strnicoll                004b73f0 f   libucrt:strnicol.obj
 0001:000b6419       __strnicoll_l              004b7419 f   libucrt:strnicol.obj
 0001:000b64e1       ___acrt_SetEnvironmentVariableA 004b74e1 f   libucrt:setenvironmentvariablea.obj
 0001:000b6576       __msize_base               004b7576 f   libucrt:msize.obj
 0001:000b65a9       _fegetenv                  004b75a9 f   libucrt:fegetenv.obj
 0001:000b65c6       _fesetenv                  004b75c6 f   libucrt:fesetenv.obj
 0001:000b6612       _feholdexcept              004b7612 f   libucrt:feholdexcept.obj
 0001:000b6660       __CIlog10                  004b7660 f   libucrt:log10_impl.obj
 0001:000b669b       __CIlog10_default          004b769b f   libucrt:log10_impl.obj
 0001:000b66af       __log10_default            004b76af     libucrt:log10_impl.obj
 0001:000b6770       ?reset_and_return@__crt_mbstring@@YAIIPAU_Mbstatet@@@Z 004b7770 f   libucrt:common_utf8.obj
 0001:000b6784       ?return_illegal_sequence@__crt_mbstring@@YAIPAU_Mbstatet@@AAV__crt_cached_ptd_host@@@Z 004b7784 f   libucrt:common_utf8.obj
 0001:000b67a6       ?__mbrtoc32_utf8@__crt_mbstring@@YAIPA_UPBDIPAU_Mbstatet@@AAV__crt_cached_ptd_host@@@Z 004b77a6 f   libucrt:mbrtoc32.obj
 0001:000b6957       __87except                 004b7957 f   libucrt:87except.obj
 0001:000b6a70       ___ascii_strnicmp          004b7a70 f   libucrt:_strnicm.obj
 0001:000b6af0       ___dcrt_lowio_ensure_console_output_initialized 004b7af0 f   libucrt:initcon.obj
 0001:000b6b0f       ___dcrt_terminate_console_output 004b7b0f f   libucrt:initcon.obj
 0001:000b6b26       ___dcrt_write_console      004b7b26 f   libucrt:initcon.obj
 0001:000b6b7b       __fpclass                  004b7b7b f   libucrt:ieeemisc.obj
 0001:000b6c1f       ?__c16rtomb_utf8@__crt_mbstring@@YAIPAD_SPAU_Mbstatet@@AAV__crt_cached_ptd_host@@@Z 004b7c1f f   libucrt:c16rtomb.obj
 0001:000b6cc9       ___acrt_LCMapStringW       004b7cc9 f   libucrt:lcmapstringw.obj
 0001:000b6d07       ___acrt_CompareStringW     004b7d07 f   libucrt:comparestringw.obj
 0001:000b700b       ___acrt_CompareStringA     004b800b f   libucrt:comparestringa.obj
 0001:000b7060       __CIlog10_pentium4         004b8060 f   libucrt:log10_pentium4.obj
 0001:000b7078       __log10_pentium4           004b8078     libucrt:log10_pentium4.obj
 0001:000b72f0       @_guard_check_icall@4      004b82f0 f i LIBCMT:checkcfg.obj
 0001:000b7300       __FindPESection            004b8300 f   LIBCMT:pesect.obj
 0001:000b7350       __IsNonwritableInCurrentImage 004b8350 f   LIBCMT:pesect.obj
 0001:000b7410       __ValidateImageBase        004b8410 f   LIBCMT:pesect.obj
 0001:000b7450       __allrem                   004b8450 f   LIBCMT:llrem.obj
 0001:000b7510       __ftol2_sse                004b8510 f   LIBCMT:ftol2.obj
 0001:000b7520       __ftoi2                    004b8520 f   LIBCMT:ftol2.obj
 0001:000b75a0       _strrchr                   004b85a0 f   libvcruntime:strrchr.obj
 0001:000b76e0       _strchr                    004b86e0 f   libvcruntime:strchr.obj
 0001:000b774e       ___from_strstr_to_strchr   004b874e     libvcruntime:strchr.obj
 0001:000b780b       _wcschr                    004b880b f   libvcruntime:wcschr.obj
 0001:000b78ba       __filter_x86_sse2_floating_point_exception 004b88ba f   LIBCMT:x86_exception_filter.obj
 0001:000b78ba       __filter_x86_sse2_floating_point_exception_default 004b88ba f   LIBCMT:x86_exception_filter.obj
 0002:00000000       __imp__BT_SetReportFilePath@4 004ba000     BugTrap:BugTrap.dll
 0002:00000004       __imp__BT_SetFlags@4       004ba004     BugTrap:BugTrap.dll
 0002:00000008       __imp__BT_SetAppName@4     004ba008     BugTrap:BugTrap.dll
 0002:0000000c       __imp__BT_InstallSehFilter@0 004ba00c     BugTrap:BugTrap.dll
 0002:00000010       \177BugTrap_NULL_THUNK_DATA 004ba010     BugTrap:BugTrap.dll
 0002:00000014       __imp__GetStockObject@4    004ba014     gdi32:GDI32.dll
 0002:00000018       \177GDI32_NULL_THUNK_DATA  004ba018     gdi32:GDI32.dll
 0002:0000001c       __imp__DeleteCriticalSection@4 004ba01c     kernel32:KERNEL32.dll
 0002:00000020       __imp__GetTickCount@0      004ba020     kernel32:KERNEL32.dll
 0002:00000024       __imp__FreeLibrary@4       004ba024     kernel32:KERNEL32.dll
 0002:00000028       __imp__GetProcAddress@8    004ba028     kernel32:KERNEL32.dll
 0002:0000002c       __imp__LoadLibraryA@4      004ba02c     kernel32:KERNEL32.dll
 0002:00000030       __imp__GlobalAlloc@8       004ba030     kernel32:KERNEL32.dll
 0002:00000034       __imp__GetTickCount64@0    004ba034     kernel32:KERNEL32.dll
 0002:00000038       __imp__Sleep@4             004ba038     kernel32:KERNEL32.dll
 0002:0000003c       __imp__CreateThread@24     004ba03c     kernel32:KERNEL32.dll
 0002:00000040       __imp__GetFileSize@8       004ba040     kernel32:KERNEL32.dll
 0002:00000044       __imp__ReadFile@20         004ba044     kernel32:KERNEL32.dll
 0002:00000048       __imp__GetPrivateProfileIntA@16 004ba048     kernel32:KERNEL32.dll
 0002:0000004c       __imp__SetConsoleTitleA@4  004ba04c     kernel32:KERNEL32.dll
 0002:00000050       __imp__GetLastError@0      004ba050     kernel32:KERNEL32.dll
 0002:00000054       __imp__HeapFree@12         004ba054     kernel32:KERNEL32.dll
 0002:00000058       __imp__LeaveCriticalSection@4 004ba058     kernel32:KERNEL32.dll
 0002:0000005c       __imp__MapViewOfFile@20    004ba05c     kernel32:KERNEL32.dll
 0002:00000060       __imp__UnmapViewOfFile@4   004ba060     kernel32:KERNEL32.dll
 0002:00000064       __imp__GlobalFree@4        004ba064     kernel32:KERNEL32.dll
 0002:00000068       __imp__CreateFileMappingA@24 004ba068     kernel32:KERNEL32.dll
 0002:0000006c       __imp__HeapSize@12         004ba06c     kernel32:KERNEL32.dll
 0002:00000070       __imp__CreateFileW@28      004ba070     kernel32:KERNEL32.dll
 0002:00000074       __imp__SetStdHandle@8      004ba074     kernel32:KERNEL32.dll
 0002:00000078       __imp__SetEnvironmentVariableW@8 004ba078     kernel32:KERNEL32.dll
 0002:0000007c       __imp__FreeEnvironmentStringsW@4 004ba07c     kernel32:KERNEL32.dll
 0002:00000080       __imp__GetEnvironmentStringsW@0 004ba080     kernel32:KERNEL32.dll
 0002:00000084       __imp__GetOEMCP@0          004ba084     kernel32:KERNEL32.dll
 0002:00000088       __imp__GetACP@0            004ba088     kernel32:KERNEL32.dll
 0002:0000008c       __imp__IsValidCodePage@4   004ba08c     kernel32:KERNEL32.dll
 0002:00000090       __imp__FindNextFileW@8     004ba090     kernel32:KERNEL32.dll
 0002:00000094       __imp__InitializeCriticalSection@4 004ba094     kernel32:KERNEL32.dll
 0002:00000098       __imp__EnterCriticalSection@4 004ba098     kernel32:KERNEL32.dll
 0002:0000009c       __imp__CloseHandle@4       004ba09c     kernel32:KERNEL32.dll
 0002:000000a0       __imp__WriteFile@20        004ba0a0     kernel32:KERNEL32.dll
 0002:000000a4       __imp__SetFilePointer@16   004ba0a4     kernel32:KERNEL32.dll
 0002:000000a8       __imp__GetProcessHeap@0    004ba0a8     kernel32:KERNEL32.dll
 0002:000000ac       __imp__CreateFileA@28      004ba0ac     kernel32:KERNEL32.dll
 0002:000000b0       __imp__FindFirstFileExW@24 004ba0b0     kernel32:KERNEL32.dll
 0002:000000b4       __imp__FindClose@4         004ba0b4     kernel32:KERNEL32.dll
 0002:000000b8       __imp__HeapReAlloc@16      004ba0b8     kernel32:KERNEL32.dll
 0002:000000bc       __imp__FlushFileBuffers@4  004ba0bc     kernel32:KERNEL32.dll
 0002:000000c0       __imp__ReadConsoleW@20     004ba0c0     kernel32:KERNEL32.dll
 0002:000000c4       __imp__SetFilePointerEx@20 004ba0c4     kernel32:KERNEL32.dll
 0002:000000c8       __imp__GetFileSizeEx@8     004ba0c8     kernel32:KERNEL32.dll
 0002:000000cc       __imp__GetConsoleMode@8    004ba0cc     kernel32:KERNEL32.dll
 0002:000000d0       __imp__GetConsoleOutputCP@0 004ba0d0     kernel32:KERNEL32.dll
 0002:000000d4       __imp__EnumSystemLocalesW@8 004ba0d4     kernel32:KERNEL32.dll
 0002:000000d8       __imp__GetUserDefaultLCID@0 004ba0d8     kernel32:KERNEL32.dll
 0002:000000dc       __imp__IsValidLocale@8     004ba0dc     kernel32:KERNEL32.dll
 0002:000000e0       __imp__GetLocaleInfoW@16   004ba0e0     kernel32:KERNEL32.dll
 0002:000000e4       __imp__LCMapStringW@24     004ba0e4     kernel32:KERNEL32.dll
 0002:000000e8       __imp__CompareStringW@24   004ba0e8     kernel32:KERNEL32.dll
 0002:000000ec       __imp__GetTimeZoneInformation@4 004ba0ec     kernel32:KERNEL32.dll
 0002:000000f0       __imp__ReleaseSRWLockExclusive@4 004ba0f0     kernel32:KERNEL32.dll
 0002:000000f4       __imp__AcquireSRWLockExclusive@4 004ba0f4     kernel32:KERNEL32.dll
 0002:000000f8       __imp__TryAcquireSRWLockExclusive@4 004ba0f8     kernel32:KERNEL32.dll
 0002:000000fc       __imp__GetCurrentThreadId@0 004ba0fc     kernel32:KERNEL32.dll
 0002:00000100       __imp__WideCharToMultiByte@32 004ba100     kernel32:KERNEL32.dll
 0002:00000104       __imp__EncodePointer@4     004ba104     kernel32:KERNEL32.dll
 0002:00000108       __imp__DecodePointer@4     004ba108     kernel32:KERNEL32.dll
 0002:0000010c       __imp__QueryPerformanceCounter@4 004ba10c     kernel32:KERNEL32.dll
 0002:00000110       __imp__InitializeCriticalSectionEx@12 004ba110     kernel32:KERNEL32.dll
 0002:00000114       __imp__MultiByteToWideChar@24 004ba114     kernel32:KERNEL32.dll
 0002:00000118       __imp__LCMapStringEx@36    004ba118     kernel32:KERNEL32.dll
 0002:0000011c       __imp__GetSystemTimeAsFileTime@4 004ba11c     kernel32:KERNEL32.dll
 0002:00000120       __imp__GetModuleHandleW@4  004ba120     kernel32:KERNEL32.dll
 0002:00000124       __imp__GetStringTypeW@16   004ba124     kernel32:KERNEL32.dll
 0002:00000128       __imp__GetCPInfo@8         004ba128     kernel32:KERNEL32.dll
 0002:0000012c       __imp__UnhandledExceptionFilter@4 004ba12c     kernel32:KERNEL32.dll
 0002:00000130       __imp__SetUnhandledExceptionFilter@4 004ba130     kernel32:KERNEL32.dll
 0002:00000134       __imp__GetCurrentProcess@0 004ba134     kernel32:KERNEL32.dll
 0002:00000138       __imp__TerminateProcess@8  004ba138     kernel32:KERNEL32.dll
 0002:0000013c       __imp__IsProcessorFeaturePresent@4 004ba13c     kernel32:KERNEL32.dll
 0002:00000140       __imp__WakeAllConditionVariable@4 004ba140     kernel32:KERNEL32.dll
 0002:00000144       __imp__SleepConditionVariableSRW@16 004ba144     kernel32:KERNEL32.dll
 0002:00000148       __imp__IsDebuggerPresent@0 004ba148     kernel32:KERNEL32.dll
 0002:0000014c       __imp__GetStartupInfoW@4   004ba14c     kernel32:KERNEL32.dll
 0002:00000150       __imp__GetCurrentProcessId@0 004ba150     kernel32:KERNEL32.dll
 0002:00000154       __imp__InitializeSListHead@4 004ba154     kernel32:KERNEL32.dll
 0002:00000158       __imp__RaiseException@16   004ba158     kernel32:KERNEL32.dll
 0002:0000015c       __imp__RtlUnwind@16        004ba15c     kernel32:KERNEL32.dll
 0002:00000160       __imp__SetLastError@4      004ba160     kernel32:KERNEL32.dll
 0002:00000164       __imp__InitializeCriticalSectionAndSpinCount@8 004ba164     kernel32:KERNEL32.dll
 0002:00000168       __imp__TlsAlloc@0          004ba168     kernel32:KERNEL32.dll
 0002:0000016c       __imp__TlsGetValue@4       004ba16c     kernel32:KERNEL32.dll
 0002:00000170       __imp__TlsSetValue@8       004ba170     kernel32:KERNEL32.dll
 0002:00000174       __imp__TlsFree@4           004ba174     kernel32:KERNEL32.dll
 0002:00000178       __imp__LoadLibraryExW@12   004ba178     kernel32:KERNEL32.dll
 0002:0000017c       __imp__GetLocalTime@4      004ba17c     kernel32:KERNEL32.dll
 0002:00000180       __imp__ExitProcess@4       004ba180     kernel32:KERNEL32.dll
 0002:00000184       __imp__GetModuleHandleExW@12 004ba184     kernel32:KERNEL32.dll
 0002:00000188       __imp__GetModuleFileNameW@12 004ba188     kernel32:KERNEL32.dll
 0002:0000018c       __imp__GetStdHandle@4      004ba18c     kernel32:KERNEL32.dll
 0002:00000190       __imp__GetCommandLineA@0   004ba190     kernel32:KERNEL32.dll
 0002:00000194       __imp__GetCommandLineW@0   004ba194     kernel32:KERNEL32.dll
 0002:00000198       __imp__HeapAlloc@12        004ba198     kernel32:KERNEL32.dll
 0002:0000019c       __imp__GetFileType@4       004ba19c     kernel32:KERNEL32.dll
 0002:000001a0       __imp__WriteConsoleW@20    004ba1a0     kernel32:KERNEL32.dll
 0002:000001a4       \177KERNEL32_NULL_THUNK_DATA 004ba1a4     kernel32:KERNEL32.dll
 0002:000001a8       __imp__GetMessageA@16      004ba1a8     user32:USER32.dll
 0002:000001ac       __imp__RegisterClassExA@4  004ba1ac     user32:USER32.dll
 0002:000001b0       __imp__CreateWindowExA@48  004ba1b0     user32:USER32.dll
 0002:000001b4       __imp__SetTimer@16         004ba1b4     user32:USER32.dll
 0002:000001b8       __imp__GetSystemMetrics@4  004ba1b8     user32:USER32.dll
 0002:000001bc       __imp__UpdateWindow@4      004ba1bc     user32:USER32.dll
 0002:000001c0       __imp__MessageBoxA@16      004ba1c0     user32:USER32.dll
 0002:000001c4       __imp__LoadCursorA@8       004ba1c4     user32:USER32.dll
 0002:000001c8       __imp__LoadIconA@8         004ba1c8     user32:USER32.dll
 0002:000001cc       __imp__DispatchMessageA@4  004ba1cc     user32:USER32.dll
 0002:000001d0       \177USER32_NULL_THUNK_DATA 004ba1d0     user32:USER32.dll
 0002:000001d4       __imp__htonl@4             004ba1d4     WS2_32:WS2_32.dll
 0002:000001d8       __imp__recv@16             004ba1d8     WS2_32:WS2_32.dll
 0002:000001dc       __imp__closesocket@4       004ba1dc     WS2_32:WS2_32.dll
 0002:000001e0       __imp__bind@12             004ba1e0     WS2_32:WS2_32.dll
 0002:000001e4       __imp__accept@12           004ba1e4     WS2_32:WS2_32.dll
 0002:000001e8       __imp__htons@4             004ba1e8     WS2_32:WS2_32.dll
 0002:000001ec       __imp__listen@8            004ba1ec     WS2_32:WS2_32.dll
 0002:000001f0       __imp__setsockopt@20       004ba1f0     WS2_32:WS2_32.dll
 0002:000001f4       __imp__socket@12           004ba1f4     WS2_32:WS2_32.dll
 0002:000001f8       __imp__WSAStartup@8        004ba1f8     WS2_32:WS2_32.dll
 0002:000001fc       __imp__WSAGetLastError@0   004ba1fc     WS2_32:WS2_32.dll
 0002:00000200       __imp__WSAAsyncSelect@16   004ba200     WS2_32:WS2_32.dll
 0002:00000204       __imp__send@16             004ba204     WS2_32:WS2_32.dll
 0002:00000208       __imp____WSAFDIsSet@8      004ba208     WS2_32:WS2_32.dll
 0002:0000020c       __imp__connect@12          004ba20c     WS2_32:WS2_32.dll
 0002:00000210       __imp__select@20           004ba210     WS2_32:WS2_32.dll
 0002:00000214       __imp__inet_addr@4         004ba214     WS2_32:WS2_32.dll
 0002:00000218       __imp__ioctlsocket@12      004ba218     WS2_32:WS2_32.dll
 0002:0000021c       \177WS2_32_NULL_THUNK_DATA 004ba21c     WS2_32:WS2_32.dll
 0002:00000220       ___guard_check_icall_fptr  004ba220     LIBCMT:guard_support.obj
 0002:00000224       ___castguard_check_failure_os_handled_fptr 004ba224     LIBCMT:guard_support.obj
 0002:00000228       ___xc_a                    004ba228     LIBCMT:initializers.obj
 0002:00000268       ___xc_z                    004ba268     LIBCMT:initializers.obj
 0002:0000026c       ___xi_a                    004ba26c     LIBCMT:initializers.obj
 0002:0000027c       ___acrt_stdio_initializer  004ba27c     libucrt:stdio_initializer.obj
 0002:00000280       ___acrt_timeset_initializer 004ba280     libucrt:timeset_initializer.obj
 0002:00000284       ___acrt_tran_sse2_initializer 004ba284     libucrt:sse2_initializer.obj
 0002:00000288       ___acrt_multibyte_initializer 004ba288     libucrt:multibyte_initializer.obj
 0002:0000028c       ___acrt_fmode_initializer  004ba28c     libucrt:fmode_initializer.obj
 0002:00000290       ___xi_z                    004ba290     LIBCMT:initializers.obj
 0002:00000294       ___xl_a                    004ba294     LIBCMT:tlssup.obj
 0002:00000298       ___xl_z                    004ba298     LIBCMT:tlssup.obj
 0002:0000029c       ___xp_a                    004ba29c     LIBCMT:initializers.obj
 0002:000002a0       ___acrt_locale_terminator  004ba2a0     libucrt:locale_initializer.obj
 0002:000002a4       ___dcrt_console_output_terminator 004ba2a4     libucrt:console_output_initializer.obj
 0002:000002a8       ___acrt_stdio_terminator   004ba2a8     libucrt:stdio_initializer.obj
 0002:000002ac       ___xp_z                    004ba2ac     LIBCMT:initializers.obj
 0002:000002b0       ___xt_a                    004ba2b0     LIBCMT:initializers.obj
 0002:000002b4       ___xt_z                    004ba2b4     LIBCMT:initializers.obj
 0002:000002c8       ??_7exception@std@@6B@     004ba2c8     TimeLog.obj
 0002:000002d0       ??_C@_0BC@EOODALEL@Unknown?5exception@ 004ba2d0     TimeLog.obj
 0002:000002e8       ??_7bad_alloc@std@@6B@     004ba2e8     TimeLog.obj
 0002:000002f4       ??_7bad_array_new_length@std@@6B@ 004ba2f4     TimeLog.obj
 0002:000002fc       ??_C@_0BF@KINCDENJ@bad?5array?5new?5length@ 004ba2fc     TimeLog.obj
 0002:00000314       ??_C@_0BA@JFNIOLAK@string?5too?5long@ 004ba314     TimeLog.obj
 0002:00000328       ??_7runtime_error@std@@6B@ 004ba328     TimeLog.obj
 0002:00000334       ??_7_System_error@std@@6B@ 004ba334     TimeLog.obj
 0002:0000033c       ??_C@_02LMMGGCAJ@?3?5@     004ba33c     TimeLog.obj
 0002:00000344       ??_7system_error@std@@6B@  004ba344     TimeLog.obj
 0002:00000350       ??_7_Iostream_error_category2@std@@6B@ 004ba350     TimeLog.obj
 0002:00000368       ??_C@_08LLGCOLLL@iostream@ 004ba368     TimeLog.obj
 0002:00000374       ?_Iostream_error@?4??message@_Iostream_error_category2@std@@UBE?AV?$basic_string@DU?$char_traits@D@std@@V?$allocator@D@2@@3@H@Z@4QBDB 004ba374     TimeLog.obj
 0002:00000390       ??_7failure@ios_base@std@@6B@ 004ba390     TimeLog.obj
 0002:00000398       ??_C@_0BF@PHHKMMFD@ios_base?3?3badbit?5set@ 004ba398     TimeLog.obj
 0002:000003b0       ??_C@_0BG@FMKFHCIL@ios_base?3?3failbit?5set@ 004ba3b0     TimeLog.obj
 0002:000003c8       ??_C@_0BF@OOHOMBOF@ios_base?3?3eofbit?5set@ 004ba3c8     TimeLog.obj
 0002:000003e0       ??_C@_0N@PKBPNHCA@LOG?2GAMELOG_@ 004ba3e0     TimeLog.obj
 0002:000003f0       ??_C@_0O@CAJKDKFC@LOG?2CHAT_LOG_@ 004ba3f0     TimeLog.obj
 0002:00000400       ??_C@_0M@PBCNMCOB@LOG?2GM_LOG_@ 004ba400     TimeLog.obj
 0002:0000040c       ??_C@_0O@INKLNFBE@LOG?2QUIT_LOG_@ 004ba40c     TimeLog.obj
 0002:0000041c       ??_C@_0BD@FADEHDA@LOG?2ITEM_MALL_LOG_@ 004ba41c     TimeLog.obj
 0002:00000430       ??_C@_01JOAMLHOP@?9@       004ba430     TimeLog.obj
 0002:00000434       ??_C@_04LPDLOGCK@?4TXT@    004ba434     TimeLog.obj
 0002:0000043c       ??_C@_0M@HKBAHDCP@?$FL?$CFd?3?$CFd?3?$CFd?$FN?5@ 004ba43c     TimeLog.obj
 0002:0000044c       ??_C@_0N@NHGLKGEC@KERNEL32?4DLL@ 004ba44c     Helpers.obj
 0002:0000045c       ??_C@_0P@CDHHOHKP@GetTickCount64@ 004ba45c     Helpers.obj
 0002:00000474       ??_7bad_cast@std@@6B@      004ba474     S04_MyWork05.obj
 0002:0000047c       ??_C@_08EPJLHIJG@bad?5cast@ 004ba47c     S04_MyWork05.obj
 0002:0000048c       ??_7_Facet_base@std@@6B@   004ba48c     S04_MyWork05.obj
 0002:00000498       ??_C@_0BA@ELKIONDK@bad?5locale?5name@ 004ba498     S04_MyWork05.obj
 0002:000004a8       ??_C@_05LAPONLG@false@     004ba4a8     S04_MyWork05.obj
 0002:000004b0       ??_C@_04LOAJBDKD@true@     004ba4b0     S04_MyWork05.obj
 0002:000004b5       ??_C@_00CNPNBAHC@@         004ba4b5     S04_MyWork05.obj
 0002:000004bc       ??_7?$ctype@D@std@@6B@     004ba4bc     S04_MyWork05.obj
 0002:000004e8       ??_C@_0P@OHODNKDA@W_SOCKETSYSTEM@ 004ba4e8     S04_MyWork05.obj
 0002:000004f8       ??_C@_0GD@PPPCKMLD@C?3?2Users?2Administrator?2Desktop?2@ 004ba4f8     S04_MyWork05.obj
 0002:0000055c       ??_C@_0BC@FCDNGKAG@W_ADDSOCKETSYSTEM@ 004ba55c     S04_MyWork05.obj
 0002:00000570       ??_C@_06HBMLNIGN@W_RANK@   004ba570     S04_MyWork05.obj
 0002:00000578       ??_C@_0P@GGPALPPA@W_UPRADGETOWER@ 004ba578     S04_MyWork05.obj
 0002:00000588       ??_C@_0M@GNPIIAFB@W_RANKPRIZE@ 004ba588     S04_MyWork05.obj
 0002:00000594       ??_C@_0N@MIHGLKOE@W_RANKSYSTEM@ 004ba594     S04_MyWork05.obj
 0002:000005a4       ??_C@_08NGNLFNBL@W_KAPSUL@ 004ba5a4     S04_MyWork05.obj
 0002:000005b0       ??_C@_0CM@EKGLGHDI@Capsule?5Item?5was?5empty?4?4?4?5Time?5@ 004ba5b0     S04_MyWork05.obj
 0002:000005dc       ??_C@_06FDHFNJBJ@SYSTEM@   004ba5dc     S04_MyWork05.obj
 0002:000005e4       ??_C@_0O@IBABILFI@W_HIDECOSTUME@ 004ba5e4     S04_MyWork05.obj
 0002:000005f4       ??_C@_08NDCLMEHH@W_BOTTLE@ 004ba5f4     S04_MyWork05.obj
 0002:00000600       ??_C@_0BD@JAFBNEDA@W_LEGENDERYIMPROVE@ 004ba600     S04_MyWork05.obj
 0002:00000614       ??_C@_0P@LLDLLGAK@Not?5enough?5CP?4@ 004ba614     S04_MyWork05.obj
 0002:00000624       ??_C@_09DJMBKPIO@?$FLDragon?$FN?5@ 004ba624     S04_MyWork05.obj
 0002:00000630       ??_C@_08DJIDPDLE@?$FLSnake?$FN?5@ 004ba630     S04_MyWork05.obj
 0002:0000063c       ??_C@_08FCEGPGHJ@?$FLTiger?$FN?5@ 004ba63c     S04_MyWork05.obj
 0002:00000648       ??_C@_06MAGONHJO@?$FLSky?$FN?5@ 004ba648     S04_MyWork05.obj
 0002:00000650       ??_C@_0BP@MFPOOIAD@?5has?5reached?513?5at?5step?5stage?4@ 004ba650     S04_MyWork05.obj
 0002:00000670       ??_C@_0BP@OFGMJEEI@?5has?5reached?514?5at?5step?5stage?4@ 004ba670     S04_MyWork05.obj
 0002:00000690       ??_C@_0BP@GCMKFPAL@?5has?5reached?515?5at?5step?5stage?4@ 004ba690     S04_MyWork05.obj
 0002:000006b0       ??_C@_0N@EJANCKI@?$CB?$FLRUN?$FN?5?5?$CFs?4?6@ 004ba6b0     S04_MyWork05.obj
 0002:000006c0       ??_C@_09BFIOHILB@W_FISHING@ 004ba6c0     S04_MyWork05.obj
 0002:000006cc       ??_C@_0L@FBADFJBD@W_FISHING2@ 004ba6cc     S04_MyWork05.obj
 0002:000006d8       ??_C@_0BB@JBEKBPCB@W_FISHINGWINITEM@ 004ba6d8     S04_MyWork05.obj
 0002:000006ec       ??_C@_0P@KENNPDAH@W_BLOODMAERKET@ 004ba6ec     S04_MyWork05.obj
 0002:000006fc       ??_C@_0BC@PCKPJAMG@W_BLOODMAERKETBUY@ 004ba6fc     S04_MyWork05.obj
 0002:00000710       ??_C@_0P@DNANMOHF@W_SKILLCOMBINE@ 004ba710     S04_MyWork05.obj
 0002:00000720       ??_C@_0N@DGLFPKLM@W_TIMEEFFECT@ 004ba720     S04_MyWork05.obj
 0002:00000730       ??_C@_0P@NPKLNMI@W_DESTROY_ITEM@ 004ba730     S04_MyWork05.obj
 0002:00000740       ??_C@_0P@PNMEOCKI@W_CAPE_UPGRADE@ 004ba740     S04_MyWork05.obj
 0002:00000750       ??_C@_0BD@OLKHDKHL@Not?5enough?5Silver?4@ 004ba750     S04_MyWork05.obj
 0002:00000764       ??_C@_0O@OGDPJBBL@CAPE?5Y?$NMKSELD?$NN@ 004ba764     S04_MyWork05.obj
 0002:00000774       ??_C@_0BA@BINPLLAD@CAPE?5Y?$NMKSELMED?$NN@ 004ba774     S04_MyWork05.obj
 0002:00000784       ??_C@_0BD@CNJEJFCK@W_BEGGARADDABILITY@ 004ba784     S04_MyWork05.obj
 0002:00000798       ??_C@_0BD@LFEACMAI@Max?5value?5reached?4@ 004ba798     S04_MyWork05.obj
 0002:000007ac       ??_C@_06FGBIADCA@W_FURY@   004ba7ac     S04_MyWork05.obj
 0002:000007b4       ??_C@_0BJ@POPDAMGB@W_TRADER_WARLORD_UPGRADE@ 004ba7b4     S04_MyWork05.obj
 0002:000007d0       ??_C@_09JAGDGNH@W_ENGRAVE@ 004ba7d0     S04_MyWork05.obj
 0002:000007dc       ??_C@_0O@HHAIBGBD@W_TAILOR_SEAL@ 004ba7dc     S04_MyWork05.obj
 0002:000007ec       ??_C@_0BG@NCGMFJE@W_TAILOR_ITEM_UPGRADE@ 004ba7ec     S04_MyWork05.obj
 0002:00000808       ??_7?$num_put@DV?$ostreambuf_iterator@DU?$char_traits@D@std@@@std@@@std@@6B@ 004ba808     S04_MyWork05.obj
 0002:00000834       ??_C@_02BBAHNLBA@?$CFp@    004ba834     S04_MyWork05.obj
 0002:0000083c       ??_7?$numpunct@D@std@@6B@  004ba83c     S04_MyWork05.obj
 0002:0000085c       ??_C@_0BI@CFPLBAOH@invalid?5string?5position@ 004ba85c     S04_MyWork05.obj
 0002:00000874       ??_C@_02MDKMJEGG@eE@       004ba874     S04_MyWork05.obj
 0002:00000878       ??_C@_02OOPEBDOJ@pP@       004ba878     S04_MyWork05.obj
 0002:00000880       __real@4202a05f20000000    004ba880     S04_MyWork05.obj
 0002:00000890       __xmm@000003e8000000640000000a00000001 004ba890     S04_MyWork05.obj
 0002:000008a0       __xmm@000f4240000027100000006400000001 004ba8a0     S04_MyWork05.obj
 0002:000008b0       __xmm@00989680000f4240000186a000002710 004ba8b0     S04_MyWork05.obj
 0002:000008c0       __xmm@7fffffffffffffff7fffffffffffffff 004ba8c0     S04_MyWork05.obj
 0002:000008e0       __xmm@00000081000000810000008100000081 004ba8e0     ItemTypeSetBonus.obj
 0002:000008f4       __real@3c23d70a            004ba8f4     AtakRate.obj
 0002:000008f8       __real@3cf5c28f            004ba8f8     AtakRate.obj
 0002:000008fc       __real@3f866666            004ba8fc     AtakRate.obj
 0002:00000900       __real@3f8ccccd            004ba900     AtakRate.obj
 0002:00000904       __real@3f933333            004ba904     AtakRate.obj
 0002:00000908       __real@3fc999999999999a    004ba908     AtakRate.obj
 0002:00000910       __real@3fdae148            004ba910     AtakRate.obj
 0002:00000914       __real@bdcccccd            004ba914     AtakRate.obj
 0002:00000918       __real@be4ccccd            004ba918     AtakRate.obj
 0002:0000091c       __real@becccccd            004ba91c     AtakRate.obj
 0002:00000920       __real@bf0ccccd            004ba920     AtakRate.obj
 0002:00000924       __real@bf19999a            004ba924     AtakRate.obj
 0002:00000928       __real@bf333333            004ba928     AtakRate.obj
 0002:0000092c       __real@bf8ccccd            004ba92c     AtakRate.obj
 0002:00000934       __real@3fd0a3d7            004ba934     Defans.obj
 0002:00000938       __real@4059000000000000    004ba938     Defans.obj
 0002:00000940       __real@41c2cccd            004ba940     Defans.obj
 0002:00000944       __real@42430000            004ba944     Defans.obj
 0002:0000094c       __real@3fd5c28f            004ba94c     DiðerStatlar.obj
 0002:00000950       __real@3fd999999999999a    004ba950     DiðerStatlar.obj
 0002:00000958       __real@3fe0000000000000    004ba958     DiðerStatlar.obj
 0002:00000960       __real@4079999a            004ba960     DiðerStatlar.obj
 0002:00000964       __real@40f9999a            004ba964     DiðerStatlar.obj
 0002:00000968       __real@bc23d70a            004ba968     DiðerStatlar.obj
 0002:0000096c       __real@bd23d70a            004ba96c     DiðerStatlar.obj
 0002:00000970       __real@bd4ccccd            004ba970     DiðerStatlar.obj
 0002:00000974       __real@bf000000            004ba974     DiðerStatlar.obj
 0002:00000978       __real@bf666666            004ba978     DiðerStatlar.obj
 0002:00000980       __real@bfa999999999999a    004ba980     DiðerStatlar.obj
 0002:00000988       __real@bfd3333333333333    004ba988     DiðerStatlar.obj
 0002:00000994       __real@00000000            004ba994     Mana.obj
 0002:00000998       __real@409f400000000000    004ba998     Mana.obj
 0002:000009a0       __real@40a7700000000000    004ba9a0     Mana.obj
 0002:000009a8       __real@40a8380000000000    004ba9a8     Mana.obj
 0002:000009b0       __real@40a9000000000000    004ba9b0     Mana.obj
 0002:000009b8       __real@40a9c80000000000    004ba9b8     Mana.obj
 0002:000009c0       __real@40aa900000000000    004ba9c0     Mana.obj
 0002:000009c8       __real@40ab580000000000    004ba9c8     Mana.obj
 0002:000009d0       __real@40ac200000000000    004ba9d0     Mana.obj
 0002:000009d8       __real@40adb00000000000    004ba9d8     Mana.obj
 0002:000009e0       __real@40af400000000000    004ba9e0     Mana.obj
 0002:000009e8       __real@40b0cc0000000000    004ba9e8     Mana.obj
 0002:000009f0       __real@40b1300000000000    004ba9f0     Mana.obj
 0002:000009f8       __real@40b1940000000000    004ba9f8     Mana.obj
 0002:00000a00       __real@40b1f80000000000    004baa00     Mana.obj
 0002:00000a08       __real@40b2c00000000000    004baa08     Mana.obj
 0002:00000a10       __real@40b3880000000000    004baa10     Mana.obj
 0002:00000a18       __real@40bf400000000000    004baa18     Mana.obj
 0002:00000a20       __real@4174f5c3            004baa20     Mana.obj
 0002:00000a28       __real@3f99999a            004baa28     Health.obj
 0002:00000a30       __real@3fb999999999999a    004baa30     Health.obj
 0002:00000a38       __real@402e000000000000    004baa38     Health.obj
 0002:00000a40       __real@4049000000000000    004baa40     Health.obj
 0002:00000a48       __real@4069000000000000    004baa48     Health.obj
 0002:00000a50       __real@406f400000000000    004baa50     Health.obj
 0002:00000a58       __real@41a00000            004baa58     Health.obj
 0002:00000a60       __real@c059000000000000    004baa60     Health.obj
 0002:00000a6c       ??_C@_0P@NAHEJNKC@MyServer?3?3Init@ 004baa6c     S02_MyServer.obj
 0002:00000a7c       ??_C@_0BL@MEFAABNC@?$CB?$FL?$CFs?$FN?5?3?5Main?5server?5start?6@ 004baa7c     S02_MyServer.obj
 0002:00000a98       ??_C@_0BE@OJKNMLBP@?$CB?$FL?$CFs?$FN?5?3?5Game?5start?6@ 004baa98     S02_MyServer.obj
 0002:00000aac       ??_C@_0BN@MCCGPANK@?$CB?$FL?$CFs?$FN?5?3?5Player?5server?5start?6@ 004baaac     S02_MyServer.obj
 0002:00000acc       ??_C@_0BM@PMOFIHHK@?$FL?$CFs?$FN?5?3?5Player?5server?5start?6@ 004baacc     S02_MyServer.obj
 0002:00000ae8       ??_C@_0BN@LKFENEAE@?$CB?$FL?$CFs?$FN?5?3?5Center?5server?5start?6@ 004baae8     S02_MyServer.obj
 0002:00000b08       ??_C@_0BM@IEJHKDKE@?$FL?$CFs?$FN?5?3?5Center?5server?5start?6@ 004bab08     S02_MyServer.obj
 0002:00000b24       ??_C@_0BM@OGLGFDCO@?$CB?$FL?$CFs?$FN?5?3?5RELAY?5server?5start?6@ 004bab24     S02_MyServer.obj
 0002:00000b40       ??_C@_0BL@ELLGCIMJ@?$FL?$CFs?$FN?5?3?5RELAY?5server?5start?6@ 004bab40     S02_MyServer.obj
 0002:00000b5c       ??_C@_0BM@CLFAGEJB@?$CB?$FL?$CFs?$FN?5?3?5EXTRA?5server?5start?6@ 004bab5c     S02_MyServer.obj
 0002:00000b78       ??_C@_0BL@IGFABPHG@?$FL?$CFs?$FN?5?3?5EXTRA?5server?5start?6@ 004bab78     S02_MyServer.obj
 0002:00000b94       ??_C@_0BM@HJCPFHKA@?$CB?$FL?$CFs?$FN?5?3?5Valet?5server?5start?6@ 004bab94     S02_MyServer.obj
 0002:00000bb0       ??_C@_0BL@NECPCMEH@?$FL?$CFs?$FN?5?3?5Valet?5server?5start?6@ 004babb0     S02_MyServer.obj
 0002:00000bcc       ??_C@_0BE@KJKEAMBC@?$CB?$FL?$CFs?$FN?5?3?5Work?5start?6@ 004babcc     S02_MyServer.obj
 0002:00000be0       ??_C@_0BD@DOCDFLN@?$FL?$CFs?$FN?5?3?5Work?5start?6@ 004babe0     S02_MyServer.obj
 0002:00000bf4       ??_C@_0BI@OGKJDLLL@?$CB?$FL?$CFs?$FN?5?3?5Transfer?5start?6@ 004babf4     S02_MyServer.obj
 0002:00000c0c       ??_C@_0BH@EIDLEOIC@?$FL?$CFs?$FN?5?3?5Transfer?5start?6@ 004bac0c     S02_MyServer.obj
 0002:00000c24       ??_C@_0CA@JKEAIEEE@?$CB?$FL?$CFs?$FN?5?3?5Kan?5Market?5Y?$PMklenemedi?6@ 004bac24     S02_MyServer.obj
 0002:00000c44       ??_C@_0BD@EDOLPCLA@?$FL?$CFs?$FN?5?3?5Game?5start?6@ 004bac44     S02_MyServer.obj
 0002:00000c58       ??_C@_0BO@CBFMEOEA@MyServer?3?3PROCESS_FOR_NETWORK@ 004bac58     S02_MyServer.obj
 0002:00000c78       ??_C@_0GD@POPNEDDE@C?3?2Users?2Administrator?2Desktop?2@ 004bac78     S02_MyServer.obj
 0002:00000cdc       ??_C@_0CG@PCBJNIIE@PACKET?5OPCODE?5?$DN?5?$CFd?5FOUND?5LENGTH@ 004bacdc     S02_MyServer.obj
 0002:00000d04       ??_C@_0CK@HIEKGGKB@PACKET?5OPCODE?5?$DN?5?$CFd?5NOT?5FOUND?5LE@ 004bad04     S02_MyServer.obj
 0002:00000d30       ??_C@_0CE@NAANMNEO@Wrong?5packet?4?5This?5user?5?$DN?$DN?$DN?$DN?$DN?$DN?$DN@ 004bad30     S02_MyServer.obj
 0002:00000d54       ??_C@_0M@PCENNPGA@?$CFd?4?$CFd?4?$CFd?4?$CFd@ 004bad54     S02_MyServer.obj
 0002:00000d60       ??_C@_06NMNBFGCM@?$CF08x?5?9@ 004bad60     S02_MyServer.obj
 0002:00000d68       ??_C@_07MIGEBJPB@?$CFs?5?$CF02x@ 004bad68     S02_MyServer.obj
 0002:00000d70       ??_C@_04OELPMFKG@?$CFs?5?5@ 004bad70     S02_MyServer.obj
 0002:00000d78       ??_C@_04DJCABLIL@?$CFs?$CFc@ 004bad78     S02_MyServer.obj
 0002:00000d80       ??_C@_03OFAPEBGM@?$CFs?6@  004bad80     S02_MyServer.obj
 0002:00000d84       ??_C@_05KKNFJNLK@?$CFs?5?5?5@ 004bad84     S02_MyServer.obj
 0002:00000d8c       ??_C@_0N@MGLOMKEC@MyUser?3?3Send@ 004bad8c     S03_MyUser.obj
 0002:00000d9c       ??_C@_0CI@LLNFCBBP@?$CB?$FL?$CFs?$FN?5?3?5Send?5buffer?5full?$CB?$CI?$CFd?0?5?$CF@ 004bad9c     S03_MyUser.obj
 0002:00000dc8       ??_C@_0GB@DMHFBCEK@C?3?2Users?2Administrator?2Desktop?2@ 004badc8     S03_MyUser.obj
 0002:00000e2c       ??_C@_0BF@JCHOLKAP@W_TEMP_REGISTER_SEND@ 004bae2c     S04_MyWork02.obj
 0002:00000e48       ??_C@_0GD@OCPHJMAL@C?3?2Users?2Administrator?2Desktop?2@ 004bae48     S04_MyWork02.obj
 0002:00000eac       ??_C@_0BH@KALGKAEI@W_REGISTER_AVATAR_SEND@ 004baeac     S04_MyWork02.obj
 0002:00000ec4       ??_C@_0BA@DNMGNLNK@?$CB?$FLRUN?$FN?5?5?$CFs?4?5?$CFd?6@ 004baec4     S04_MyWork02.obj
 0002:00000ed4       ??_C@_0N@DEAKEBCF@?$CF04d?$CF02d?$CF02d@ 004baed4     S04_MyWork02.obj
 0002:00000ee4       ??_C@_0BK@BADJALJI@W_CLIENT_OK_FOR_ZONE_SEND@ 004baee4     S04_MyWork02.obj
 0002:00000f00       ??_C@_0BK@LIALKMON@?$CB?$FLHACK?$FN?5?3?5?$CFs?0?5?$CFs?0?5?$CFd?0?5?$CFd?6@ 004baf00     S04_MyWork02.obj
 0002:00000f1c       ??_C@_0BG@PKPHHDBJ@W_AUTO_CHECK_ASK_RECV@ 004baf1c     S04_MyWork02.obj
 0002:00000f34       ??_C@_0BF@JOIMEHJM@W_AVATAR_ACTION_SEND@ 004baf34     S04_MyWork02.obj
 0002:00000f4c       ??_C@_0CJ@MGPGNMBA@MyWork?3?3CheckValidCharacterMoti@ 004baf4c     S04_MyWork02.obj
 0002:00000f78       ??_C@_0BH@DFCBBDJ@W_UPDATE_AVATAR_ACTION@ 004baf78     S04_MyWork02.obj
 0002:00000f90       ??_C@_0BG@FJCCIEOC@W_GENERAL_NOTICE_SEND@ 004baf90     S04_MyWork02.obj
 0002:00000fa8       ??_C@_0BG@JKACFNOI@W_PROCESS_ATTACK_SEND@ 004bafa8     S04_MyWork02.obj
 0002:00000fc0       ??_C@_0BE@NEHDJFGD@W_PROCESS_DATA_SEND@ 004bafc0     S04_MyWork02.obj
 0002:00000fd4       ??_C@_0BM@LCKDDPCD@W_DEMAND_ZONE_SERVER_INFO_2@ 004bafd4     S04_MyWork02.obj
 0002:00000ff0       ??_C@_0BP@KKJIMNHA@?$CBMoveItem?5not?5match?5sort?$CI?$CFd?$CJ?4?6@ 004baff0     S04_MyWork02.obj
 0002:00001010       ??_C@_07OHKHACFK@0?40?40?40@ 004bb010     S04_MyWork02.obj
 0002:00001018       ??_C@_0BI@MLFGKHIM@W_FAIL_MOVE_ZONE_2_SEND@ 004bb018     S04_MyWork02.obj
 0002:00001030       ??_C@_0BH@CLIPCOBB@W_USE_HOTKEY_ITEM_SEND@ 004bb030     S04_MyWork02.obj
 0002:00001048       ??_C@_0BK@IGNKMHPL@W_USE_INVENTORY_ITEM_SEND@ 004bb048     S04_MyWork02.obj
 0002:00001064       ??_C@_0BN@KKOKBNPJ@I?5can?8t?5belive?$CBI?5just?5found?5@ 004bb064     S04_MyWork02.obj
 0002:00001084       ??_C@_0CC@EKKLDGDI@OMG?$CB?5So?5lucky?5today?$CBLook?5at?5thi@ 004bb084     S04_MyWork02.obj
 0002:000010a8       ??_C@_0BG@BJDNLGBF@WOOOO?$CB?5Guess?5who?5won?5@ 004bb0a8     S04_MyWork02.obj
 0002:000010c0       ??_C@_0BP@EPMFLFPO@This?5is?5my?5lucky?5day?5noobs?5?9?$DO?5@ 004bb0c0     S04_MyWork02.obj
 0002:000010e0       ??_C@_0BN@BAGIHPAJ@Bumshakalaka?$CB?5I?5just?5earned?5@ 004bb0e0     S04_MyWork02.obj
 0002:00001100       ??_C@_0N@DEEEENCI@?$FL?$CFs?$FN?5?$CFs?5?8?$CFs?8@ 004bb100     S04_MyWork02.obj
 0002:00001110       ??_C@_0DH@KELHIPCK@?$DMUSE_INVENTORY_ITEM?$DO?$CI?$CFs?$CJ?0?$CI?$CFs?$CJ?0?5@ 004bb110     S04_MyWork02.obj
 0002:00001148       ??_C@_0BI@GLFKMKBD@AWESOME?$CB?5Another?5pet?5?$CB?5@ 004bb148     S04_MyWork02.obj
 0002:00001160       ??_C@_0BJ@JPCBNABB@That?8s?5the?5sound?5of?5the?5@ 004bb160     S04_MyWork02.obj
 0002:0000117c       ??_C@_0BH@PPBEGOIO@This?5is?5my?5new?5friend?5@ 004bb17c     S04_MyWork02.obj
 0002:00001194       ??_C@_0BD@CEDPMOIL@A?5new?5pet?5appeard?5@ 004bb194     S04_MyWork02.obj
 0002:000011a8       ??_C@_0BM@KCLNMHHB@This?5box?5was?5really?5lucky?$CB?5@ 004bb1a8     S04_MyWork02.obj
 0002:000011c4       ??_C@_0CK@JGGNFKI@?$FLIce?5King?5Box?$FN?5?$CFs?5gained?5?8Ultim@ 004bb1c4     S04_MyWork02.obj
 0002:000011f0       ??_C@_0BE@LLBJIALI@Katapult?5Kullan?$PNld?$PN@ 004bb1f0     S04_MyWork02.obj
 0002:00001204       ??_C@_0CC@BEMDDLGC@You?5need?5to?5be?5?$FLLevel?590?$FN?5?9?5REL@ 004bb204     S04_MyWork02.obj
 0002:00001228       ??_C@_0BE@OHBJAOG@W_IMPROVE_ITEM_SEND@ 004bb228     S04_MyWork02.obj
 0002:0000123c       ??_C@_0CC@KIJPMFFG@Maximum?5enchant?5has?5been?5reache@ 004bb23c     S04_MyWork02.obj
 0002:00001260       ??_C@_0BA@EMFEICBO@W_ADD_ITEM_SEND@ 004bb260     S04_MyWork02.obj
 0002:00001270       ??_C@_0BE@NIKJGJHE@Birle?$POtime?5Ba?$POar?$PNl?$PN@ 004bb270     S04_MyWork02.obj
 0002:00001284       ??_C@_0BP@MNOAMAI@Birle?$POtime?5Ba?$POr?$PNs?$PNz?5Item?5Yand?$PN@ 004bb284     S04_MyWork02.obj
 0002:000012a4       ??_C@_09EMDKHNKK@BA?$NOARISIZ@ 004bb2a4     S04_MyWork02.obj
 0002:000012b0       ??_C@_0BF@NBKODJMI@W_EXCHANGE_ITEM_SEND@ 004bb2b0     S04_MyWork02.obj
 0002:000012c8       ??_C@_0BB@CEGMIIFH@W_HIGH_ITEM_SEND@ 004bb2c8     S04_MyWork02.obj
 0002:000012dc       ??_C@_0BA@GHOBHCOK@W_LOW_ITEM_SEND@ 004bb2dc     S04_MyWork02.obj
 0002:000012ec       ??_C@_0BB@CAKHJAPP@W_MAKE_ITEM_SEND@ 004bb2ec     S04_MyWork02.obj
 0002:00001300       ??_C@_0DE@KKIBCBJL@?$DMMAKE_ITEM_SEND?$DO?$CI?$CFs?$CJ?0?$CI?$CFs?$CJ?0?5?$CI?$CFd?0@ 004bb300     S04_MyWork02.obj
 0002:00001334       ??_C@_0O@DEFPGFCN@PC?5Craft?5Fail@ 004bb334     S04_MyWork02.obj
 0002:00001344       ??_C@_0BC@HBMIFFFJ@?$FL?$CFs?$FN?5crafted?5?8?$CFs?8@ 004bb344     S04_MyWork02.obj
 0002:00001358       ??_C@_0N@GBCECOD@Unsuccessful@ 004bb358     S04_MyWork02.obj
 0002:00001368       ??_C@_0BG@CFONADJB@?$FL?$CFs?$FN?5found?5?8?$CFs?8?5from?5@ 004bb368     S04_MyWork02.obj
 0002:00001380       ??_C@_0BC@BNJHFBGB@W_MAKE_SKILL_SEND@ 004bb380     S04_MyWork02.obj
 0002:00001394       ??_C@_0BD@DIIBADED@W_START_PSHOP_SEND@ 004bb394     S04_MyWork02.obj
 0002:000013a8       ??_C@_0BB@GKMINGC@W_END_PSHOP_SEND@ 004bb3a8     S04_MyWork02.obj
 0002:000013bc       ??_C@_0BE@HAIKNLFM@W_DEMAND_PSHOP_SEND@ 004bb3bc     S04_MyWork02.obj
 0002:000013d0       ??_C@_0BH@POIOABB@W_PSHOP_ITEM_INFO_SEND@ 004bb3d0     S04_MyWork02.obj
 0002:000013e8       ??_C@_0BB@EHAMEDFN@W_BUY_PSHOP_SEND@ 004bb3e8     S04_MyWork02.obj
 0002:000013fc       ??_C@_0BF@HEEIBEHN@W_PROCESS_QUEST_SEND@ 004bb3fc     S04_MyWork02.obj
 0002:00001414       ??_C@_0BI@BEKJNGEC@W_CHANGE_TO_TRIBE4_SEND@ 004bb414     S04_MyWork02.obj
 0002:0000142c       ??_C@_0BE@EGMFLFPO@W_GENERAL_CHAT_SEND@ 004bb42c     S04_MyWork02.obj
 0002:00001440       ??_C@_05GJFICNIC@?$CF?$CFexp@ 004bb440     S04_MyWork02.obj
 0002:00001448       ??_C@_0BG@GJJGELLG@Experience?5is?5locked?$CB@ 004bb448     S04_MyWork02.obj
 0002:00001460       ??_C@_0BI@DBAALNNH@Experience?5is?5unlocked?$CB@ 004bb460     S04_MyWork02.obj
 0002:00001478       ??_C@_05LCIJEIOL@?$CF?$CFwar@ 004bb478     S04_MyWork02.obj
 0002:00001480       ??_C@_0BE@BLLIAJBP@?$GA?$GAevent?5?$CFc?5?$CFd?5?$CFd?5?$CFf@ 004bb480     S04_MyWork02.obj
 0002:00001494       ??_C@_08JDDDENBP@?$CF?$CFDelete@ 004bb494     S04_MyWork02.obj
 0002:000014a0       ??_C@_08LOJDJFNL@?$CF?$CFUpdate@ 004bb4a0     S04_MyWork02.obj
 0002:000014ac       ??_C@_0L@JMCNNNA@?$CF?$CFShutdown@ 004bb4ac     S04_MyWork02.obj
 0002:000014b8       ??_C@_09KNLCKGMC@?$CF?$CFRestart@ 004bb4b8     S04_MyWork02.obj
 0002:000014c4       ??_C@_0BB@FBEAJDAP@?$CF?$CFUpdateCostInfo@ 004bb4c4     S04_MyWork02.obj
 0002:000014d8       ??_C@_0BC@OHGLAMHN@?$CF?$CFUpdateBloodItem@ 004bb4d8     S04_MyWork02.obj
 0002:000014ec       ??_C@_0N@NAFFLGEC@?$CF?$CFStartVote1@ 004bb4ec     S04_MyWork02.obj
 0002:000014fc       ??_C@_0N@PLHIOFIB@?$CF?$CFStartVote2@ 004bb4fc     S04_MyWork02.obj
 0002:0000150c       ??_C@_0N@OCGDNEMA@?$CF?$CFStartVote3@ 004bb50c     S04_MyWork02.obj
 0002:0000151c       ??_C@_0N@KNCCECAH@?$CF?$CFStartVote4@ 004bb51c     S04_MyWork02.obj
 0002:0000152c       ??_C@_09MLJCKMNM@?$CF?$CFEndVote@ 004bb52c     S04_MyWork02.obj
 0002:00001538       ??_C@_07DLCEAFED@?$CF?$CFClear@ 004bb538     S04_MyWork02.obj
 0002:00001540       ??_C@_0P@IOCEHCH@?$CFc?5?$CFd?5?$CFd?5?$CFd?5?$CFd@ 004bb540     S04_MyWork02.obj
 0002:00001550       ??_C@_0FE@OIOIOEMP@?$DMGM_CREATE_ITEM?$DO?$CI?$CFs?$CJ?0?$CI?$CFs?$CJ?0?$CIItem@ 004bb550     S04_MyWork02.obj
 0002:000015a4       ??_C@_0BD@JFNIIFID@W_SECRET_CHAT_SEND@ 004bb5a4     S04_MyWork02.obj
 0002:000015b8       ??_C@_0BF@CEDLHLBM@W_GENERAL_SHOUT_SEND@ 004bb5b8     S04_MyWork02.obj
 0002:000015d0       ??_C@_0BF@LLHLJODF@W_GET_CASH_SIZE_SEND@ 004bb5d0     S04_MyWork02.obj
 0002:000015e8       ??_C@_0BF@ECJLDFGC@W_BUY_CASH_ITEM_SEND@ 004bb5e8     S04_MyWork02.obj
 0002:00001600       ??_C@_0EO@JMFBIMEG@?$DMBUY_CASH_ITEM?$DO?$CI?$CFs?$CJ?0?$CI?$CFs?$CJ?0?5?$CI?$CFd?0?5@ 004bb600     S04_MyWork02.obj
 0002:00001650       ??_C@_0BA@BIDEIGIO@W_DUEL_ASK_SEND@ 004bb650     S04_MyWork02.obj
 0002:00001660       ??_C@_0BD@GGGHABEJ@W_DUEL_CANCEL_SEND@ 004bb660     S04_MyWork02.obj
 0002:00001674       ??_C@_0BD@NDJJFKG@W_DUEL_ANSWER_SEND@ 004bb674     S04_MyWork02.obj
 0002:00001688       ??_C@_0BC@BCIBHDDG@W_DUEL_START_SEND@ 004bb688     S04_MyWork02.obj
 0002:0000169c       ??_C@_0BB@PACEEMGJ@W_TRADE_ASK_SEND@ 004bb69c     S04_MyWork02.obj
 0002:000016b0       ??_C@_0BE@OGGIOICE@W_TRADE_CANCEL_SEND@ 004bb6b0     S04_MyWork02.obj
 0002:000016c4       ??_C@_0BE@INDGHMML@W_TRADE_ANSWER_SEND@ 004bb6c4     S04_MyWork02.obj
 0002:000016d8       ??_C@_0BD@HIAPNFKD@W_TRADE_START_SEND@ 004bb6d8     S04_MyWork02.obj
 0002:000016ec       ??_C@_0BC@MLAJFNGA@W_TRADE_MENU_SEND@ 004bb6ec     S04_MyWork02.obj
 0002:00001700       ??_C@_0BB@LMDOEJHG@W_TRADE_END_SEND@ 004bb700     S04_MyWork02.obj
 0002:00001714       ??_C@_0BC@BGOMKFBP@W_FRIEND_ASK_SEND@ 004bb714     S04_MyWork02.obj
 0002:00001728       ??_C@_0BF@KMBHPOAH@W_FRIEND_CANCEL_SEND@ 004bb728     S04_MyWork02.obj
 0002:00001740       ??_C@_0BF@MHEJGKOI@W_FRIEND_ANSWER_SEND@ 004bb740     S04_MyWork02.obj
 0002:00001758       ??_C@_0BD@FLICCG@W_FRIEND_MAKE_SEND@ 004bb758     S04_MyWork02.obj
 0002:0000176c       ??_C@_0BD@KNPENOBJ@W_FRIEND_FIND_SEND@ 004bb76c     S04_MyWork02.obj
 0002:00001780       ??_C@_0BF@DKDALJNL@W_FRIEND_DELETE_SEND@ 004bb780     S04_MyWork02.obj
 0002:00001798       ??_C@_0BD@MDENBEOF@W_TEACHER_ASK_SEND@ 004bb798     S04_MyWork02.obj
 0002:000017ac       ??_C@_0BG@EIELAEFD@W_TEACHER_CANCEL_SEND@ 004bb7ac     S04_MyWork02.obj
 0002:000017c4       ??_C@_0BG@CDBFJALM@W_TEACHER_ANSWER_SEND@ 004bb7c4     S04_MyWork02.obj
 0002:000017dc       ??_C@_0BF@IKIJOIEL@W_TEACHER_START_SEND@ 004bb7dc     S04_MyWork02.obj
 0002:000017f4       ??_C@_0BD@IPFHBBPK@W_TEACHER_END_SEND@ 004bb7f4     S04_MyWork02.obj
 0002:00001808       ??_C@_0BF@INEPHGLG@W_TEACHER_STATE_SEND@ 004bb808     S04_MyWork02.obj
 0002:00001820       ??_C@_0BB@MBLCEBFJ@W_PARTY_ASK_SEND@ 004bb820     S04_MyWork02.obj
 0002:00001834       ??_C@_0BE@GOMBEFLJ@W_PARTY_CANCEL_SEND@ 004bb834     S04_MyWork02.obj
 0002:00001848       ??_C@_0BE@FJPNBFG@W_PARTY_ANSWER_SEND@ 004bb848     S04_MyWork02.obj
 0002:0000185c       ??_C@_0BC@HNDADFDN@W_PARTY_CHAT_SEND@ 004bb85c     S04_MyWork02.obj
 0002:00001870       ??_C@_0CM@ENAEBOPG@?$DMPARTY_CHAT?$DO?$CI?$CFs?$CJ?0?$CI?$CFs?$CJ?0?5?$CIMessage@ 004bb870     S04_MyWork02.obj
 0002:0000189c       ??_C@_0BD@GJHJONCA@W_PARTY_LEAVE_SEND@ 004bb89c     S04_MyWork02.obj
 0002:000018b0       ??_C@_0BD@JGMHFGAG@W_PARTY_EXILE_SEND@ 004bb8b0     S04_MyWork02.obj
 0002:000018c4       ??_C@_0BD@IFNAEONE@W_PARTY_BREAK_SEND@ 004bb8c4     S04_MyWork02.obj
 0002:000018d8       ??_C@_0BB@FNHHGJMM@W_GUILD_ASK_SEND@ 004bb8d8     S04_MyWork02.obj
 0002:000018ec       ??_C@_0BE@CDEKKHKL@W_GUILD_CANCEL_SEND@ 004bb8ec     S04_MyWork02.obj
 0002:00001900       ??_C@_0BE@EIBEDDEE@W_GUILD_ANSWER_SEND@ 004bb900     S04_MyWork02.obj
 0002:00001914       ??_C@_0BC@NEEPABGK@W_GUILD_WORK_SEND@ 004bb914     S04_MyWork02.obj
 0002:00001928       ??_C@_0BE@BJMGFKKI@W_GUILD_NOTICE_SEND@ 004bb928     S04_MyWork02.obj
 0002:0000193c       ??_C@_0BC@PNMJJHNO@W_GUILD_CHAT_SEND@ 004bb93c     S04_MyWork02.obj
 0002:00001950       ??_C@_0CM@IMLBJIBD@?$DMGUILD_CHAT?$DO?$CI?$CFs?$CJ?0?$CI?$CFs?$CJ?0?5?$CIMessage@ 004bb950     S04_MyWork02.obj
 0002:0000197c       ??_C@_0BC@LCGFMGLL@W_GUILD_FIND_SEND@ 004bb97c     S04_MyWork02.obj
 0002:00001990       ??_C@_0BC@OBOCMEMD@W_TRIBE_WORK_SEND@ 004bb990     S04_MyWork02.obj
 0002:000019a4       ??_C@_0BE@INANFOJK@W_TRIBE_NOTICE_SEND@ 004bb9a4     S04_MyWork02.obj
 0002:000019b8       ??_C@_0BC@MIGEFCHH@W_TRIBE_CHAT_SEND@ 004bb9b8     S04_MyWork02.obj
 0002:000019cc       ??_C@_0BC@MDLDHBJJ@W_TRIBE_BANK_SEND@ 004bb9cc     S04_MyWork02.obj
 0002:000019e0       ??_C@_0BC@JIHANNCH@W_TRIBE_VOTE_SEND@ 004bb9e0     S04_MyWork02.obj
 0002:000019f4       ??_C@_0BE@HPADHJGO@W_ANIMAL_STATE_SEND@ 004bb9f4     S04_MyWork02.obj
 0002:00001a08       ??_C@_0BK@KPBOLHJC@W_GET_CASH_ITEM_INFO_SEND@ 004bba08     S04_MyWork02.obj
 0002:00001a24       ??_C@_0O@CJLKGFFB@w_MOUT_ABSORB@ 004bba24     S04_MyWork02.obj
 0002:00001a34       ??_C@_0L@KEAGMBJP@W_AUTO_POT@ 004bba34     S04_MyWork02.obj
 0002:00001a40       ??_C@_09LBBBANJA@W_COSTUME@ 004bba40     S04_MyWork02.obj
 0002:00001a4c       ??_C@_0L@HMINCJMC@W_AUTOBUFF@ 004bba4c     S04_MyWork02.obj
 0002:00001a58       ??_C@_0M@LDELCJAH@W_AUTOBUFF1@ 004bba58     S04_MyWork02.obj
 0002:00001a64       ??_C@_07FCNEPBAE@W_CRAFT@  004bba64     S04_MyWork02.obj
 0002:00001a6c       ??_C@_0P@IJNICNCO@D?vk?$PMm?5Ba?$POar?$PNl?$PN@ 004bba6c     S04_MyWork02.obj
 0002:00001a7c       ??_C@_0BJ@PMAOCOML@D?vk?$PMm?5T?$PNls?$PNm?$PN?5Kullan?$PNld?$PN@ 004bba7c     S04_MyWork02.obj
 0002:00001a98       ??_C@_0N@HCJIKGJP@Item?5K?$PNr?$PNld?$PN@ 004bba98     S04_MyWork02.obj
 0002:00001aa8       ??_C@_0P@KDDJGBMO@D?vk?$PMm?5Baar?$PNs?$PNz@ 004bbaa8     S04_MyWork02.obj
 0002:00001ab8       ??_C@_09CONLGILL@W_MUHAFIZ@ 004bbab8     S04_MyWork02.obj
 0002:00001ac4       ??_C@_0BC@IFMIEFKM@W_FUNCITON_NOTICE@ 004bbac4     S04_MyWork02.obj
 0002:00001ad8       ??_C@_0L@EANKBAAI@W_AUTOHUNT@ 004bbad8     S04_MyWork02.obj
 0002:00001ae4       ??_C@_0BA@DIALCBKJ@W_DAILY_MISSION@ 004bbae4     S04_MyWork02.obj
 0002:00001af8       ??_C@_0FP@JJCLBMMH@C?3?2Users?2Administrator?2Desktop?2@ 004bbaf8     S04_MyWork02.obj
 0002:00001b58       ??_C@_0BD@GFBOCPIH@W_PET_COMBINE_SEND@ 004bbb58     S04_MyWork02.obj
 0002:00001b6c       ??_C@_0BH@OLKODKCJ@?$FL?$CFs?$FN?5just?5crafted?5?8?$CFs?8@ 004bbb6c     S04_MyWork02.obj
 0002:00001b84       __real@3f000000            004bbb84     S04_MyWork02.obj
 0002:00001b88       __real@3f847ae147ae147b    004bbb88     S04_MyWork02.obj
 0002:00001b90       __real@3f9eb851eb851eb8    004bbb90     S04_MyWork02.obj
 0002:00001b98       __real@3fe6666666666666    004bbb98     S04_MyWork02.obj
 0002:00001ba0       __real@401921fb54442d18    004bbba0     S04_MyWork02.obj
 0002:00001ba8       __real@40800000            004bbba8     S04_MyWork02.obj
 0002:00001bac       __real@42c80000            004bbbac     S04_MyWork02.obj
 0002:00001bb0       __real@43960000            004bbbb0     S04_MyWork02.obj
 0002:00001bb4       __real@44268000            004bbbb4     S04_MyWork02.obj
 0002:00001bb8       __real@44a92000            004bbbb8     S04_MyWork02.obj
 0002:00001bbc       __real@44bb8000            004bbbbc     S04_MyWork02.obj
 0002:00001bc0       __real@461c4000            004bbbc0     S04_MyWork02.obj
 0002:00001bc4       __real@bf800000            004bbbc4     S04_MyWork02.obj
 0002:00001bc8       __real@c0800000            004bbbc8     S04_MyWork02.obj
 0002:00001bcc       __real@c2c80000            004bbbcc     S04_MyWork02.obj
 0002:00001bd0       __real@c3960000            004bbbd0     S04_MyWork02.obj
 0002:00001bd4       __real@c4a92000            004bbbd4     S04_MyWork02.obj
 0002:00001be0       __xmm@00000001000000010000000100000001 004bbbe0     S04_MyWork02.obj
 0002:00001bf0       __xmm@00000002000000020000000200000002 004bbbf0     S04_MyWork02.obj
 0002:00001c00       __xmm@00000003000000030000000300000003 004bbc00     S04_MyWork02.obj
 0002:00001c10       __xmm@00000004000000040000000400000004 004bbc10     S04_MyWork02.obj
 0002:00001c20       __xmm@0000000a000000090000000800000007 004bbc20     S04_MyWork02.obj
 0002:00001c30       __xmm@0000000e0000000d0000000c0000000b 004bbc30     S04_MyWork02.obj
 0002:00001c40       __xmm@00000011000000100000000c0000000b 004bbc40     S04_MyWork02.obj
 0002:00001c50       __xmm@00000014000000130000000c0000000b 004bbc50     S04_MyWork02.obj
 0002:00001c60       __xmm@00000d48000009c4000006a400000320 004bbc60     S04_MyWork02.obj
 0002:00001c70       __xmm@00001a900000170c000013ec00001068 004bbc70     S04_MyWork02.obj
 0002:00001c80       __xmm@00002710000024540000213400001db0 004bbc80     S04_MyWork02.obj
 0002:00001c90       __xmm@ffffffffffffffffffffffffffffffff 004bbc90     S04_MyWork02.obj
 0002:00001ca4       ??_C@_0BI@JGEKLHIL@MyWork?3?3ProcessForRelay@ 004bbca4     S04_MyWork03.obj
 0002:00001cc0       ??_C@_0GD@CJKLEPKO@C?3?2Users?2Administrator?2Desktop?2@ 004bbcc0     S04_MyWork03.obj
 0002:00001d24       ??_C@_0BP@NFJECLLB@?$CBWORLD_MONSTER_DROP_MONEY?3?5?$CFd?6@ 004bbd24     S04_MyWork03.obj
 0002:00001d44       ??_C@_0BJ@PDHNJOJN@?$CBWORLD_GODITEM_DROP?3?5?$CFd?6@ 004bbd44     S04_MyWork03.obj
 0002:00001d60       ??_C@_0BN@DBAIEPPN@?$CBWORLD_EARTH_CHEST_DROP?3?5?$CFd?6@ 004bbd60     S04_MyWork03.obj
 0002:00001d80       ??_C@_0BJ@BNAAMODB@?$CBWORLD_DIAMOND_DROP?3?5?$CFd?6@ 004bbd80     S04_MyWork03.obj
 0002:00001d9c       ??_C@_0BJ@NOPNBILM@?$CBWORLD_FEATHER_DROP?3?5?$CFd?6@ 004bbd9c     S04_MyWork03.obj
 0002:00001db8       ??_C@_0BL@MJAPINDJ@?$CBWORLD_SKILL_BOX_DROP?3?5?$CFd?6@ 004bbdb8     S04_MyWork03.obj
 0002:00001dd4       ??_C@_0BP@NAIKNLLH@?$CBWORLD_IMPROVE_STONE_DROP?3?5?$CFd?6@ 004bbdd4     S04_MyWork03.obj
 0002:00001df4       ??_C@_0BF@CHALFLBI@?$CBWORLD_8TH_DROP?3?5?$CFd?6@ 004bbdf4     S04_MyWork03.obj
 0002:00001e0c       ??_C@_0BL@INNCNJOI@?$CBOUTPOST_FEATHER_DROP?3?5?$CFd?6@ 004bbe0c     S04_MyWork03.obj
 0002:00001e28       ??_C@_0BL@EOCPAPGF@?$CBOUTPOST_DIAMOND_DROP?3?5?$CFd?6@ 004bbe28     S04_MyWork03.obj
 0002:00001e44       ??_C@_0BL@GPEJGKOL@?$CBOUTPOST_5_MOUNT_DROP?3?5?$CFd?6@ 004bbe44     S04_MyWork03.obj
 0002:00001e60       ??_C@_0CC@KBHJEMCP@?$CBOUTPOST_HEAVENLY_CHEST_DROP?3?5?$CF@ 004bbe60     S04_MyWork03.obj
 0002:00001e84       ??_C@_0CB@BFIFODPG@?$CBOUTPOST_ASIRLIK_ALTIN_DROP?3?5?$CFd@ 004bbe84     S04_MyWork03.obj
 0002:00001ea8       ??_C@_0CB@LKJMFICC@?$CBOUTPOST_BLACK_FEATHER_DROP?3?5?$CFd@ 004bbea8     S04_MyWork03.obj
 0002:00001ecc       ??_C@_0BJ@JNKAIPFK@?$CBOUTPOST_IKSIR_DROP?3?5?$CFd?6@ 004bbecc     S04_MyWork03.obj
 0002:00001ee8       ??_C@_0BN@PLLLLEGA@?$CBOUTPOST_SKILL_BOX_DROP?3?5?$CFd?6@ 004bbee8     S04_MyWork03.obj
 0002:00001f08       ??_C@_0CD@LMELJNDC@?$CBOUTPOST_TREASURE_MONSTER_BOX?3?5@ 004bbf08     S04_MyWork03.obj
 0002:00001f2c       ??_C@_0CA@FNOMHLNG@?$CBOUTPOST_10_MOUNT_BOX_DROP?3?5?$CFd?6@ 004bbf2c     S04_MyWork03.obj
 0002:00001f4c       ??_C@_0CA@BGGFIMBG@?$CBOUTPOST_15_MOUNT_BOX_DROP?3?5?$CFd?6@ 004bbf4c     S04_MyWork03.obj
 0002:00001f6c       ??_C@_0BO@KBCMLLDP@?$CBOUTPOST_8_BK_CRAFT_DROP?3?5?$CFd?6@ 004bbf6c     S04_MyWork03.obj
 0002:00001f8c       ??_C@_0BG@DFCGHHKE@?$CBPK_IOS_KEY_DROP?3?5?$CFd?6@ 004bbf8c     S04_MyWork03.obj
 0002:00001fa4       ??_C@_0BK@JHENHFMH@?$CBWORLD_2_SOCKET_RATE?3?5?$CFd?6@ 004bbfa4     S04_MyWork03.obj
 0002:00001fc0       ??_C@_0BK@EAKPPFJP@?$CBWORLD_3_SOCKET_RATE?3?5?$CFd?6@ 004bbfc0     S04_MyWork03.obj
 0002:00001fdc       ??_C@_0BK@KJBHONE@?$CBWORLD_4_SOCKET_RATE?3?5?$CFd?6@ 004bbfdc     S04_MyWork03.obj
 0002:00001ff8       ??_C@_0BK@NNHDPOIM@?$CBWORLD_5_SOCKET_RATE?3?5?$CFd?6@ 004bbff8     S04_MyWork03.obj
 0002:00002014       ??_C@_0BH@BIDBMLGP@MyWork?3?3ProcessForData@ 004bc014     S04_MyWork03.obj
 0002:0000202c       ??_C@_0BK@MELHMILL@?$DMGM_MOVE?$DO?$CI?$CFs?$CJ?0?$CI?$CFs?$CJ?0?$FL?$FL?$CFd?$FN?$FN@ 004bc02c     S04_MyWork03.obj
 0002:00002048       ??_C@_0CK@LAJDLGNN@?$DMGM_DIE?$DO?$CI?$CFs?$CJ?0?$CI?$CFs?$CJ?0?$CIMonster?5ID?3?5@ 004bc048     S04_MyWork03.obj
 0002:00002074       ??_C@_0BJ@DDAGHOCJ@?$DMGM_MAX?$DO?$CI?$CFs?$CJ?0?$CI?$CFs?$CJ?0?$FL?$FL?$CFd?$FN?$FN@ 004bc074     S04_MyWork03.obj
 0002:00002090       ??_C@_0BL@MCFFFEDL@?$DMGM_LEVEL?$DO?$CI?$CFs?$CJ?0?$CI?$CFs?$CJ?0?$FL?$FL?$CFd?$FN?$FN@ 004bc090     S04_MyWork03.obj
 0002:000020ac       ??_C@_0P@LMIIIMGD@?$CFd?$CFd?$CFd?$CFd?$CFd?$CFd?$CFd@ 004bc0ac     S04_MyWork03.obj
 0002:000020bc       ??_C@_0N@CBPNAJBN@?$CB0?0?5Name?3?$CFs?6@ 004bc0bc     S04_MyWork03.obj
 0002:000020cc       ??_C@_0N@LKFIEFHC@?$CB1?0?5Name?3?$CFs?6@ 004bc0cc     S04_MyWork03.obj
 0002:000020dc       __real@41800000            004bc0dc     S04_MyWork03.obj
 0002:000020e0       __real@42500000            004bc0e0     S04_MyWork03.obj
 0002:000020e4       __real@42f40000            004bc0e4     S04_MyWork03.obj
 0002:000020e8       __real@42f80000            004bc0e8     S04_MyWork03.obj
 0002:000020ec       __real@c2f40000            004bc0ec     S04_MyWork03.obj
 0002:000020f0       __real@c2f80000            004bc0f0     S04_MyWork03.obj
 0002:000020f8       ??_C@_0BK@MLDIOOGF@MyWork?3?3ProcessForGetItem@ 004bc0f8     S04_MyWork04.obj
 0002:00002118       ??_C@_0GD@DEKOHPBG@C?3?2Users?2Administrator?2Desktop?2@ 004bc118     S04_MyWork04.obj
 0002:0000217c       ??_C@_0BO@DKAPNLBC@MyWork?3?3ProcessForLearnSkill1@ 004bc17c     S04_MyWork04.obj
 0002:0000219c       ??_C@_0BP@OCGMIELO@MyWork?3?3ProcessForSkillUpgrade@ 004bc19c     S04_MyWork04.obj
 0002:000021bc       ??_C@_0CA@LGMKPINO@MyWork?3?3ProcessForSkillToHotKey@ 004bc1bc     S04_MyWork04.obj
 0002:000021dc       ??_C@_0BN@ICLELDBE@MyWork?3?3ProcessForHotKeyToNo@ 004bc1dc     S04_MyWork04.obj
 0002:000021fc       ??_C@_0BL@KOECDGFI@MyWork?3?3ProcessForStatPlus@ 004bc1fc     S04_MyWork04.obj
 0002:00002218       ??_C@_0CH@MKGDNAPM@MyWork?3?3ProcessForInventoryToIn@ 004bc218     S04_MyWork04.obj
 0002:00002240       ??_C@_0CD@PMMBGICD@MyWork?3?3ProcessForInventoryToWo@ 004bc240     S04_MyWork04.obj
 0002:00002264       ??_C@_0CD@NILNMPFH@MyWork?3?3ProcessForInventoryToEq@ 004bc264     S04_MyWork04.obj
 0002:00002288       ??_C@_0CE@HOJHJGJC@MyWork?3?3ProcessForInventoryToHo@ 004bc288     S04_MyWork04.obj
 0002:000022ac       ??_C@_0CK@GEMOKJG@MyWork?3?3ProcessForInventoryToPe@ 004bc2ac     S04_MyWork04.obj
 0002:000022d8       ??_C@_0CK@MKFJBEFG@MyWork?3?3ProcessForPetInventoryT@ 004bc2d8     S04_MyWork04.obj
 0002:00002304       ??_C@_0CN@LLDJPJNI@MyWork?3?3ProcessForPetInventoryT@ 004bc304     S04_MyWork04.obj
 0002:00002334       ??_C@_0CF@KCKCMHN@MyWork?3?3ProcessForInventoryToNP@ 004bc334     S04_MyWork04.obj
 0002:0000235c       ??_C@_0CD@FEDPCCNA@MyWork?3?3ProcessForEquipToInvent@ 004bc35c     S04_MyWork04.obj
 0002:00002380       ??_C@_0CE@BPKPEMPM@MyWork?3?3ProcessForHotKeyToInven@ 004bc380     S04_MyWork04.obj
 0002:000023a4       ??_C@_0CF@JFCBGAJO@MyWork?3?3ProcessForNPCShopToInve@ 004bc3a4     S04_MyWork04.obj
 0002:000023cc       ??_C@_0CB@IAKGOEM@MyWork?3?3ProcessForHotKeyToHotKe@ 004bc3cc     S04_MyWork04.obj
 0002:000023f0       ??_C@_0CI@HKPJDPFA@MyWork?3?3ProcessForInventoryMone@ 004bc3f0     S04_MyWork04.obj
 0002:00002418       ??_C@_0CD@LHIBNBDG@MyWork?3?3ProcessForInventoryToTr@ 004bc418     S04_MyWork04.obj
 0002:0000243c       ??_C@_0CD@DNMMFLKC@MyWork?3?3ProcessForTradeToInvent@ 004bc43c     S04_MyWork04.obj
 0002:00002460       ??_C@_0BP@NEMLNLNL@MyWork?3?3ProcessForTradeToTrade@ 004bc460     S04_MyWork04.obj
 0002:00002480       ??_C@_0CN@JHEPEOJJ@MyWork?3?3ProcessForInventoryMone@ 004bc480     S04_MyWork04.obj
 0002:000024b0       ??_C@_0CN@EHGJDMDD@MyWork?3?3ProcessForTradeMoneyToI@ 004bc4b0     S04_MyWork04.obj
 0002:000024e0       ??_C@_0CD@NNLALMNP@MyWork?3?3ProcessForInventoryToSt@ 004bc4e0     S04_MyWork04.obj
 0002:00002504       ??_C@_0BA@BNBPJAGF@Bankaya?5Koyuldu@ 004bc504     S04_MyWork04.obj
 0002:00002514       ??_C@_0CD@DNMMCBKC@MyWork?3?3ProcessForStoreToInvent@ 004bc514     S04_MyWork04.obj
 0002:00002538       ??_C@_0BB@EEHAGACM@Envantere?5Al?$PNnd?$PN@ 004bc538     S04_MyWork04.obj
 0002:0000254c       ??_C@_0BP@FEHCMPCD@MyWork?3?3ProcessForStoreToStore@ 004bc54c     S04_MyWork04.obj
 0002:0000256c       ??_C@_0CN@MBHMMIGD@MyWork?3?3ProcessForInventoryMone@ 004bc56c     S04_MyWork04.obj
 0002:0000259c       ??_C@_0CN@CCOEHFHI@MyWork?3?3ProcessForStoreMoneyToI@ 004bc59c     S04_MyWork04.obj
 0002:000025cc       ??_C@_0CC@PBKLDIHM@MyWork?3?3ProcessForInventoryToSa@ 004bc5cc     S04_MyWork04.obj
 0002:000025f0       ??_C@_0BF@JBCHPDOM@I?$PO?$PNnlay?$PNc?$PNya?5Koyuldu@ 004bc5f0     S04_MyWork04.obj
 0002:00002608       ??_C@_0CC@KCOBDOAC@MyWork?3?3ProcessForSaveToInvento@ 004bc608     S04_MyWork04.obj
 0002:0000262c       ??_C@_0BC@GFJLMMKI@Envantere?5Koyuldu@ 004bc62c     S04_MyWork04.obj
 0002:00002640       ??_C@_0BN@IKFDCACL@MyWork?3?3ProcessForSaveToSave@ 004bc640     S04_MyWork04.obj
 0002:00002660       ??_C@_0CM@BBLGKADO@MyWork?3?3ProcessForInventoryMone@ 004bc660     S04_MyWork04.obj
 0002:0000268c       ??_C@_0CM@IDDGIDFL@MyWork?3?3ProcessForSaveMoneyToIn@ 004bc68c     S04_MyWork04.obj
 0002:000026b8       ??_C@_0BO@BBCCIINB@MyWork?3?3ProcessForLearnSkill2@ 004bc6b8     S04_MyWork04.obj
 0002:000026d8       ??_C@_0CP@KBEAJEJG@MyWork?3?3ProcessForInventoryBarT@ 004bc6d8     S04_MyWork04.obj
 0002:00002708       ??_C@_0CP@BJDELNAP@MyWork?3?3ProcessForInventoryMone@ 004bc708     S04_MyWork04.obj
 0002:00002738       ??_C@_0CJ@MCAANLNC@MyWork?3?3ProcessForInventoryBarT@ 004bc738     S04_MyWork04.obj
 0002:00002764       ??_C@_0CJ@LPOHEHOD@MyWork?3?3ProcessForTradeBarToInv@ 004bc764     S04_MyWork04.obj
 0002:00002790       ??_C@_0CI@JAMKNAPL@MyWork?3?3ProcessForInventoryBarT@ 004bc790     S04_MyWork04.obj
 0002:000027b8       ??_C@_0CI@EIBGDJO@MyWork?3?3ProcessForBankBarToInve@ 004bc7b8     S04_MyWork04.obj
 0002:000027e0       ??_C@_0CJ@NHBACNHM@MyWork?3?3ProcessForInventoryBarT@ 004bc7e0     S04_MyWork04.obj
 0002:0000280c       ??_C@_0CJ@FDKJIGGC@MyWork?3?3ProcessForSeyisBarToInv@ 004bc80c     S04_MyWork04.obj
 0002:00002838       ??_C@_0BB@OGHJHLPI@mIP?$DN?$CFs?6mPort?$DN?$CFd?6@ 004bc838     S06_MyUpperCom.obj
 0002:0000284c       ??_C@_0BC@CMLLALPE@Connection?5Error?6@ 004bc84c     S06_MyUpperCom.obj
 0002:00002860       ??_C@_0BA@LEKMAIBP@Finish?5Connect?6@ 004bc860     S06_MyUpperCom.obj
 0002:00002870       ??_C@_0BO@IMMOCPBH@tZoneNumber?$DN?$CFd?6IP?$DN?$CFs?6Port?$DN?$CFd?6@ 004bc870     S06_MyUpperCom.obj
 0002:00002890       ??_C@_02DPKJAMEF@?$CFd@    004bc890     S06_MyUpperCom.obj
 0002:00002894       ??_C@_0BC@NCFAOFCI@Fail?5init?5connect@ 004bc894     S06_MyUpperCom.obj
 0002:000028a8       ??_C@_0N@PPINIJDC@Fail?5Connect@ 004bc8a8     S06_MyUpperCom.obj
 0002:000028b8       ??_C@_09HAEEBHBN@Fail?5Send@ 004bc8b8     S06_MyUpperCom.obj
 0002:000028c4       ??_C@_09DNAINNCN@Fail?5Recv@ 004bc8c4     S06_MyUpperCom.obj
 0002:000028d0       ??_C@_0BC@DDCKLDEK@connect?5failed?5?$CFd@ 004bc8d0     S06_MyUpperCom.obj
 0002:000028e4       ??_C@_0BI@BKFJAMNA@MyCenterCom?3?3W_SHUTDOWN@ 004bc8e4     S06_MyUpperCom.obj
 0002:00002900       ??_C@_0GF@GAKNAHGP@C?3?2Users?2Administrator?2Desktop?2@ 004bc900     S06_MyUpperCom.obj
 0002:00002968       ??_C@_0BM@DFPGPPAF@MyCenterCom?3?3W_SET_GM_ORDER@ 004bc968     S06_MyUpperCom.obj
 0002:00002984       ??_C@_0CA@DHEOIFDN@n_read?5WM_NETWORK_MESSAGE_3?5?$CFd?5@ 004bc984     S06_MyUpperCom.obj
 0002:000029a8       ??_C@_0HM@HJEHFJKF@?$DMUSE_INVENTORY_ITEM?$DO?$CIuID?3?$CFs?$CJ?0?$CIa@ 004bc9a8     S06_MyUpperCom.obj
 0002:00002a28       ??_C@_0GI@HGEDFIIP@?$DMIMPROVE_ITEM?$DO?$CIuID?3?$CFs?$CJ?0?$CIaName?3?$CF@ 004bca28     S06_MyUpperCom.obj
 0002:00002a90       ??_C@_0IA@IMCNNKAA@?$DMADD_ITEM?$DO?$CIuID?3?$CFs?$CJ?0?$CIaName?3?$CFs?$CJ?0?$CI@ 004bca90     S06_MyUpperCom.obj
 0002:00002b10       ??_C@_0EK@FKOJDDJN@?$DMEXCHANGE_ITEM?$DO?$CIuID?3?$CFs?$CJ?0?$CIaName?3@ 004bcb10     S06_MyUpperCom.obj
 0002:00002b60       ??_C@_0HM@GDAHPLCC@?$DMMAKE_ITEM?$DO?$CIuID?3?$CFs?$CJ?0?$CIaName?3?$CFs?$CJ?0@ 004bcb60     S06_MyUpperCom.obj
 0002:00002be0       ??_C@_0HE@OLGJJBGL@?$DMBUY_SHOP_ITEM?$DO?$FLBuyer?$FN?$CIuID?3?$CFs?$CJ?0@ 004bcbe0     S06_MyUpperCom.obj
 0002:00002c58       ??_C@_0EG@FGFDIHIJ@?$DMCOSTUME_ITEM?$DO?$CIuID?3?$CFs?$CJ?0?$CIaName?3?$CF@ 004bcc58     S06_MyUpperCom.obj
 0002:00002ca0       ??_C@_0FO@FABNEOGD@?$DMCRAFT_ITEM?$DO?$CIuID?3?$CFs?$CJ?0?$CIaName?3?$CFs?$CJ@ 004bcca0     S06_MyUpperCom.obj
 0002:00002d00       ??_C@_0EL@CKIAIHAG@?$DMDAILY_ITEM?$DO?$CIuID?3?$CFs?$CJ?0?$CIaName?3?$CFs?$CJ@ 004bcd00     S06_MyUpperCom.obj
 0002:00002d50       ??_C@_0IC@CPNPGBGL@?$DMPETCOMBINE_ITEM?$DO?$CIuID?3?$CFs?$CJ?0?$CIaNam@ 004bcd50     S06_MyUpperCom.obj
 0002:00002dd8       ??_C@_0EP@BBMILLAE@?$DMOPEN_SOKET_ITEM?$DO?$CIuID?3?$CFs?$CJ?0?$CIaNam@ 004bcdd8     S06_MyUpperCom.obj
 0002:00002e28       ??_C@_0FA@OHBMEIHM@?$DMCLOSE_SOKET_ITEM?$DO?$CIuID?3?$CFs?$CJ?0?$CIaNa@ 004bce28     S06_MyUpperCom.obj
 0002:00002e78       ??_C@_0EC@MDLCCGHC@?$DMWEEKLY?5RANK?5REWARD?5RECEIVED?$DO?$CIu@ 004bce78     S06_MyUpperCom.obj
 0002:00002ebc       ??_C@_0DJ@NGCFNFPN@?$DMCAPSUL?5RECEIVED?$DO?$CIuID?3?$CFs?$CJ?0?$CIaNam@ 004bcebc     S06_MyUpperCom.obj
 0002:00002ef8       ??_C@_0DF@BFGFCKGB@?$DMFISH?5CAUGHT?$DO?$CIuID?3?$CFs?$CJ?0?$CIaName?3?$CFs@ 004bcef8     S06_MyUpperCom.obj
 0002:00002f30       ??_C@_0EO@CMDOACFG@?$DMQUIT?$DO?$FLUSER?$FN?$CIuID?3?$CFs?$CJ?0?$CIaName?3?$CFs?$CJ@ 004bcf30     S06_MyUpperCom.obj
 0002:00002f80       ??_C@_0FC@LBEBINNM@?$DMWON?$DO?$FL?$CIuID?3?$CFs?$CJ?0?$CIaName?3?$CFs?$CJ?$FN?$FLKILL@ 004bcf80     S06_MyUpperCom.obj
 0002:00002fd8       ??_C@_0BAF@FKKCPKDH@?$DMTRADE_ITEM?$DO?$CI?$CIuID?3?$CFs?$CJ?0?$CIaName?3?$CFs@ 004bcfd8     S06_MyUpperCom.obj
 0002:000030e0       ??_C@_0GD@KBEHNDAD@?$DMTRADE_MONEY?$DO?$CI?$CIuID?3?$CFs?$CJ?0?$CIaName?3?$CF@ 004bd0e0     S06_MyUpperCom.obj
 0002:00003144       ??_C@_0DI@JICDIPPM@?$DMMAKE_SKILL?$DO?$CIuID?3?$CFs?$CJ?0?$CIaName?3?$CFs?$CJ@ 004bd144     S06_MyUpperCom.obj
 0002:00003180       ??_C@_0GN@NKOGCOOC@?$DM?$FLPLUS?5STATE?$FN?$DOName?$CI?$CFs?$CJ?0?5tSort?$CI?$CF@ 004bd180     S06_MyUpperCom.obj
 0002:000031f0       ??_C@_0GD@IHFLPFDM@?$DM?$FLCash_Item?$FN?$DO?$FLaName?$FN?$CI?$CFs?$CJ?0?5ItemI@ 004bd1f0     S06_MyUpperCom.obj
 0002:00003258       ??_C@_0EO@HNOCOBLG@?$DMGAIN_ITEM?$DO?$CIuID?3?$CFs?$CJ?0?$CIaName?3?$CFs?$CJ?0@ 004bd258     S06_MyUpperCom.obj
 0002:000032a8       ??_C@_0GB@BOKKOLML@?$DMSTROESLOT_ITEM?$DO?$CIuID?3?$CFs?$CJ?0?$CIaName@ 004bd2a8     S06_MyUpperCom.obj
 0002:00003310       ??_C@_0GA@NDLEEFDM@?$DMSAVESLOT_ITEM?$DO?$CIuID?3?$CFs?$CJ?0?$CIaName?3@ 004bd310     S06_MyUpperCom.obj
 0002:00003370       __real@3dcccccd            004bd370     S06_MyUpperCom.obj
 0002:00003374       __real@41200000            004bd374     S06_MyUpperCom.obj
 0002:0000337c       ??_C@_0BJ@IJBIPONB@?4?1CONFIG?1AutoControl?4INI@ 004bd37c     S07_MyGame01.obj
 0002:00003398       ??_C@_0BD@DBLBHBM@SEND_MONSTER_COUNT@ 004bd398     S07_MyGame01.obj
 0002:000033ac       ??_C@_0N@JFOLGPDH@AUTO_CONTROL@ 004bd3ac     S07_MyGame01.obj
 0002:000033bc       ??_C@_0N@GMAFHAEB@MyGame?3?3Init@ 004bd3bc     S07_MyGame01.obj
 0002:000033cc       ??_C@_0BM@KDEAFIEI@?$CB?$FL?$CFs?$FN?5?3?5ZoneMainInfo?5error?6@ 004bd3cc     S07_MyGame01.obj
 0002:000033e8       ??_C@_0BL@GHEEJNLL@?$CB?$FL?$CFs?$FN?5?3?5ZoneNPCInfo?5error?6@ 004bd3e8     S07_MyGame01.obj
 0002:00003404       ??_C@_0BD@IBLCLANG@DATA?1005_00001?4IMG@ 004bd404     S07_MyGame01.obj
 0002:00003418       ??_C@_0BF@PFKHHPJI@?$CB?$FL?$CFs?$FN?5?3?5Level?5ERROR?6@ 004bd418     S07_MyGame01.obj
 0002:00003430       ??_C@_0BD@HCGMCHI@DATA?1005_00002?4IMG@ 004bd430     S07_MyGame01.obj
 0002:00003444       ??_C@_0BJ@EGAIFEDA@?$CB?$FL?$CFs?$FN?5?3?5Item?5error_new?5?6@ 004bd444     S07_MyGame01.obj
 0002:00003460       ??_C@_0BD@MMHKBBNN@DATA?1005_00003?4IMG@ 004bd460     S07_MyGame01.obj
 0002:00003474       ??_C@_0BF@NPFFDONO@?$CB?$FL?$CFs?$FN?5?3?5Skill?5error?6@ 004bd474     S07_MyGame01.obj
 0002:0000348c       ??_C@_0BD@NBHPCBGF@DATA?1005_00004?4IMG@ 004bd48c     S07_MyGame01.obj
 0002:000034a0       ??_C@_0BH@GCMPIEHC@?$CB?$FL?$CFs?$FN?5?3?5Monster?5error?6@ 004bd4a0     S07_MyGame01.obj
 0002:000034b8       ??_C@_0BD@BKCDPCMA@DATA?1005_00005?4IMG@ 004bd4b8     S07_MyGame01.obj
 0002:000034cc       ??_C@_0BD@PKMFNOLD@?$CB?$FL?$CFs?$FN?5?3?5NPC?5error?6@ 004bd4cc     S07_MyGame01.obj
 0002:000034e0       ??_C@_0BD@JMLHIAGO@DATA?1005_00006?4IMG@ 004bd4e0     S07_MyGame01.obj
 0002:000034f4       ??_C@_0BF@JBIHBNLM@?$CB?$FL?$CFs?$FN?5?3?5Quest?5error?6@ 004bd4f4     S07_MyGame01.obj
 0002:0000350c       ??_C@_0BD@MLCEHFGD@?$CB?$FL?$CFs?$FN?5?3?5Pat?5error?6@ 004bd50c     S07_MyGame01.obj
 0002:00003520       ??_C@_0BD@OMJJGIMH@DATA?1005_00010?4IMG@ 004bd520     S07_MyGame01.obj
 0002:00003534       ??_C@_0BG@OIKAGFPD@?$CB?$FL?$CFs?$FN?5?3?5Socket?5error?6@ 004bd534     S07_MyGame01.obj
 0002:0000354c       ??_C@_0BF@CKOFIOKA@?$CB?$FL?$CFs?$FN?5?3?5World?5error?6@ 004bd54c     S07_MyGame01.obj
 0002:00003564       ??_C@_0CF@NLCGALID@?$CBINIT?5ERROR?5?$FLlocaltime?5return?5N@ 004bd564     S07_MyGame01.obj
 0002:0000358c       ??_C@_0N@KBGNDGFJ@Map?5Running?6@ 004bd58c     S07_MyGame01.obj
 0002:0000359c       ??_C@_0BH@MIBGABLB@A01_AUTOCHECK?2?$CF05d?4IMG@ 004bd59c     S07_MyGame01.obj
 0002:000035b4       ??_C@_01NOFIACDB@w@        004bd5b4     S07_MyGame01.obj
 0002:000035b8       ??_C@_0O@NGOLLDAB@MyGame?3?3Logic@ 004bd5b8     S07_MyGame01.obj
 0002:000035c8       ??_C@_0GD@KDNCOPDG@C?3?2Users?2Administrator?2Desktop?2@ 004bd5c8     S07_MyGame01.obj
 0002:0000362c       ??_C@_0CJ@BFILOKJI@Sailor?5Zone?5MAP?5?3?5?$CF03d?0?5Online?5@ 004bd62c     S07_MyGame01.obj
 0002:00003658       ??_C@_0CF@JENLLKM@?$CBmHeartCheckTime?5?3?5?$CFd?5?5?5aNAME?5?3@ 004bd658     S07_MyGame01.obj
 0002:00003680       ??_C@_07IGALBEDJ@GUARD3?6@ 004bd680     S07_MyGame01.obj
 0002:00003688       ??_C@_0BO@CPFEKGPA@MyGame?3?3Process_Zone_049_TYPE@ 004bd688     S07_MyGame01.obj
 0002:000036a8       ??_C@_0BO@NABBOIAJ@MyGame?3?3Process_Zone_051_TYPE@ 004bd6a8     S07_MyGame01.obj
 0002:000036c8       ??_C@_0BO@EHIOPJCA@MyGame?3?3Process_Zone_053_TYPE@ 004bd6c8     S07_MyGame01.obj
 0002:000036e8       ??_C@_0BO@CFJBKPOJ@MyGame?3?3Process_Zone_039_TYPE@ 004bd6e8     S07_MyGame01.obj
 0002:00003708       ??_C@_0BO@HBAANPCE@MyGame?3?3Process_Zone_175_TYPE@ 004bd708     S07_MyGame01.obj
 0002:00003728       ??_C@_0BJ@HPGJELNG@MyGame?3?3Process_Zone_194@ 004bd728     S07_MyGame01.obj
 0002:00003744       ??_C@_0BO@BDLIPCFG@MyGame?3?3Process_Zone_267_TYPE@ 004bd744     S07_MyGame01.obj
 0002:00003764       ??_C@_0BE@GBAHKJPM@MyGame?3?3LifeorDeath@ 004bd764     S07_MyGame01.obj
 0002:00003780       __xmm@41f00000000000000000000000000000 004bd780     S07_MyGame01.obj
 0002:00003794       ??_C@_0BI@HJBHAPG@MyGame?3?3ProcessAttack01@ 004bd794     S07_MyGame02.obj
 0002:000037b0       ??_C@_0GD@CFEGJNJI@C?3?2Users?2Administrator?2Desktop?2@ 004bd7b0     S07_MyGame02.obj
 0002:00003814       ??_C@_0BI@CMLMCDDF@MyGame?3?3ProcessAttack02@ 004bd814     S07_MyGame02.obj
 0002:0000382c       ??_C@_0BI@DFKHBCHE@MyGame?3?3ProcessAttack03@ 004bd82c     S07_MyGame02.obj
 0002:00003844       ??_C@_0CI@OMMJMFED@You?5cannot?5use?5this?5skill?5in?5Io@ 004bd844     S07_MyGame02.obj
 0002:0000386c       ??_C@_0BI@HKOGIELD@MyGame?3?3ProcessAttack04@ 004bd86c     S07_MyGame02.obj
 0002:00003884       ??_C@_0BI@GDPNLFPC@MyGame?3?3ProcessAttack05@ 004bd884     S07_MyGame02.obj
 0002:0000389c       ??_C@_0BI@EINAOGDB@MyGame?3?3ProcessAttack06@ 004bd89c     S07_MyGame02.obj
 0002:000038b4       __real@3d4ccccd            004bd8b4     S07_MyGame02.obj
 0002:000038b8       __real@3e4ccccd            004bd8b8     S07_MyGame02.obj
 0002:000038bc       __real@3e800000            004bd8bc     S07_MyGame02.obj
 0002:000038c0       __real@3e99999a            004bd8c0     S07_MyGame02.obj
 0002:000038c4       __real@3f800000            004bd8c4     S07_MyGame02.obj
 0002:000038c8       __real@40400000            004bd8c8     S07_MyGame02.obj
 0002:000038cc       __real@406ccccd            004bd8cc     S07_MyGame02.obj
 0002:000038d0       __real@41c80000            004bd8d0     S07_MyGame02.obj
 0002:000038d4       __real@42200000            004bd8d4     S07_MyGame02.obj
 0002:000038d8       __real@428c0000            004bd8d8     S07_MyGame02.obj
 0002:000038e0       ??_C@_01GFHCPBMG@C@        004bd8e0     S07_MyGame03.obj
 0002:000038e4       ??_C@_01MCMALHOG@a@        004bd8e4     S07_MyGame03.obj
 0002:000038e8       ??_C@_01OJONOECF@b@        004bd8e8     S07_MyGame03.obj
 0002:000038ec       ??_C@_01PAPGNFGE@c@        004bd8ec     S07_MyGame03.obj
 0002:000038f0       ??_C@_01LPLHEDKD@d@        004bd8f0     S07_MyGame03.obj
 0002:000038f4       ??_C@_01KGKMHCOC@e@        004bd8f4     S07_MyGame03.obj
 0002:000038f8       ??_C@_01INIBCBCB@f@        004bd8f8     S07_MyGame03.obj
 0002:000038fc       ??_C@_01JEJKBAGA@g@        004bd8fc     S07_MyGame03.obj
 0002:00003900       ??_C@_01BDACAMKP@h@        004bd900     S07_MyGame03.obj
 0002:00003904       ??_C@_01KBJDNOO@i@         004bd904     S07_MyGame03.obj
 0002:00003908       ??_C@_01CBDEGOCN@j@        004bd908     S07_MyGame03.obj
 0002:0000390c       ??_C@_01DICPFPGM@k@        004bd90c     S07_MyGame03.obj
 0002:00003910       ??_C@_01HHGOMJKL@l@        004bd910     S07_MyGame03.obj
 0002:00003914       ??_C@_01GOHFPIOK@m@        004bd914     S07_MyGame03.obj
 0002:00003918       ??_C@_01EFFIKLCJ@n@        004bd918     S07_MyGame03.obj
 0002:0000391c       ??_C@_01FMEDJKGI@o@        004bd91c     S07_MyGame03.obj
 0002:00003920       ??_C@_01JBBJJEPG@p@        004bd920     S07_MyGame03.obj
 0002:00003924       ??_C@_01KDCPPGHE@r@        004bd924     S07_MyGame03.obj
 0002:00003928       ??_C@_01LKDEMHDF@s@        004bd928     S07_MyGame03.obj
 0002:0000392c       ??_C@_01PFHFFBPC@t@        004bd92c     S07_MyGame03.obj
 0002:00003930       ??_C@_01OMGOGALD@u@        004bd930     S07_MyGame03.obj
 0002:00003934       ??_C@_01EANLCPLP@y@        004bd934     S07_MyGame03.obj
 0002:00003938       ??_C@_01FJMABOPO@x@        004bd938     S07_MyGame03.obj
 0002:0000393c       ??_C@_01GLPGHMHM@z@        004bd93c     S07_MyGame03.obj
 0002:00003940       ??_C@_01IIACKFLH@q@        004bd940     S07_MyGame03.obj
 0002:00003944       ??_C@_01MHEDDDHA@v@        004bd944     S07_MyGame03.obj
 0002:00003948       ??_C@_01FHEEJDEE@A@        004bd948     S07_MyGame03.obj
 0002:0000394c       ??_C@_01HMGJMAIH@B@        004bd94c     S07_MyGame03.obj
 0002:00003950       ??_C@_01CKDDGHAB@D@        004bd950     S07_MyGame03.obj
 0002:00003954       ??_C@_01DDCIFGEA@E@        004bd954     S07_MyGame03.obj
 0002:00003958       ??_C@_01BIAFAFID@F@        004bd958     S07_MyGame03.obj
 0002:0000395c       ??_C@_01BBODEMC@G@         004bd95c     S07_MyGame03.obj
 0002:00003960       ??_C@_01IGIGCIAN@H@        004bd960     S07_MyGame03.obj
 0002:00003964       ??_C@_01JPJNBJEM@I@        004bd964     S07_MyGame03.obj
 0002:00003968       ??_C@_01LELAEKIP@J@        004bd968     S07_MyGame03.obj
 0002:0000396c       ??_C@_01KNKLHLMO@K@        004bd96c     S07_MyGame03.obj
 0002:00003970       ??_C@_01OCOKONAJ@L@        004bd970     S07_MyGame03.obj
 0002:00003974       ??_C@_01PLPBNMEI@M@        004bd974     S07_MyGame03.obj
 0002:00003978       ??_C@_01NANMIPIL@N@        004bd978     S07_MyGame03.obj
 0002:0000397c       ??_C@_01MJMHLOMK@O@        004bd97c     S07_MyGame03.obj
 0002:00003980       ??_C@_01EJNLAFE@P@         004bd980     S07_MyGame03.obj
 0002:00003984       ??_C@_01DGKLNCNG@R@        004bd984     S07_MyGame03.obj
 0002:00003988       ??_C@_01CPLAODJH@S@        004bd988     S07_MyGame03.obj
 0002:0000398c       ??_C@_01GAPBHFFA@T@        004bd98c     S07_MyGame03.obj
 0002:00003990       ??_C@_01HJOKEEBB@U@        004bd990     S07_MyGame03.obj
 0002:00003994       ??_C@_01ELNMCGJD@W@        004bd994     S07_MyGame03.obj
 0002:00003998       ??_C@_01NFFPALBN@Y@        004bd998     S07_MyGame03.obj
 0002:0000399c       ??_C@_01MMEEDKFM@X@        004bd99c     S07_MyGame03.obj
 0002:000039a0       ??_C@_01POHCFINO@Z@        004bd9a0     S07_MyGame03.obj
 0002:000039a4       ??_C@_01BNIGIBBF@Q@        004bd9a4     S07_MyGame03.obj
 0002:000039a8       ??_C@_01FCMHBHNC@V@        004bd9a8     S07_MyGame03.obj
 0002:000039ac       ??_C@_01HIHLOKLC@1@        004bd9ac     S07_MyGame03.obj
 0002:000039b0       ??_C@_01FDFGLJHB@2@        004bd9b0     S07_MyGame03.obj
 0002:000039b4       ??_C@_01EKENIIDA@3@        004bd9b4     S07_MyGame03.obj
 0002:000039b8       ??_C@_01FAMBOPH@4@         004bd9b8     S07_MyGame03.obj
 0002:000039bc       ??_C@_01BMBHCPLG@5@        004bd9bc     S07_MyGame03.obj
 0002:000039c0       ??_C@_01DHDKHMHF@6@        004bd9c0     S07_MyGame03.obj
 0002:000039c4       ??_C@_01COCBENDE@7@        004bd9c4     S07_MyGame03.obj
 0002:000039c8       ??_C@_01KJLJFBPL@8@        004bd9c8     S07_MyGame03.obj
 0002:000039cc       ??_C@_01LAKCGALK@9@        004bd9cc     S07_MyGame03.obj
 0002:000039d0       ??_C@_01GBGANLPD@0@        004bd9d0     S07_MyGame03.obj
 0002:000039d4       ??_C@_0BI@PMHDGNKH@Not?5allowed?5character?3?5@ 004bd9d4     S07_MyGame03.obj
 0002:000039ec       ??_C@_0BA@FBGOAHIB@?$CF4?44d?$CF2?42d?$CF2?42d@ 004bd9ec     S07_MyGame03.obj
 0002:000039fc       ??_C@_0N@IMJGFJID@?$CF4?44d?$CF2?42d06@ 004bd9fc     S07_MyGame03.obj
 0002:00003a0c       ??_C@_0M@IIMHPEAC@dominated?5?5@ 004bda0c     S07_MyGame03.obj
 0002:00003a18       ??_C@_0N@EKEMAIL@just?5killed?5@ 004bda18     S07_MyGame03.obj
 0002:00003a28       ??_C@_0L@CLKLKLL@destroyed?5@ 004bda28     S07_MyGame03.obj
 0002:00003a34       ??_C@_0BD@DGMHBAIL@free?5cp?5farm?5from?5@ 004bda34     S07_MyGame03.obj
 0002:00003a48       ??_C@_08PAEOOFBM@burried?5@ 004bda48     S07_MyGame03.obj
 0002:00003a54       ??_C@_0BD@PMEIECMG@?$FL?$CFs?$FN?5?$CFs?5?$FL?$CFs?$FN?9?$FL?$CFs?$FN?5@ 004bda54     S07_MyGame03.obj
 0002:00003a68       ??_C@_0BK@JPNIAAPA@MyUtil?3?3CheckInvenForItem@ 004bda68     S07_MyGame03.obj
 0002:00003a88       ??_C@_0GD@OOBKEODN@C?3?2Users?2Administrator?2Desktop?2@ 004bda88     S07_MyGame03.obj
 0002:00003aec       __real@3db851ec            004bdaec     S07_MyGame03.obj
 0002:00003af0       __real@3de147ae            004bdaf0     S07_MyGame03.obj
 0002:00003af4       __real@3e051eb8            004bdaf4     S07_MyGame03.obj
 0002:00003af8       __real@3e851eb8            004bdaf8     S07_MyGame03.obj
 0002:00003afc       __real@3e947ae1            004bdafc     S07_MyGame03.obj
 0002:00003b00       __real@3ea3d70a            004bdb00     S07_MyGame03.obj
 0002:00003b04       __real@3f2b851f            004bdb04     S07_MyGame03.obj
 0002:00003b08       __real@3f3851ec            004bdb08     S07_MyGame03.obj
 0002:00003b0c       __real@3f68f5c3            004bdb0c     S07_MyGame03.obj
 0002:00003b10       __real@3f733333            004bdb10     S07_MyGame03.obj
 0002:00003b14       __real@3fe8f5c3            004bdb14     S07_MyGame03.obj
 0002:00003b18       __real@3ff0000000000000    004bdb18     S07_MyGame03.obj
 0002:00003b20       __real@40000000            004bdb20     S07_MyGame03.obj
 0002:00003b28       __real@4000000000000000    004bdb28     S07_MyGame03.obj
 0002:00003b30       __real@400eb852            004bdb30     S07_MyGame03.obj
 0002:00003b34       __real@40490fdb            004bdb34     S07_MyGame03.obj
 0002:00003b38       __real@40b75c29            004bdb38     S07_MyGame03.obj
 0002:00003b3c       __real@40c00000            004bdb3c     S07_MyGame03.obj
 0002:00003b40       __real@40c90fdb            004bdb40     S07_MyGame03.obj
 0002:00003b44       __real@40cb851f            004bdb44     S07_MyGame03.obj
 0002:00003b48       __real@41000000            004bdb48     S07_MyGame03.obj
 0002:00003b4c       __real@4155c28f            004bdb4c     S07_MyGame03.obj
 0002:00003b50       __real@416570a4            004bdb50     S07_MyGame03.obj
 0002:00003b54       __real@43340000            004bdb54     S07_MyGame03.obj
 0002:00003b58       __real@43b40000            004bdb58     S07_MyGame03.obj
 0002:00003b5c       __real@4eee6b28            004bdb5c     S07_MyGame03.obj
 0002:00003b60       __xmm@0000001e0000001f0000001d0000001f 004bdb60     S07_MyGame03.obj
 0002:00003b70       __xmm@0000001f0000001e0000001f0000001e 004bdb70     S07_MyGame03.obj
 0002:00003b80       __xmm@0000001f0000001f0000001e0000001f 004bdb80     S07_MyGame03.obj
 0002:00003b94       ??_C@_0BG@DGBGCCGC@AVATAR_OBJECT?3?3Update@ 004bdb94     S07_MyGame04.obj
 0002:00003bb0       ??_C@_0GD@PDBPHOIF@C?3?2Users?2Administrator?2Desktop?2@ 004bdbb0     S07_MyGame04.obj
 0002:00003c14       __real@bc83126f            004bdc14     S07_MyGame04.obj
 0002:00003c1c       ??_C@_0BF@JLFGPJMN@MONSTER_OBJECT?3?3A006@ 004bdc1c     S07_MyGame05.obj
 0002:00003c38       ??_C@_0GD@DIEDKNCA@C?3?2Users?2Administrator?2Desktop?2@ 004bdc38     S07_MyGame05.obj
 0002:00003c9c       ??_C@_0BO@FCOCHFGB@?$CFs?5gave?5?8?$CFs?8?5to?5?$CFs?5as?5tribute@ 004bdc9c     S07_MyGame05.obj
 0002:00003cbc       ??_C@_0CD@ELIFEHIF@?5Killed?5Blue?5Deity?5in?5Ghost?5Val@ 004bdcbc     S07_MyGame05.obj
 0002:00003ce0       __real@41f00000            004bdce0     S07_MyGame05.obj
 0002:00003ce4       __real@451c4000            004bdce4     S07_MyGame05.obj
 0002:00003cf0       __xmm@00000007000000050000001200000011 004bdcf0     S07_MyGame05.obj
 0002:00003d00       __xmm@00000009000000080000000700000005 004bdd00     S07_MyGame05.obj
 0002:00003d10       __xmm@0000000b0000000a0000000900000008 004bdd10     S07_MyGame05.obj
 0002:00003d20       __xmm@000000100000000c0000000b0000000a 004bdd20     S07_MyGame05.obj
 0002:00003d30       __xmm@0000001500000014000000130000000c 004bdd30     S07_MyGame05.obj
 0002:00003d40       __xmm@7fffffff7fffffff7fffffff7fffffff 004bdd40     S07_MyGame05.obj
 0002:00003d54       ??_C@_0N@DBEBEMBL@DATA?2002?4BIN@ 004bdd54     S07_MyGame06.obj
 0002:00003d64       __real@43e10000            004bdd64     S07_MyGame06.obj
 0002:00003d6c       __real@3fa00000            004bdd6c     AtakPower.obj
 0002:00003d70       __real@3ff0cccccccccccd    004bdd70     AtakPower.obj
 0002:00003d78       __real@3ff11eb851eb851f    004bdd78     AtakPower.obj
 0002:00003d80       __real@3ff170a3d70a3d71    004bdd80     AtakPower.obj
 0002:00003d88       __real@3ff1c28f5c28f5c3    004bdd88     AtakPower.obj
 0002:00003d90       __real@3ff23d70a3d70a3d    004bdd90     AtakPower.obj
 0002:00003d98       __real@3ff2b851eb851eb8    004bdd98     AtakPower.obj
 0002:00003da0       __real@3ff3333333333333    004bdda0     AtakPower.obj
 0002:00003da8       __real@3ff4000000000000    004bdda8     AtakPower.obj
 0002:00003db0       __real@3ff4cccccccccccd    004bddb0     AtakPower.obj
 0002:00003db8       __real@3ff6666666666666    004bddb8     AtakPower.obj
 0002:00003dc0       __real@4020a3d7            004bddc0     AtakPower.obj
 0002:00003dc4       __real@4029999a            004bddc4     AtakPower.obj
 0002:00003dc8       __real@40333333            004bddc8     AtakPower.obj
 0002:00003dcc       __real@413b3333            004bddcc     AtakPower.obj
 0002:00003dd0       __real@41bb3333            004bddd0     AtakPower.obj
 0002:00003dd4       __real@bf2b851f            004bddd4     AtakPower.obj
 0002:00003dd8       __real@bfaccccd            004bddd8     AtakPower.obj
 0002:00003ddc       __real@bfb70a3d            004bdddc     AtakPower.obj
 0002:00003de0       __real@bfb999999999999a    004bdde0     AtakPower.obj
 0002:00003de8       __real@bfc147ae            004bdde8     AtakPower.obj
 0002:00003df0       ??_C@_0BP@KKFDJNBK@LEVELSYSTEM?3?3CheckValidElement@ 004bddf0     S08_MyGameSystem.obj
 0002:00003e10       ??_C@_0L@FDCKIEKM@?$CB?5?$FL?$CFs?$FN?5?$CFd?6@ 004bde10     S08_MyGameSystem.obj
 0002:00003e1c       ??_C@_0BC@NHJBKNMJ@LEVELSYSTEM?3?3Init@ 004bde1c     S08_MyGameSystem.obj
 0002:00003e30       ??_C@_09HJMCHFOM@?$CB?5?$FL?$CFs?$FN?5?$CFd@ 004bde30     S08_MyGameSystem.obj
 0002:00003e3c       ??_C@_0BO@OBJAOJDJ@ITEMSYSTEM?3?3CheckValidElement@ 004bde3c     S08_MyGameSystem.obj
 0002:00003e5c       ??_C@_0L@DMEBEIIE@?$CB?5?$FL?$CFs?$FN?5?$CFd?5@ 004bde5c     S08_MyGameSystem.obj
 0002:00003e68       ??_C@_0CC@PDPLFIDO@?$CBiIndex?5?$DN?5?$CFd?5?0?5tArrayIndex?5?$DN?5?$CFd@ 004bde68     S08_MyGameSystem.obj
 0002:00003e8c       ??_C@_0BB@FAKGDGBH@ITEMSYSTEM?3?3Init@ 004bde8c     S08_MyGameSystem.obj
 0002:00003ea0       ??_C@_0BE@BMOHJPPE@SHAREMEM_ITEMSYSTEM@ 004bdea0     S08_MyGameSystem.obj
 0002:00003eb4       ??_C@_0BC@FANGODOE@SKILLSYSTEM?3?3Init@ 004bdeb4     S08_MyGameSystem.obj
 0002:00003ec8       ??_C@_0BH@MAACHOCG@SHAREMEM_MONSTERSYSTEM@ 004bdec8     S08_MyGameSystem.obj
 0002:00003ee0       ??_C@_0BD@GOOMEPCM@SHAREMEM_NPCSYSTEM@ 004bdee0     S08_MyGameSystem.obj
 0002:00003ef4       ??_C@_0BF@LDLPFJA@SHAREMEM_QUESTSYSTEM@ 004bdef4     S08_MyGameSystem.obj
 0002:00003f0c       ??_C@_0BG@PGPLMCB@SHAREMEM_SOCKETSYSTEM@ 004bdf0c     S08_MyGameSystem.obj
 0002:00003f28       __real@4039000000000000    004bdf28     S08_MyGameSystem.obj
 0002:00003f30       __real@4059400000000000    004bdf30     S08_MyGameSystem.obj
 0002:00003f38       __real@405f400000000000    004bdf38     S08_MyGameSystem.obj
 0002:00003f40       __real@4062c00000000000    004bdf40     S08_MyGameSystem.obj
 0002:00003f48       __real@4065e00000000000    004bdf48     S08_MyGameSystem.obj
 0002:00003f50       __real@408f400000000000    004bdf50     S08_MyGameSystem.obj
 0002:00003f58       __real@409c200000000000    004bdf58     S08_MyGameSystem.obj
 0002:00003f60       __real@40b7700000000000    004bdf60     S08_MyGameSystem.obj
 0002:00003f68       __real@40b89c0000000000    004bdf68     S08_MyGameSystem.obj
 0002:00003f70       __real@40b9000000000000    004bdf70     S08_MyGameSystem.obj
 0002:00003f78       __real@40b9640000000000    004bdf78     S08_MyGameSystem.obj
 0002:00003f80       __real@40b9c80000000000    004bdf80     S08_MyGameSystem.obj
 0002:00003f88       __real@40ba900000000000    004bdf88     S08_MyGameSystem.obj
 0002:00003f90       __real@40bb580000000000    004bdf90     S08_MyGameSystem.obj
 0002:00003f98       __real@42960000            004bdf98     S08_MyGameSystem.obj
 0002:00003f9c       __real@45fa0000            004bdf9c     S08_MyGameSystem.obj
 0002:00003fa0       __xmm@0000000a000000090000000b00000007 004bdfa0     S08_MyGameSystem.obj
 0002:00003fb0       __xmm@0000000b0000000a0000000900000007 004bdfb0     S08_MyGameSystem.obj
 0002:00003fc4       ??_C@_0BA@ODMGEDPN@DATA?2MAP?2Z?$CFs?4WM@ 004bdfc4     S09_MyWorld.obj
 0002:00003fd8       ??_C@_0CK@GDLJLGOF@DATA?1Shuaguai?1Z?$CF03d_SUMMONMONST@ 004bdfd8     S10_MySummonSystem.obj
 0002:00004004       ??_C@_0CO@FEHILCBO@DATA?1Shuaguai?1Z?$CF03d_SUMMONBOSSM@ 004be004     S10_MySummonSystem.obj
 0002:00004034       ??_C@_0CJ@FJAJLDPP@DATA?1Shuaguai?1Z104_SUMMONMONSTE@ 004be034     S10_MySummonSystem.obj
 0002:00004060       ??_C@_0CJ@BAFEFJKN@DATA?1Shuaguai?1Z126_SUMMONMONSTE@ 004be060     S10_MySummonSystem.obj
 0002:0000408c       ??_C@_0CM@DAOICFCG@DATA?1Shuaguai?1Z?$CF03d_SUMMONMONST@ 004be08c     S10_MySummonSystem.obj
 0002:000040b8       ??_C@_0CM@NLNPJOCF@DATA?1Shuaguai?1Z?$CF03d_SUMMONMONST@ 004be0b8     S10_MySummonSystem.obj
 0002:000040e4       ??_C@_0CM@DEBNPFBL@DATA?1Shuaguai?1Z?$CF03d_SUMMONMONST@ 004be0e4     S10_MySummonSystem.obj
 0002:00004110       ??_C@_0CM@NGMBOOGC@DATA?1Shuaguai?1Z?$CF03d_SUMMONMONST@ 004be110     S10_MySummonSystem.obj
 0002:0000413c       ??_C@_0CM@DJADIFFM@DATA?1Shuaguai?1Z?$CF03d_SUMMONMONST@ 004be13c     S10_MySummonSystem.obj
 0002:00004168       __real@447a0000            004be168     S10_MySummonSystem.obj
 0002:00004170       __xmm@000000004382800044bec00000000000 004be170     S10_MySummonSystem.obj
 0002:00004180       __xmm@40000000c4848000455d600000000000 004be180     S10_MySummonSystem.obj
 0002:00004190       __xmm@40a00000c45cc000c555200041100000 004be190     S10_MySummonSystem.obj
 0002:000041a0       __xmm@4140000042de000044e8e00041200000 004be1a0     S10_MySummonSystem.obj
 0002:000041b0       __xmm@415000004238000044b9c00041100000 004be1b0     S10_MySummonSystem.obj
 0002:000041c0       __xmm@4190000044ef8000c1200000c28c0000 004be1c0     S10_MySummonSystem.obj
 0002:000041d0       __xmm@41f8000045502000c592c80041e80000 004be1d0     S10_MySummonSystem.obj
 0002:000041e0       __xmm@42200000446b0000c1500000c2300000 004be1e0     S10_MySummonSystem.obj
 0002:000041f0       __xmm@4296000044c08000c1800000bf800000 004be1f0     S10_MySummonSystem.obj
 0002:00004200       __xmm@42c0000044740000c150000041800000 004be200     S10_MySummonSystem.obj
 0002:00004210       __xmm@42d2000044c420004150000042040000 004be210     S10_MySummonSystem.obj
 0002:00004220       __xmm@42e6000044ee20004140000041100000 004be220     S10_MySummonSystem.obj
 0002:00004230       __xmm@431b0000439b80004320000043510000 004be230     S10_MySummonSystem.obj
 0002:00004240       __xmm@43200000434e000043c4800043200000 004be240     S10_MySummonSystem.obj
 0002:00004250       __xmm@4320000045186000438f800043200000 004be250     S10_MySummonSystem.obj
 0002:00004260       __xmm@43200000458d98004514400043200000 004be260     S10_MySummonSystem.obj
 0002:00004270       __xmm@43200000c4e120004516e00043200000 004be270     S10_MySummonSystem.obj
 0002:00004280       __xmm@4392800044c6e0003f80000043570000 004be280     S10_MySummonSystem.obj
 0002:00004290       __xmm@43d0000043200000451e500043c30000 004be290     S10_MySummonSystem.obj
 0002:000042a0       __xmm@43de8000432000004396000043ed0000 004be2a0     S10_MySummonSystem.obj
 0002:000042b0       __xmm@44404000c1600000c2d00000443ec000 004be2b0     S10_MySummonSystem.obj
 0002:000042c0       __xmm@4440c000c1100000c3130000443e8000 004be2c0     S10_MySummonSystem.obj
 0002:000042d0       __xmm@444ac000c1600000c218000044490000 004be2d0     S10_MySummonSystem.obj
 0002:000042e0       __xmm@44a8800000000000c389000044a90000 004be2e0     S10_MySummonSystem.obj
 0002:000042f0       __xmm@44abe000c1980000c292000044aa4000 004be2f0     S10_MySummonSystem.obj
 0002:00004300       __xmm@44b0800041500000c274000044ad4000 004be300     S10_MySummonSystem.obj
 0002:00004310       __xmm@44b3000000000000431f000044b26000 004be310     S10_MySummonSystem.obj
 0002:00004320       __xmm@44c3c000c0800000c57fb00044c4e000 004be320     S10_MySummonSystem.obj
 0002:00004330       __xmm@44d78000414000004120000044db0000 004be330     S10_MySummonSystem.obj
 0002:00004340       __xmm@44da8000c1200000c2be000044dc0000 004be340     S10_MySummonSystem.obj
 0002:00004350       __xmm@4515400043200000c4edc00045124000 004be350     S10_MySummonSystem.obj
 0002:00004360       __xmm@451810004380800043200000451df000 004be360     S10_MySummonSystem.obj
 0002:00004370       __xmm@451e100043210000458e80004518a000 004be370     S10_MySummonSystem.obj
 0002:00004380       __xmm@45414000bf800000c4d9c0004547e000 004be380     S10_MySummonSystem.obj
 0002:00004390       __xmm@4551c000c590e00041e00000454ca000 004be390     S10_MySummonSystem.obj
 0002:000043a0       __xmm@4554300040400000c48fa00045565000 004be3a0     S10_MySummonSystem.obj
 0002:000043b0       __xmm@4590380045181000432000004592a000 004be3b0     S10_MySummonSystem.obj
 0002:000043c0       __xmm@c0000000c57f9000c5367000bf800000 004be3c0     S10_MySummonSystem.obj
 0002:000043d0       __xmm@c0400000c58da800c5857800c1300000 004be3d0     S10_MySummonSystem.obj
 0002:000043e0       __xmm@c0800000c4d7a000454a9000c1100000 004be3e0     S10_MySummonSystem.obj
 0002:000043f0       __xmm@c0a00000c579200044d2200000000000 004be3f0     S10_MySummonSystem.obj
 0002:00004400       __xmm@c1100000c1d800004457c000c1100000 004be400     S10_MySummonSystem.obj
 0002:00004410       __xmm@c1100000c320000044b56000c1600000 004be410     S10_MySummonSystem.obj
 0002:00004420       __xmm@c1200000c040000044e98000c1200000 004be420     S10_MySummonSystem.obj
 0002:00004430       __xmm@c130000044630000c1100000c2c40000 004be430     S10_MySummonSystem.obj
 0002:00004440       __xmm@c160000040800000445a0000c1600000 004be440     S10_MySummonSystem.obj
 0002:00004450       __xmm@c16000004270000044644000c1600000 004be450     S10_MySummonSystem.obj
 0002:00004460       __xmm@c198000041c8000044b70000c1980000 004be460     S10_MySummonSystem.obj
 0002:00004470       __xmm@c307000044bd2000c1300000c3620000 004be470     S10_MySummonSystem.obj
 0002:00004480       __xmm@c4648000c559800041300000c44e8000 004be480     S10_MySummonSystem.obj
 0002:00004490       __xmm@c4848000455f000000000000c4918000 004be490     S10_MySummonSystem.obj
 0002:000044a0       __xmm@c4d78000451cf00043200000c4dce000 004be4a0     S10_MySummonSystem.obj
 0002:000044b0       __xmm@c4e4400045465000c0800000c4ed4000 004be4b0     S10_MySummonSystem.obj
 0002:000044c0       __xmm@c53cd000c0400000c5838800c53cc000 004be4c0     S10_MySummonSystem.obj
 0002:000044d0       __xmm@c54f500040e00000c4428000c54ed000 004be4d0     S10_MySummonSystem.obj
 0002:000044e0       __xmm@c577a00044d9e00000000000c57d5000 004be4e0     S10_MySummonSystem.obj
 0002:000044f0       __xmm@c57e2000c5328000c0400000c581d000 004be4f0     S10_MySummonSystem.obj
 0002:00004500       __xmm@c58900003f800000c5917000c588b000 004be500     S10_MySummonSystem.obj
 0002:00004510       __xmm@c58d2000c5839800bf800000c58ff000 004be510     S10_MySummonSystem.obj
 0002:00004520       __xmm@c595e00041f8000045493000c595d800 004be520     S10_MySummonSystem.obj
 0002:00004538       ??_7CSphinx@@6B@           004be538     S11_Sphinx.obj
 0002:00004540       ??_C@_09PFCHIMEP@127?40?40?41@ 004be540     Server_Map.obj
 0002:0000454c       ??_C@_0BH@BBLKJDCD@Sailor?5Zone?5MAP?5?3?5?$CF03d@ 004be54c     Server_Map.obj
 0002:00004564       ??_C@_0BF@KLCDDHLF@ERROR?5READSERVERINFO@ 004be564     Server_Map.obj
 0002:0000457c       ??_C@_0BL@ICJAGLJP@?$FLError?3?3RegisterClassEx?$CI?$CJ?$FN@ 004be57c     Server_Map.obj
 0002:00004598       ??_C@_0BI@KHCICPFE@?$FLError?3?3CreateWindow?$CI?$CJ?$FN@ 004be598     Server_Map.obj
 0002:000045b0       ??_C@_0BP@IDKENBGE@?$CBmSERVER_INFO?4mServerName?3?5?$CFs?6@ 004be5b0     Server_Map.obj
 0002:000045d0       ??_C@_0BP@PFKLKKF@?$CBmSERVER_INFO?4mServerPort?3?5?$CFd?6@ 004be5d0     Server_Map.obj
 0002:000045f0       ??_C@_0CF@JNKFMICG@?$CBmSERVER_INFO?4mServerMaxUserNum@ 004be5f0     Server_Map.obj
 0002:00004618       ??_C@_0CB@HCBEDNHK@?$CBmSERVER_INFO?4mServerNumber?3?5?$CFd@ 004be618     Server_Map.obj
 0002:0000463c       ??_C@_0CA@DAJAPAMO@?$CBmSERVER_INFO?4mWorldNumber?3?5?$CFd?6@ 004be63c     Server_Map.obj
 0002:0000465c       ??_C@_0BD@LMBNGAEI@?$CBWORLD_EXP?3?5?$CF0?40f?6@ 004be65c     Server_Map.obj
 0002:00004670       ??_C@_0BJ@CKMGAANO@?$CBWORLD_ITEM_DROP?3?5?$CF0?40f?6@ 004be670     Server_Map.obj
 0002:0000468c       ??_C@_0BM@CCPKJCCA@?$CBWORLD_ITEM_DROP_FM?3?5?$CF0?40f?6@ 004be68c     Server_Map.obj
 0002:000046a8       ??_C@_0BB@KHJMNAGB@?$CBWORLD_KTAV?3?5?$CFd?6@ 004be6a8     Server_Map.obj
 0002:000046bc       ??_C@_0BF@MIIBMK@?$CBWORLD_BINEKEXP?3?5?$CFd?6@ 004be6bc     Server_Map.obj
 0002:000046d4       ??_C@_0BG@BINPFOHJ@?$CBWORLD_PATEXP?3?5?$CF0?40f?6@ 004be6d4     Server_Map.obj
 0002:000046ec       ??_C@_0BE@BJPHIPHL@?$CBWORLD_EXPLOSS?3?5?$CFd?6@ 004be6ec     Server_Map.obj
 0002:00004700       ??_C@_0BC@MDGEJGHC@?$CBWORLD_PVPXP?3?5?$CFd?6@ 004be700     Server_Map.obj
 0002:00004714       ??_C@_0BC@GLJJENFG@?$CBWORLD_MONEY?3?5?$CFd?6@ 004be714     Server_Map.obj
 0002:00004728       ??_C@_0BO@CGFEFIJM@?$FLError?3?3mSERVER?4Init?$CI?$CJ?$FN?9?$CI?$CFd?$CJ?6@ 004be728     Server_Map.obj
 0002:00004748       ??_C@_0BL@ENPGFBBG@?$FLError?3?3ApplicationInit?$CI?$CJ?$FN@ 004be748     Server_Map.obj
 0002:00004764       ??_C@_0CK@JIGOCNFH@Zone?5?$CFd?5Started?5listening?5in?5po@ 004be764     Server_Map.obj
 0002:00004790       ??_C@_0BH@MPEJHHBH@CONFIG?2SERVER_INFO?4TXT@ 004be790     Server_Map.obj
 0002:000047a8       ??_C@_06LJMPAGMN@?$FL?$CD001?$FN@ 004be7a8     Server_Map.obj
 0002:000047b0       ??_C@_06LLIJLIJE@?$FL?$CD002?$FN@ 004be7b0     Server_Map.obj
 0002:000047b8       ??_C@_06LKELNCKD@?$FL?$CD003?$FN@ 004be7b8     Server_Map.obj
 0002:000047c0       ??_C@_06LMIABAEI@?$FL?$CD006?$FN@ 004be7c0     Server_Map.obj
 0002:000047c8       ??_C@_06LNECHKHP@?$FL?$CD007?$FN@ 004be7c8     Server_Map.obj
 0002:000047d0       ??_C@_06DDFNPPB@?$FL?$CD012?$FN@ 004be7d0     Server_Map.obj
 0002:000047d8       ??_C@_06CPHLFMG@?$FL?$CD013?$FN@ 004be7d8     Server_Map.obj
 0002:000047e0       ??_C@_06HLIKDED@?$FL?$CD014?$FN@ 004be7e0     Server_Map.obj
 0002:000047e8       ??_C@_06GHKMJHE@?$FL?$CD015?$FN@ 004be7e8     Server_Map.obj
 0002:000047f0       ??_C@_06EDMHHCN@?$FL?$CD016?$FN@ 004be7f0     Server_Map.obj
 0002:000047f8       ??_C@_06FPOBNBK@?$FL?$CD017?$FN@ 004be7f8     Server_Map.obj
 0002:00004800       ??_C@_06OKCFKCH@?$FL?$CD018?$FN@ 004be800     Server_Map.obj
 0002:00004808       ??_C@_06PGADABA@?$FL?$CD019?$FN@ 004be808     Server_Map.obj
 0002:00004810       ??_C@_06BCAEKEHB@?$FL?$CD020?$FN@ 004be810     Server_Map.obj
 0002:00004818       ??_C@_06BDMGMOEG@?$FL?$CD021?$FN@ 004be818     Server_Map.obj
 0002:00004820       ??_C@_06BBIAHABP@?$FL?$CD022?$FN@ 004be820     Server_Map.obj
 0002:00004828       ??_C@_06BAECBKCI@?$FL?$CD023?$FN@ 004be828     Server_Map.obj
 0002:00004830       ??_C@_07HLHNPLLN@?$FL?$CD0231?$FN@ 004be830     Server_Map.obj
 0002:00004838       ??_C@_06BEMPGGJK@?$FL?$CD025?$FN@ 004be838     Server_Map.obj
 0002:00004840       ??_C@_06KKLIMDBE@?$FL?$CD030?$FN@ 004be840     Server_Map.obj
 0002:00004848       ??_C@_06KLHKKJCD@?$FL?$CD031?$FN@ 004be848     Server_Map.obj
 0002:00004850       ??_C@_06KJDMBHHK@?$FL?$CD032?$FN@ 004be850     Server_Map.obj
 0002:00004858       ??_C@_06KIPOHNEN@?$FL?$CD033?$FN@ 004be858     Server_Map.obj
 0002:00004860       ??_C@_06KNLBGLMI@?$FL?$CD034?$FN@ 004be860     Server_Map.obj
 0002:00004868       ??_C@_06KMHDABPP@?$FL?$CD035?$FN@ 004be868     Server_Map.obj
 0002:00004870       ??_C@_06KODFLPKG@?$FL?$CD036?$FN@ 004be870     Server_Map.obj
 0002:00004878       ??_C@_06KPPHNFJB@?$FL?$CD037?$FN@ 004be878     Server_Map.obj
 0002:00004880       ??_C@_06KEKLJCKM@?$FL?$CD038?$FN@ 004be880     Server_Map.obj
 0002:00004888       ??_C@_06KFGJPIJL@?$FL?$CD039?$FN@ 004be888     Server_Map.obj
 0002:00004890       ??_C@_06DHGPPLKN@?$FL?$CD040?$FN@ 004be890     Server_Map.obj
 0002:00004898       ??_C@_06DGKNJBJK@?$FL?$CD041?$FN@ 004be898     Server_Map.obj
 0002:000048a0       ??_C@_06DEOLCPMD@?$FL?$CD042?$FN@ 004be8a0     Server_Map.obj
 0002:000048a8       ??_C@_06DFCJEFPE@?$FL?$CD043?$FN@ 004be8a8     Server_Map.obj
 0002:000048b0       ??_C@_06DAGGFDHB@?$FL?$CD044?$FN@ 004be8b0     Server_Map.obj
 0002:000048b8       ??_C@_06ILFOOAHK@?$FL?$CD056?$FN@ 004be8b8     Server_Map.obj
 0002:000048c0       ??_C@_06DBKEDJEG@?$FL?$CD045?$FN@ 004be8c0     Server_Map.obj
 0002:000048c8       ??_C@_06DDOCIHBP@?$FL?$CD046?$FN@ 004be8c8     Server_Map.obj
 0002:000048d0       ??_C@_06DCCAONCI@?$FL?$CD047?$FN@ 004be8d0     Server_Map.obj
 0002:000048d8       ??_C@_06DJHMKKBF@?$FL?$CD048?$FN@ 004be8d8     Server_Map.obj
 0002:000048e0       ??_C@_06DILOMACC@?$FL?$CD049?$FN@ 004be8e0     Server_Map.obj
 0002:000048e8       ??_C@_06IPNDJMMI@?$FL?$CD050?$FN@ 004be8e8     Server_Map.obj
 0002:000048f0       ??_C@_06IOBBPGPP@?$FL?$CD051?$FN@ 004be8f0     Server_Map.obj
 0002:000048f8       ??_C@_06IMFHEIKG@?$FL?$CD052?$FN@ 004be8f8     Server_Map.obj
 0002:00004900       ??_C@_06INJFCCJB@?$FL?$CD053?$FN@ 004be900     Server_Map.obj
 0002:00004908       ??_C@_06IJBIFOCD@?$FL?$CD055?$FN@ 004be908     Server_Map.obj
 0002:00004910       ??_C@_06BFANAMKN@?$FL?$CD024?$FN@ 004be910     Server_Map.obj
 0002:00004918       ??_C@_0BI@EBDFLOAN@SailorSky2?5Zone?5BugTrap@ 004be918     Server_Map.obj
 0002:00004930       ??_C@_0L@JKPDENGN@C?3?2BugTrap@ 004be930     Server_Map.obj
 0002:0000493c       ??_C@_05GDHACFMB@1?42?43?$AA@ 004be93c     zlib:uncompr.obj
 0002:000051f0       ??_C@_0BH@LIBMMIGA@incorrect?5header?5check?$AA@ 004bf1f0     zlib:inflate.obj
 0002:00005208       ??_C@_0BL@IHKGDAEE@unknown?5compression?5method?$AA@ 004bf208     zlib:inflate.obj
 0002:00005224       ??_C@_0BE@EMOGCLGO@invalid?5window?5size?$AA@ 004bf224     zlib:inflate.obj
 0002:00005238       ??_C@_0BJ@BLBBCOMO@unknown?5header?5flags?5set?$AA@ 004bf238     zlib:inflate.obj
 0002:00005254       ??_C@_0BE@GONKLEPM@header?5crc?5mismatch?$AA@ 004bf254     zlib:inflate.obj
 0002:00005268       ??_C@_0BD@PJCBIDD@invalid?5block?5type?$AA@ 004bf268     zlib:inflate.obj
 0002:0000527c       ??_C@_0BN@LGAADGOK@invalid?5stored?5block?5lengths?$AA@ 004bf27c     zlib:inflate.obj
 0002:0000529c       ??_C@_0CE@GMIGFPBB@too?5many?5length?5or?5distance?5symb@ 004bf29c     zlib:inflate.obj
 0002:000052c0       ??_C@_0BJ@HDEPPGOH@invalid?5code?5lengths?5set?$AA@ 004bf2c0     zlib:inflate.obj
 0002:000052dc       ??_C@_0BK@BMMPFBBH@invalid?5bit?5length?5repeat?$AA@ 004bf2dc     zlib:inflate.obj
 0002:000052f8       ??_C@_0BM@IIMGAINC@invalid?5literal?1lengths?5set?$AA@ 004bf2f8     zlib:inflate.obj
 0002:00005314       ??_C@_0BG@GMDFCBGP@invalid?5distances?5set?$AA@ 004bf314     zlib:inflate.obj
 0002:0000532c       ??_C@_0BM@FFFLPBBC@invalid?5literal?1length?5code?$AA@ 004bf32c     zlib:inflate.obj
 0002:00005348       ??_C@_0BG@LBKINIKP@invalid?5distance?5code?$AA@ 004bf348     zlib:inflate.obj
 0002:00005360       ??_C@_0BO@ECPMAOGG@invalid?5distance?5too?5far?5back?$AA@ 004bf360     zlib:inflate.obj
 0002:00005380       ??_C@_0BF@MEIGEHBE@incorrect?5data?5check?$AA@ 004bf380     zlib:inflate.obj
 0002:00005398       ??_C@_0BH@FGKKJGOC@incorrect?5length?5check?$AA@ 004bf398     zlib:inflate.obj
 0002:000073b0       _z_errmsg                  004c13b0     zlib:zutil.obj
 0002:000073d8       ??_C@_0BA@MOKMMFOD@need?5dictionary?$AA@ 004c13d8     zlib:zutil.obj
 0002:000073e8       ??_C@_0L@FNAOCBOG@stream?5end?$AA@ 004c13e8     zlib:zutil.obj
 0002:000073f3       ??_C@_00CNPNBAHC@?$AA@     004c13f3     zlib:zutil.obj
 0002:000073f4       ??_C@_0L@KIJFAKBJ@file?5error?$AA@ 004c13f4     zlib:zutil.obj
 0002:00007400       ??_C@_0N@MKKNPMJD@stream?5error?$AA@ 004c1400     zlib:zutil.obj
 0002:00007410       ??_C@_0L@HAHMBNLP@data?5error?$AA@ 004c1410     zlib:zutil.obj
 0002:0000741c       ??_C@_0BE@OGGJBMCE@insufficient?5memory?$AA@ 004c141c     zlib:zutil.obj
 0002:00007430       ??_C@_0N@DFPGLBGC@buffer?5error?$AA@ 004c1430     zlib:zutil.obj
 0002:00007440       ??_C@_0BF@CJFPCCEG@incompatible?5version?$AA@ 004c1440     zlib:zutil.obj
 0002:00007458       _inflate_copyright         004c1458     zlib:inftrees.obj
 0002:00007588       ??_C@_0P@GHFPNOJB@bad?5allocation@ 004c1588     libcpmt:xthrow.obj
 0002:0000759c       ??_7logic_error@std@@6B@   004c159c     libcpmt:xthrow.obj
 0002:000075a8       ??_7length_error@std@@6B@  004c15a8     libcpmt:xthrow.obj
 0002:000075b4       ??_7out_of_range@std@@6B@  004c15b4     libcpmt:xthrow.obj
 0002:00007ad8       ??_C@_07IPNMCAN@success@   004c1ad8     libcpmt:syserror.obj
 0002:00007ae0       ??_C@_0BN@LKKBCCDB@address?5family?5not?5supported@ 004c1ae0     libcpmt:syserror.obj
 0002:00007b00       ??_C@_0P@LDMLAFHI@address?5in?5use@ 004c1b00     libcpmt:syserror.obj
 0002:00007b10       ??_C@_0BG@DHPCNBJB@address?5not?5available@ 004c1b10     libcpmt:syserror.obj
 0002:00007b28       ??_C@_0BC@DFIBIBIL@already?5connected@ 004c1b28     libcpmt:syserror.obj
 0002:00007b3c       ??_C@_0BH@CAKOHOMI@argument?5list?5too?5long@ 004c1b3c     libcpmt:syserror.obj
 0002:00007b54       ??_C@_0BH@CGIMPKIM@argument?5out?5of?5domain@ 004c1b54     libcpmt:syserror.obj
 0002:00007b6c       ??_C@_0M@KGHGGJGL@bad?5address@ 004c1b6c     libcpmt:syserror.obj
 0002:00007b78       ??_C@_0BE@MPJPGCEO@bad?5file?5descriptor@ 004c1b78     libcpmt:syserror.obj
 0002:00007b8c       ??_C@_0M@PMMIEFCP@bad?5message@ 004c1b8c     libcpmt:syserror.obj
 0002:00007b98       ??_C@_0M@KPHOFDBE@broken?5pipe@ 004c1b98     libcpmt:syserror.obj
 0002:00007ba4       ??_C@_0BD@MGNDDEGM@connection?5aborted@ 004c1ba4     libcpmt:syserror.obj
 0002:00007bb8       ??_C@_0BP@KAIHPOGN@connection?5already?5in?5progress@ 004c1bb8     libcpmt:syserror.obj
 0002:00007bd8       ??_C@_0BD@PJLIIJEL@connection?5refused@ 004c1bd8     libcpmt:syserror.obj
 0002:00007bec       ??_C@_0BB@IECNJNOI@connection?5reset@ 004c1bec     libcpmt:syserror.obj
 0002:00007c00       ??_C@_0BC@PPHBOELF@cross?5device?5link@ 004c1c00     libcpmt:syserror.obj
 0002:00007c14       ??_C@_0BN@KDMIFEIP@destination?5address?5required@ 004c1c14     libcpmt:syserror.obj
 0002:00007c34       ??_C@_0BI@NGCEHDD@device?5or?5resource?5busy@ 004c1c34     libcpmt:syserror.obj
 0002:00007c4c       ??_C@_0BE@JIDOCPHM@directory?5not?5empty@ 004c1c4c     libcpmt:syserror.obj
 0002:00007c60       ??_C@_0BI@BNCLIGPB@executable?5format?5error@ 004c1c60     libcpmt:syserror.obj
 0002:00007c78       ??_C@_0M@MIDIAGJP@file?5exists@ 004c1c78     libcpmt:syserror.obj
 0002:00007c84       ??_C@_0P@DNAJLBJK@file?5too?5large@ 004c1c84     libcpmt:syserror.obj
 0002:00007c94       ??_C@_0BC@EJHOMAAK@filename?5too?5long@ 004c1c94     libcpmt:syserror.obj
 0002:00007ca8       ??_C@_0BH@KEFGLDAF@function?5not?5supported@ 004c1ca8     libcpmt:syserror.obj
 0002:00007cc0       ??_C@_0BB@DHFDFGDM@host?5unreachable@ 004c1cc0     libcpmt:syserror.obj
 0002:00007cd4       ??_C@_0BD@JPHBMONG@identifier?5removed@ 004c1cd4     libcpmt:syserror.obj
 0002:00007ce8       ??_C@_0BG@CDNPAGJK@illegal?5byte?5sequence@ 004c1ce8     libcpmt:syserror.obj
 0002:00007d00       ??_C@_0CD@BNPLBMNA@inappropriate?5io?5control?5operat@ 004c1d00     libcpmt:syserror.obj
 0002:00007d24       ??_C@_0M@EGEKIIMP@interrupted@ 004c1d24     libcpmt:syserror.obj
 0002:00007d30       ??_C@_0BB@FCMFBGOM@invalid?5argument@ 004c1d30     libcpmt:syserror.obj
 0002:00007d44       ??_C@_0N@OHAFKDEK@invalid?5seek@ 004c1d44     libcpmt:syserror.obj
 0002:00007d54       ??_C@_08GLNPIFBN@io?5error@ 004c1d54     libcpmt:syserror.obj
 0002:00007d60       ??_C@_0P@FLLDBIDK@is?5a?5directory@ 004c1d60     libcpmt:syserror.obj
 0002:00007d70       ??_C@_0N@IFLPBIOP@message?5size@ 004c1d70     libcpmt:syserror.obj
 0002:00007d80       ??_C@_0N@KIIEAAIO@network?5down@ 004c1d80     libcpmt:syserror.obj
 0002:00007d90       ??_C@_0O@FNPDBHEE@network?5reset@ 004c1d90     libcpmt:syserror.obj
 0002:00007da0       ??_C@_0BE@IFNCKGE@network?5unreachable@ 004c1da0     libcpmt:syserror.obj
 0002:00007db4       ??_C@_0BA@PFFCAOFK@no?5buffer?5space@ 004c1db4     libcpmt:syserror.obj
 0002:00007dc4       ??_C@_0BB@IEPBLJHK@no?5child?5process@ 004c1dc4     libcpmt:syserror.obj
 0002:00007dd8       ??_C@_07PLECNNKG@no?5link@ 004c1dd8     libcpmt:syserror.obj
 0002:00007de0       ??_C@_0BC@NJECKMKE@no?5lock?5available@ 004c1de0     libcpmt:syserror.obj
 0002:00007df4       ??_C@_0BF@PBGGPKKE@no?5message?5available@ 004c1df4     libcpmt:syserror.obj
 0002:00007e0c       ??_C@_0L@EDOLMPAK@no?5message@ 004c1e0c     libcpmt:syserror.obj
 0002:00007e18       ??_C@_0BD@EAMBFIDF@no?5protocol?5option@ 004c1e18     libcpmt:syserror.obj
 0002:00007e2c       ??_C@_0BD@IJDJKDEA@no?5space?5on?5device@ 004c1e2c     libcpmt:syserror.obj
 0002:00007e40       ??_C@_0BE@MKFDAFMP@no?5stream?5resources@ 004c1e40     libcpmt:syserror.obj
 0002:00007e54       ??_C@_0BK@IMCPHCBI@no?5such?5device?5or?5address@ 004c1e54     libcpmt:syserror.obj
 0002:00007e70       ??_C@_0P@FDINDDOK@no?5such?5device@ 004c1e70     libcpmt:syserror.obj
 0002:00007e80       ??_C@_0BK@NDOCBPGE@no?5such?5file?5or?5directory@ 004c1e80     libcpmt:syserror.obj
 0002:00007e9c       ??_C@_0BA@ENLPPKBN@no?5such?5process@ 004c1e9c     libcpmt:syserror.obj
 0002:00007eac       ??_C@_0BA@DOCPFFJG@not?5a?5directory@ 004c1eac     libcpmt:syserror.obj
 0002:00007ebc       ??_C@_0N@POEIPGGF@not?5a?5socket@ 004c1ebc     libcpmt:syserror.obj
 0002:00007ecc       ??_C@_0N@LGAPMMPI@not?5a?5stream@ 004c1ecc     libcpmt:syserror.obj
 0002:00007edc       ??_C@_0O@GLMIBBEG@not?5connected@ 004c1edc     libcpmt:syserror.obj
 0002:00007eec       ??_C@_0BC@ENOOLCNF@not?5enough?5memory@ 004c1eec     libcpmt:syserror.obj
 0002:00007f00       ??_C@_0O@NHEDABJP@not?5supported@ 004c1f00     libcpmt:syserror.obj
 0002:00007f10       ??_C@_0BD@MOLBPMEA@operation?5canceled@ 004c1f10     libcpmt:syserror.obj
 0002:00007f24       ??_C@_0BG@KDKHOPCO@operation?5in?5progress@ 004c1f24     libcpmt:syserror.obj
 0002:00007f3c       ??_C@_0BI@OHIEJAAB@operation?5not?5permitted@ 004c1f3c     libcpmt:syserror.obj
 0002:00007f54       ??_C@_0BI@LNEGIFLN@operation?5not?5supported@ 004c1f54     libcpmt:syserror.obj
 0002:00007f6c       ??_C@_0BG@OEMDKMEE@operation?5would?5block@ 004c1f6c     libcpmt:syserror.obj
 0002:00007f84       ??_C@_0L@BLPOFLNJ@owner?5dead@ 004c1f84     libcpmt:syserror.obj
 0002:00007f90       ??_C@_0BC@CIJDGCDI@permission?5denied@ 004c1f90     libcpmt:syserror.obj
 0002:00007fa4       ??_C@_0P@FNPOCJBE@protocol?5error@ 004c1fa4     libcpmt:syserror.obj
 0002:00007fb4       ??_C@_0BH@JPPPLHJB@protocol?5not?5supported@ 004c1fb4     libcpmt:syserror.obj
 0002:00007fcc       ??_C@_0BG@EICBIHDP@read?5only?5file?5system@ 004c1fcc     libcpmt:syserror.obj
 0002:00007fe4       ??_C@_0BO@BJBOMOEJ@resource?5deadlock?5would?5occur@ 004c1fe4     libcpmt:syserror.obj
 0002:00008004       ??_C@_0BP@LKNGHENJ@resource?5unavailable?5try?5again@ 004c2004     libcpmt:syserror.obj
 0002:00008024       ??_C@_0BE@GOIPJJHG@result?5out?5of?5range@ 004c2024     libcpmt:syserror.obj
 0002:00008038       ??_C@_0BG@MPLKFPAE@state?5not?5recoverable@ 004c2038     libcpmt:syserror.obj
 0002:00008050       ??_C@_0P@DIIFGFCG@stream?5timeout@ 004c2050     libcpmt:syserror.obj
 0002:00008060       ??_C@_0P@IPFDMIFL@text?5file?5busy@ 004c2060     libcpmt:syserror.obj
 0002:00008070       ??_C@_09KJPPMAOI@timed?5out@ 004c2070     libcpmt:syserror.obj
 0002:0000807c       ??_C@_0BO@HACHBEKI@too?5many?5files?5open?5in?5system@ 004c207c     libcpmt:syserror.obj
 0002:0000809c       ??_C@_0BE@GHAFMPAH@too?5many?5files?5open@ 004c209c     libcpmt:syserror.obj
 0002:000080b0       ??_C@_0P@HCOMKFCC@too?5many?5links@ 004c20b0     libcpmt:syserror.obj
 0002:000080c0       ??_C@_0BO@EFGOJEF@too?5many?5symbolic?5link?5levels@ 004c20c0     libcpmt:syserror.obj
 0002:000080e0       ??_C@_0BA@KGKGOOJA@value?5too?5large@ 004c20e0     libcpmt:syserror.obj
 0002:000080f0       ??_C@_0BE@MIEJDDNH@wrong?5protocol?5type@ 004c20f0     libcpmt:syserror.obj
 0002:00008104       ??_C@_0O@BFJCFAAK@unknown?5error@ 004c2104     libcpmt:syserror.obj
 0002:00008118       ??_7ios_base@std@@6B@      004c2118     libcpmt:cout.obj
 0002:00008120       ??_7?$basic_ios@DU?$char_traits@D@std@@@std@@6B@ 004c2120     libcpmt:cout.obj
 0002:00008128       ??_7?$basic_ostream@DU?$char_traits@D@std@@@std@@6B@ 004c2128     libcpmt:cout.obj
 0002:0000812c       ??_8?$basic_ostream@DU?$char_traits@D@std@@@std@@7B@ 004c212c     libcpmt:cout.obj
 0002:00008138       ??_7?$basic_streambuf@DU?$char_traits@D@std@@@std@@6B@ 004c2138     libcpmt:cout.obj
 0002:00008178       ??_7?$basic_filebuf@DU?$char_traits@D@std@@@std@@6B@ 004c2178     libcpmt:cout.obj
 0002:000081b8       ??_7?$codecvt@DDU_Mbstatet@@@std@@6B@ 004c21b8     libcpmt:cout.obj
 0002:0000821c       ??_7_Generic_error_category@std@@6B@ 004c221c     libcpmt:thread0.obj
 0002:00008234       ??_C@_07DCLBNMLN@generic@  004c2234     libcpmt:thread0.obj
 0002:00008240       ??_7_Locimp@locale@std@@6B@ 004c2240     libcpmt:locale0.obj
 0002:0000824c       ??_C@_01NBENCBCI@?$CK@     004c224c     libcpmt:locale0.obj
 0002:00008350       ?_BADOFF@std@@3_JB         004c2350     libcpmt:ios.obj
 0002:00008358       ??_C@_1BK@MGMFAEKH@?$AAk?$AAe?$AAr?$AAn?$AAe?$AAl?$AA3?$AA2?$AA?4?$AAd?$AAl?$AAl@ 004c2358     libcpmt:winapisupp.obj
 0002:00008374       ??_C@_0BE@JOGNEJCI@GetCurrentPackageId@ 004c2374     libcpmt:winapisupp.obj
 0002:00008388       ??_C@_0BP@FPNJPEJC@GetSystemTimePreciseAsFileTime@ 004c2388     libcpmt:winapisupp.obj
 0002:000083a8       ??_C@_0O@NNMIPI@GetTempPath2W@ 004c23a8     libcpmt:winapisupp.obj
 0002:000083b8       ??_C@_11LOCGONAA@@         004c23b8     libcpmt:wlocale.obj
 0002:000083bc       ??_C@_13IMODFHAA@?$AA?9@   004c23bc     libcpmt:wlocale.obj
 0002:0000846c       ??_7type_info@@6B@         004c246c     LIBCMT:std_type_info_static.obj
 0002:000084a0       __pDestructExceptionObject 004c24a0     libvcruntime:ehhelpers.obj
 0002:000084a8       ??_7bad_exception@std@@6B@ 004c24a8     libvcruntime:frame.obj
 0002:000084b0       ??_C@_0O@DPKOEFFH@bad?5exception@ 004c24b0     libvcruntime:frame.obj
 0002:00008848       ??_C@_08EHJDFFNH@__based?$CI@ 004c2848     libvcruntime:undname.obj
 0002:00008854       ??_C@_07KOLFKCDI@__cdecl@  004c2854     libvcruntime:undname.obj
 0002:0000885c       ??_C@_08GHMPAG@__pascal@   004c285c     libvcruntime:undname.obj
 0002:00008868       ??_C@_09IFJBGAPI@__stdcall@ 004c2868     libvcruntime:undname.obj
 0002:00008874       ??_C@_0L@NPHFGOKO@__thiscall@ 004c2874     libvcruntime:undname.obj
 0002:00008880       ??_C@_0L@JMKHOMEK@__fastcall@ 004c2880     libvcruntime:undname.obj
 0002:0000888c       ??_C@_0N@BCKKPABJ@__vectorcall@ 004c288c     libvcruntime:undname.obj
 0002:0000889c       ??_C@_09HIJEGCPM@__clrcall@ 004c289c     libvcruntime:undname.obj
 0002:000088a8       ??_C@_06GHPCKEAG@__eabi@   004c28a8     libvcruntime:undname.obj
 0002:000088b0       ??_C@_09IOPIDJLG@__swift_1@ 004c28b0     libvcruntime:undname.obj
 0002:000088bc       ??_C@_09KFNFGKHF@__swift_2@ 004c28bc     libvcruntime:undname.obj
 0002:000088c8       ??_C@_09LMMOFLDE@__swift_3@ 004c28c8     libvcruntime:undname.obj
 0002:000088d4       ??_C@_07JOMMBBKO@__ptr64@  004c28d4     libvcruntime:undname.obj
 0002:000088dc       ??_C@_0L@PILCLIHE@__restrict@ 004c28dc     libvcruntime:undname.obj
 0002:000088e8       ??_C@_0M@GFIIJFMG@__unaligned@ 004c28e8     libvcruntime:undname.obj
 0002:000088f4       ??_C@_09DHDLOLLB@restrict?$CI@ 004c28f4     libvcruntime:undname.obj
 0002:00008900       ??_C@_04NIHEBCM@?5new@     004c2900     libvcruntime:undname.obj
 0002:00008908       ??_C@_07FPCDHGMM@?5delete@ 004c2908     libvcruntime:undname.obj
 0002:00008910       ??_C@_01NEMOKFLO@?$DN@     004c2910     libvcruntime:undname.obj
 0002:00008914       ??_C@_02GPIOPFAK@?$DO?$DO@ 004c2914     libvcruntime:undname.obj
 0002:00008918       ??_C@_02FODMEDOG@?$DM?$DM@ 004c2918     libvcruntime:undname.obj
 0002:0000891c       ??_C@_01DCLJPIOD@?$CB@     004c291c     libvcruntime:undname.obj
 0002:00008920       ??_C@_02EGOFBIJA@?$DN?$DN@ 004c2920     libvcruntime:undname.obj
 0002:00008924       ??_C@_02FDNJECIE@?$CB?$DN@ 004c2924     libvcruntime:undname.obj
 0002:00008928       ??_C@_02GPECMEKF@?$FL?$FN@ 004c2928     libvcruntime:undname.obj
 0002:0000892c       ??_C@_08LHJFAFGD@operator@ 004c292c     libvcruntime:undname.obj
 0002:00008938       ??_C@_02HBOOOICD@?9?$DO@   004c2938     libvcruntime:undname.obj
 0002:0000893c       ??_C@_02ECNGHCIF@?$CL?$CL@ 004c293c     libvcruntime:undname.obj
 0002:00008940       ??_C@_02BAABKJLB@?9?9@     004c2940     libvcruntime:undname.obj
 0002:00008944       ??_C@_01MIFGBAGJ@?$CL@     004c2944     libvcruntime:undname.obj
 0002:00008948       ??_C@_01HNPIGOCE@?$CG@     004c2948     libvcruntime:undname.obj
 0002:0000894c       ??_C@_03MNHNFDLC@?9?$DO?$CK@ 004c294c     libvcruntime:undname.obj
 0002:00008950       ??_C@_01KMDKNFGN@?1@       004c2950     libvcruntime:undname.obj
 0002:00008954       ??_C@_01FGNFDNOH@?$CF@     004c2954     libvcruntime:undname.obj
 0002:00008958       ??_C@_01MNNFJEPP@?$DM@     004c2958     libvcruntime:undname.obj
 0002:0000895c       ??_C@_02EHCHHCKH@?$DM?$DN@ 004c295c     libvcruntime:undname.obj
 0002:00008960       ??_C@_01PPODPGHN@?$DO@     004c2960     libvcruntime:undname.obj
 0002:00008964       ??_C@_02EEKDKGMJ@?$DO?$DN@ 004c2964     libvcruntime:undname.obj
 0002:00008968       ??_C@_01IHBHIGKO@?0@       004c2968     libvcruntime:undname.obj
 0002:0000896c       ??_C@_02HCKGKOFO@?$CI?$CJ@ 004c296c     libvcruntime:undname.obj
 0002:00008970       ??_C@_01PJKLJHI@?$HO@      004c2970     libvcruntime:undname.obj
 0002:00008974       ??_C@_01JKBOJNNK@?$FO@     004c2974     libvcruntime:undname.obj
 0002:00008978       ??_C@_01DNKMNLPK@?$HM@     004c2978     libvcruntime:undname.obj
 0002:0000897c       ??_C@_02PPKAJPJL@?$CG?$CG@ 004c297c     libvcruntime:undname.obj
 0002:00008980       ??_C@_02NONPIBCD@?$HM?$HM@ 004c2980     libvcruntime:undname.obj
 0002:00008984       ??_C@_02FPIMKNGF@?$CK?$DN@ 004c2984     libvcruntime:undname.obj
 0002:00008988       ??_C@_02FOEOMHFC@?$CL?$DN@ 004c2988     libvcruntime:undname.obj
 0002:0000898c       ??_C@_02FKMDLLOA@?9?$DN@   004c298c     libvcruntime:undname.obj
 0002:00008990       ??_C@_02FJEHGPIO@?1?$DN@   004c2990     libvcruntime:undname.obj
 0002:00008994       ??_C@_02FENAOKFI@?$CF?$DN@ 004c2994     libvcruntime:undname.obj
 0002:00008998       ??_C@_03IKFCCPFF@?$DO?$DO?$DN@ 004c2998     libvcruntime:undname.obj
 0002:0000899c       ??_C@_03CDNPDDLA@?$DM?$DM?$DN@ 004c299c     libvcruntime:undname.obj
 0002:000089a0       ??_C@_02FGJGFEAB@?$CG?$DN@ 004c29a0     libvcruntime:undname.obj
 0002:000089a4       ??_C@_02DHLNPPGH@?$HM?$DN@ 004c29a4     libvcruntime:undname.obj
 0002:000089a8       ??_C@_02MHEGNOJ@?$FO?$DN@  004c29a8     libvcruntime:undname.obj
 0002:000089ac       ??_C@_09IFPLHPGF@?$GAvftable?8@ 004c29ac     libvcruntime:undname.obj
 0002:000089b8       ??_C@_09BLBHBJP@?$GAvbtable?8@ 004c29b8     libvcruntime:undname.obj
 0002:000089c4       ??_C@_07FEEIOKP@?$GAvcall?8@ 004c29c4     libvcruntime:undname.obj
 0002:000089cc       ??_C@_08LLFFHHDJ@?$GAtypeof?8@ 004c29cc     libvcruntime:undname.obj
 0002:000089d8       ??_C@_0BF@KDPPACIK@?$GAlocal?5static?5guard?8@ 004c29d8     libvcruntime:undname.obj
 0002:000089f0       ??_C@_08OBABFOLI@?$GAstring?8@ 004c29f0     libvcruntime:undname.obj
 0002:000089fc       ??_C@_0BD@JDLKDPAB@?$GAvbase?5destructor?8@ 004c29fc     libvcruntime:undname.obj
 0002:00008a10       ??_C@_0BN@DEGPLNFK@?$GAvector?5deleting?5destructor?8@ 004c2a10     libvcruntime:undname.obj
 0002:00008a30       ??_C@_0BO@OBMKPJIG@?$GAdefault?5constructor?5closure?8@ 004c2a30     libvcruntime:undname.obj
 0002:00008a50       ??_C@_0BN@IMDCHIKM@?$GAscalar?5deleting?5destructor?8@ 004c2a50     libvcruntime:undname.obj
 0002:00008a70       ??_C@_0BO@PFGOCPJJ@?$GAvector?5constructor?5iterator?8@ 004c2a70     libvcruntime:undname.obj
 0002:00008a90       ??_C@_0BN@LFPFMEDL@?$GAvector?5destructor?5iterator?8@ 004c2a90     libvcruntime:undname.obj
 0002:00008ab0       ??_C@_0CE@IKBNEHA@?$GAvector?5vbase?5constructor?5itera@ 004c2ab0     libvcruntime:undname.obj
 0002:00008ad4       ??_C@_0BL@NILFHHPC@?$GAvirtual?5displacement?5map?8@ 004c2ad4     libvcruntime:undname.obj
 0002:00008af0       ??_C@_0CB@JONCMFFK@?$GAeh?5vector?5constructor?5iterator@ 004c2af0     libvcruntime:undname.obj
 0002:00008b14       ??_C@_0CA@GCEOPDGL@?$GAeh?5vector?5destructor?5iterator?8@ 004c2b14     libvcruntime:undname.obj
 0002:00008b34       ??_C@_0CH@OOJPLCPH@?$GAeh?5vector?5vbase?5constructor?5it@ 004c2b34     libvcruntime:undname.obj
 0002:00008b5c       ??_C@_0BL@LLKPOHJI@?$GAcopy?5constructor?5closure?8@ 004c2b5c     libvcruntime:undname.obj
 0002:00008b78       ??_C@_0BA@KBCDOMBN@?$GAudt?5returning?8@ 004c2b78     libvcruntime:undname.obj
 0002:00008b88       ??_C@_03KLGMFNMG@?$GAEH@   004c2b88     libvcruntime:undname.obj
 0002:00008b8c       ??_C@_05KHLCHHI@?$GARTTI@  004c2b8c     libvcruntime:undname.obj
 0002:00008b94       ??_C@_0BA@KKLDJDLB@?$GAlocal?5vftable?8@ 004c2b94     libvcruntime:undname.obj
 0002:00008ba4       ??_C@_0CE@IIHCMGGL@?$GAlocal?5vftable?5constructor?5clos@ 004c2ba4     libvcruntime:undname.obj
 0002:00008bc8       ??_C@_06FHBGPFGH@?5new?$FL?$FN@ 004c2bc8     libvcruntime:undname.obj
 0002:00008bd0       ??_C@_09LBNFPBCA@?5delete?$FL?$FN@ 004c2bd0     libvcruntime:undname.obj
 0002:00008bdc       ??_C@_0P@HJKNJFNN@?$GAomni?5callsig?8@ 004c2bdc     libvcruntime:undname.obj
 0002:00008bec       ??_C@_0BL@CNOONJFP@?$GAplacement?5delete?5closure?8@ 004c2bec     libvcruntime:undname.obj
 0002:00008c08       ??_C@_0BN@CKNJLHMB@?$GAplacement?5delete?$FL?$FN?5closure?8@ 004c2c08     libvcruntime:undname.obj
 0002:00008c28       ??_C@_0CG@CFDHKGGD@?$GAmanaged?5vector?5constructor?5ite@ 004c2c28     libvcruntime:undname.obj
 0002:00008c50       ??_C@_0CF@IMGKMJNO@?$GAmanaged?5vector?5destructor?5iter@ 004c2c50     libvcruntime:undname.obj
 0002:00008c78       ??_C@_0CG@HLDDJMAG@?$GAeh?5vector?5copy?5constructor?5ite@ 004c2c78     libvcruntime:undname.obj
 0002:00008ca0       ??_C@_0CM@FCBBDIGB@?$GAeh?5vector?5vbase?5copy?5construct@ 004c2ca0     libvcruntime:undname.obj
 0002:00008ccc       ??_C@_0BL@CLIPGLGB@?$GAdynamic?5initializer?5for?5?8@ 004c2ccc     libvcruntime:undname.obj
 0002:00008ce8       ??_C@_0CB@PDBIFEP@?$GAdynamic?5atexit?5destructor?5for?5@ 004c2ce8     libvcruntime:undname.obj
 0002:00008d0c       ??_C@_0CD@CGAJBKEJ@?$GAvector?5copy?5constructor?5iterat@ 004c2d0c     libvcruntime:undname.obj
 0002:00008d30       ??_C@_0CJ@GJELGAMM@?$GAvector?5vbase?5copy?5constructor?5@ 004c2d30     libvcruntime:undname.obj
 0002:00008d5c       ??_C@_0CL@FGIJHLCE@?$GAmanaged?5vector?5copy?5constructo@ 004c2d5c     libvcruntime:undname.obj
 0002:00008d88       ??_C@_0BM@PMGGMLDN@?$GAlocal?5static?5thread?5guard?8@ 004c2d88     libvcruntime:undname.obj
 0002:00008da4       ??_C@_0N@BDNMDMOL@operator?5?$CC?$CC?5@ 004c2da4     libvcruntime:undname.obj
 0002:00008db4       ??_C@_0BC@GGEBGALA@operator?5co_await@ 004c2db4     libvcruntime:undname.obj
 0002:00008dc8       ??_C@_0M@GAAIMMOH@operator?$DM?$DN?$DO@ 004c2dc8     libvcruntime:undname.obj
 0002:00008dd4       ??_C@_0BC@DAFEJGAK@?5Type?5Descriptor?8@ 004c2dd4     libvcruntime:undname.obj
 0002:00008de8       ??_C@_0BM@LDKODKLH@?5Base?5Class?5Descriptor?5at?5?$CI@ 004c2de8     libvcruntime:undname.obj
 0002:00008e04       ??_C@_0BD@LGICGFMM@?5Base?5Class?5Array?8@ 004c2e04     libvcruntime:undname.obj
 0002:00008e18       ??_C@_0BN@MECKDCOJ@?5Class?5Hierarchy?5Descriptor?8@ 004c2e18     libvcruntime:undname.obj
 0002:00008e38       ??_C@_0BK@CFCOFLF@?5Complete?5Object?5Locator?8@ 004c2e38     libvcruntime:undname.obj
 0002:00008e54       ??_C@_0BG@JNJLAMPM@?$GAanonymous?5namespace?8@ 004c2e54     libvcruntime:undname.obj
 0002:00008e78       ??_C@_1DM@KHCHBNEB@?$AAa?$AAp?$AAi?$AA?9?$AAm?$AAs?$AA?9?$AAw?$AAi?$AAn?$AA?9?$AAc?$AAo?$AAr?$AAe@ 004c2e78     libvcruntime:winapi_downlevel.obj
 0002:00008eb4       ??_C@_1DK@LPPGFMPP@?$AAa?$AAp?$AAi?$AA?9?$AAm?$AAs?$AA?9?$AAw?$AAi?$AAn?$AA?9?$AAc?$AAo?$AAr?$AAe@ 004c2eb4     libvcruntime:winapi_downlevel.obj
 0002:00008ef0       ??_C@_1BC@GDMECMAK@?$AAk?$AAe?$AAr?$AAn?$AAe?$AAl?$AA3?$AA2@ 004c2ef0     libvcruntime:winapi_downlevel.obj
 0002:00008f04       ??_C@_1BA@PFFKHIOG@?$AAa?$AAp?$AAi?$AA?9?$AAm?$AAs?$AA?9@ 004c2f04     libvcruntime:winapi_downlevel.obj
 0002:00008f1c       ??_C@_08KNHFBNJ@FlsAlloc@  004c2f1c     libvcruntime:winapi_downlevel.obj
 0002:00008f30       ??_C@_07PEJMOBNF@FlsFree@  004c2f30     libvcruntime:winapi_downlevel.obj
 0002:00008f40       ??_C@_0M@GDNOONDI@FlsGetValue@ 004c2f40     libvcruntime:winapi_downlevel.obj
 0002:00008f54       ??_C@_0M@JCPCPOEF@FlsSetValue@ 004c2f54     libvcruntime:winapi_downlevel.obj
 0002:00008f68       ??_C@_0BM@HCFOFFN@InitializeCriticalSectionEx@ 004c2f68     libvcruntime:winapi_downlevel.obj
 0002:00008f88       ?standard_lookup_table_spectre@__crt_stdio_output@@3V?$spectre_mitigated_lookup_table@Ustate_transition_pair@__crt_stdio_output@@$0IA@@1@B 004c2f88     libucrt:output.obj
 0002:00009088       ?format_validation_lookup_table_spectre@__crt_stdio_output@@3V?$spectre_mitigated_lookup_table@Ustate_transition_pair@__crt_stdio_output@@$0IA@@1@B 004c3088     libucrt:output.obj
 0002:00009188       ??_C@_1O@CEDCILHN@?$AA?$CI?$AAn?$AAu?$AAl?$AAl?$AA?$CJ@ 004c3188     libucrt:output.obj
 0002:00009198       ??_C@_06OJHGLDPL@?$CInull?$CJ@ 004c3198     libucrt:output.obj
 0002:000091a0       __real@8000000000000000    004c31a0     libucrt:frexp.obj
 0002:000091a8       ?large_power_data@?1??multiply_by_power_of_ten@__crt_strtox@@YA_NAAUbig_integer@2@I@Z@4QBIB 004c31a8     libucrt:input.obj
 0002:00009ab0       ?large_power_indices@?1??multiply_by_power_of_ten@__crt_strtox@@YA_NAAUbig_integer@2@I@Z@4QBUunpack_index@?1??12@YA_N0I@Z@B 004c3ab0     libucrt:input.obj
 0002:00009b48       ?small_powers_of_ten@?1??multiply_by_power_of_ten@__crt_strtox@@YA_NAAUbig_integer@2@I@Z@4QBIB 004c3b48     libucrt:input.obj
 0002:00009b70       ??_C@_1GE@DPGDJKLM@?$AAm?$AAi?$AAn?$AAk?$AAe?$AAr?$AAn?$AAe?$AAl?$AA?2?$AAc?$AAr?$AAt?$AAs?$AA?2@ 004c3b70     libucrt:input.obj
 0002:00009bd8       ??_C@_1FM@FELNCOBF@?$AA_?$AA_?$AAc?$AAr?$AAt?$AA_?$AAs?$AAt?$AAr?$AAt?$AAo?$AAx?$AA?3?$AA?3?$AAf@ 004c3bd8     libucrt:input.obj
 0002:00009c34       ??_C@_1BG@GEMHBGAF@?$AA_?$AAi?$AAs?$AA_?$AAd?$AAo?$AAu?$AAb?$AAl?$AAe@ 004c3c34     libucrt:input.obj
 0002:00009c50       ??_C@_1FK@JOJELFFO@?$AA_?$AA_?$AAc?$AAr?$AAt?$AA_?$AAs?$AAt?$AAr?$AAt?$AAo?$AAx?$AA?3?$AA?3?$AAf@ 004c3c50     libucrt:input.obj
 0002:00009cac       ??_C@_1BI@BANMPGJI@?$AA?$CB?$AA_?$AAi?$AAs?$AA_?$AAd?$AAo?$AAu?$AAb?$AAl?$AAe@ 004c3cac     libucrt:input.obj
 0002:00009cc8       ?constraints@?1??is_length_valid@__crt_stdio_input@@YA_NW4conversion_mode@2@W4length_modifier@2@@Z@4QAY0M@$$CBEA 004c3cc8     libucrt:input.obj
 0002:00009d40       ?inf_uppercase@?1???$parse_floating_point_possible_infinity@DV?$input_adapter_character_source@V?$string_input_adapter@D@__crt_stdio_input@@@__crt_strtox@@_K@__crt_strtox@@YA?AW4floating_point_parse_result@1@AADAAV?$input_adapter_character_source@V?$string_input_adapter@D@__crt_stdio_input@@@1@_K@Z@4QBDB 004c3d40     libucrt:input.obj
 0002:00009d44       ?inf_lowercase@?1???$parse_floating_point_possible_infinity@DV?$input_adapter_character_source@V?$string_input_adapter@D@__crt_stdio_input@@@__crt_strtox@@_K@__crt_strtox@@YA?AW4floating_point_parse_result@1@AADAAV?$input_adapter_character_source@V?$string_input_adapter@D@__crt_stdio_input@@@1@_K@Z@4QBDB 004c3d44     libucrt:input.obj
 0002:00009d48       ?inity_uppercase@?1???$parse_floating_point_possible_infinity@DV?$input_adapter_character_source@V?$string_input_adapter@D@__crt_stdio_input@@@__crt_strtox@@_K@__crt_strtox@@YA?AW4floating_point_parse_result@1@AADAAV?$input_adapter_character_source@V?$string_input_adapter@D@__crt_stdio_input@@@1@_K@Z@4QBDB 004c3d48     libucrt:input.obj
 0002:00009d50       ?inity_lowercase@?1???$parse_floating_point_possible_infinity@DV?$input_adapter_character_source@V?$string_input_adapter@D@__crt_stdio_input@@@__crt_strtox@@_K@__crt_strtox@@YA?AW4floating_point_parse_result@1@AADAAV?$input_adapter_character_source@V?$string_input_adapter@D@__crt_stdio_input@@@1@_K@Z@4QBDB 004c3d50     libucrt:input.obj
 0002:00009d58       ?uppercase@?1???$parse_floating_point_possible_nan@DV?$input_adapter_character_source@V?$string_input_adapter@D@__crt_stdio_input@@@__crt_strtox@@_K@__crt_strtox@@YA?AW4floating_point_parse_result@1@AADAAV?$input_adapter_character_source@V?$string_input_adapter@D@__crt_stdio_input@@@1@_K@Z@4QBDB 004c3d58     libucrt:input.obj
 0002:00009d5c       ?lowercase@?1???$parse_floating_point_possible_nan@DV?$input_adapter_character_source@V?$string_input_adapter@D@__crt_stdio_input@@@__crt_strtox@@_K@__crt_strtox@@YA?AW4floating_point_parse_result@1@AADAAV?$input_adapter_character_source@V?$string_input_adapter@D@__crt_stdio_input@@@1@_K@Z@4QBDB 004c3d5c     libucrt:input.obj
 0002:00009d60       ?uppercase@?1???$parse_floating_point_possible_nan_is_snan@DV?$input_adapter_character_source@V?$string_input_adapter@D@__crt_stdio_input@@@__crt_strtox@@@__crt_strtox@@YA_NAADAAV?$input_adapter_character_source@V?$string_input_adapter@D@__crt_stdio_input@@@1@@Z@4QBDB 004c3d60     libucrt:input.obj
 0002:00009d68       ?lowercase@?1???$parse_floating_point_possible_nan_is_snan@DV?$input_adapter_character_source@V?$string_input_adapter@D@__crt_stdio_input@@@__crt_strtox@@@__crt_strtox@@YA_NAADAAV?$input_adapter_character_source@V?$string_input_adapter@D@__crt_stdio_input@@@1@@Z@4QBDB 004c3d68     libucrt:input.obj
 0002:00009d70       ?uppercase@?1???$parse_floating_point_possible_nan_is_ind@DV?$input_adapter_character_source@V?$string_input_adapter@D@__crt_stdio_input@@@__crt_strtox@@@__crt_strtox@@YA_NAADAAV?$input_adapter_character_source@V?$string_input_adapter@D@__crt_stdio_input@@@1@@Z@4QBDB 004c3d70     libucrt:input.obj
 0002:00009d74       ?lowercase@?1???$parse_floating_point_possible_nan_is_ind@DV?$input_adapter_character_source@V?$string_input_adapter@D@__crt_stdio_input@@@__crt_strtox@@@__crt_strtox@@YA_NAADAAV?$input_adapter_character_source@V?$string_input_adapter@D@__crt_stdio_input@@@1@@Z@4QBDB 004c3d74     libucrt:input.obj
 0002:0000a228       ?inf_uppercase@?1???$parse_floating_point_possible_infinity@DV?$c_string_character_source@D@__crt_strtox@@PBD@__crt_strtox@@YA?AW4floating_point_parse_result@1@AADAAV?$c_string_character_source@D@1@PBD@Z@4QBDB 004c4228     libucrt:atof.obj
 0002:0000a22c       ?inf_lowercase@?1???$parse_floating_point_possible_infinity@DV?$c_string_character_source@D@__crt_strtox@@PBD@__crt_strtox@@YA?AW4floating_point_parse_result@1@AADAAV?$c_string_character_source@D@1@PBD@Z@4QBDB 004c422c     libucrt:atof.obj
 0002:0000a230       ?inity_uppercase@?1???$parse_floating_point_possible_infinity@DV?$c_string_character_source@D@__crt_strtox@@PBD@__crt_strtox@@YA?AW4floating_point_parse_result@1@AADAAV?$c_string_character_source@D@1@PBD@Z@4QBDB 004c4230     libucrt:atof.obj
 0002:0000a238       ?inity_lowercase@?1???$parse_floating_point_possible_infinity@DV?$c_string_character_source@D@__crt_strtox@@PBD@__crt_strtox@@YA?AW4floating_point_parse_result@1@AADAAV?$c_string_character_source@D@1@PBD@Z@4QBDB 004c4238     libucrt:atof.obj
 0002:0000a240       ?uppercase@?1???$parse_floating_point_possible_nan@DV?$c_string_character_source@D@__crt_strtox@@PBD@__crt_strtox@@YA?AW4floating_point_parse_result@1@AADAAV?$c_string_character_source@D@1@PBD@Z@4QBDB 004c4240     libucrt:atof.obj
 0002:0000a244       ?lowercase@?1???$parse_floating_point_possible_nan@DV?$c_string_character_source@D@__crt_strtox@@PBD@__crt_strtox@@YA?AW4floating_point_parse_result@1@AADAAV?$c_string_character_source@D@1@PBD@Z@4QBDB 004c4244     libucrt:atof.obj
 0002:0000a248       ?uppercase@?1???$parse_floating_point_possible_nan_is_snan@DV?$c_string_character_source@D@__crt_strtox@@@__crt_strtox@@YA_NAADAAV?$c_string_character_source@D@1@@Z@4QBDB 004c4248     libucrt:atof.obj
 0002:0000a250       ?lowercase@?1???$parse_floating_point_possible_nan_is_snan@DV?$c_string_character_source@D@__crt_strtox@@@__crt_strtox@@YA_NAADAAV?$c_string_character_source@D@1@@Z@4QBDB 004c4250     libucrt:atof.obj
 0002:0000a258       ?uppercase@?1???$parse_floating_point_possible_nan_is_ind@DV?$c_string_character_source@D@__crt_strtox@@@__crt_strtox@@YA_NAADAAV?$c_string_character_source@D@1@@Z@4QBDB 004c4258     libucrt:atof.obj
 0002:0000a25c       ?lowercase@?1???$parse_floating_point_possible_nan_is_ind@DV?$c_string_character_source@D@__crt_strtox@@@__crt_strtox@@YA_NAADAAV?$c_string_character_source@D@1@@Z@4QBDB 004c425c     libucrt:atof.obj
 0002:0000a260       ___newctype                004c4260     libucrt:ctype.obj
 0002:0000a560       ___newclmap                004c4560     libucrt:ctype.obj
 0002:0000a6e0       ___newcumap                004c46e0     libucrt:ctype.obj
 0002:0000a860       __wctype                   004c4860     libucrt:ctype.obj
 0002:0000aa68       ___acrt_exception_action_table 004c4a68     libucrt:exception_filter.obj
 0002:0000aaf8       ___acrt_signal_action_table_count 004c4af8     libucrt:exception_filter.obj
 0002:0000aafc       ___acrt_signal_action_first_fpe_index 004c4afc     libucrt:exception_filter.obj
 0002:0000ab00       ___acrt_signal_action_fpe_count 004c4b00     libucrt:exception_filter.obj
 0002:0000ab04       ??_C@_1BI@BGOHAHKC@?$AAm?$AAs?$AAc?$AAo?$AAr?$AAe?$AAe?$AA?4?$AAd?$AAl?$AAl@ 004c4b04     libucrt:exit.obj
 0002:0000ab1c       ??_C@_0P@MIGLKIOC@CorExitProcess@ 004c4b1c     libucrt:exit.obj
 0002:0000ac98       ??_C@_03KHJOGHMM@exp@      004c4c98     libucrt:fpexcept.obj
 0002:0000ac9c       ??_C@_03JGHBODFD@pow@      004c4c9c     libucrt:fpexcept.obj
 0002:0000aca0       ??_C@_03MGHMBJCF@log@      004c4ca0     libucrt:fpexcept.obj
 0002:0000aca4       ??_C@_05HGHHAHAP@log10@    004c4ca4     libucrt:fpexcept.obj
 0002:0000acac       ??_C@_04COOMCNPB@sinh@     004c4cac     libucrt:fpexcept.obj
 0002:0000acb4       ??_C@_04HPJJNFIM@cosh@     004c4cb4     libucrt:fpexcept.obj
 0002:0000acbc       ??_C@_04FJHINJAO@tanh@     004c4cbc     libucrt:fpexcept.obj
 0002:0000acc4       ??_C@_04FIHNOPOL@asin@     004c4cc4     libucrt:fpexcept.obj
 0002:0000accc       ??_C@_04PDIFKINK@acos@     004c4ccc     libucrt:fpexcept.obj
 0002:0000acd4       ??_C@_04MLLJIGOK@atan@     004c4cd4     libucrt:fpexcept.obj
 0002:0000acdc       ??_C@_05KNGEOGJB@atan2@    004c4cdc     libucrt:fpexcept.obj
 0002:0000ace4       ??_C@_04EIAKFFMI@sqrt@     004c4ce4     libucrt:fpexcept.obj
 0002:0000acec       ??_C@_03BLEJJJBH@sin@      004c4cec     libucrt:fpexcept.obj
 0002:0000acf0       ??_C@_03LALBNOCG@cos@      004c4cf0     libucrt:fpexcept.obj
 0002:0000acf4       ??_C@_03IIINPABG@tan@      004c4cf4     libucrt:fpexcept.obj
 0002:0000acf8       ??_C@_04GFPJNGEK@ceil@     004c4cf8     libucrt:fpexcept.obj
 0002:0000ad00       ??_C@_05PBJFFIGL@floor@    004c4d00     libucrt:fpexcept.obj
 0002:0000ad08       ??_C@_04ODHECPBC@fabs@     004c4d08     libucrt:fpexcept.obj
 0002:0000ad10       ??_C@_04EHEDPDJG@modf@     004c4d10     libucrt:fpexcept.obj
 0002:0000ad18       ??_C@_05CEJMAHNP@ldexp@    004c4d18     libucrt:fpexcept.obj
 0002:0000ad20       ??_C@_05KBKMEMPO@_cabs@    004c4d20     libucrt:fpexcept.obj
 0002:0000ad28       ??_C@_06MEIMCGCF@_hypot@   004c4d28     libucrt:fpexcept.obj
 0002:0000ad30       ??_C@_04KEPJIHGP@fmod@     004c4d30     libucrt:fpexcept.obj
 0002:0000ad38       ??_C@_05GKKHEGJL@frexp@    004c4d38     libucrt:fpexcept.obj
 0002:0000ad40       ??_C@_03MJLDFKDL@_y0@      004c4d40     libucrt:fpexcept.obj
 0002:0000ad44       ??_C@_03NAKIGLHK@_y1@      004c4d44     libucrt:fpexcept.obj
 0002:0000ad48       ??_C@_03ONILCKOB@_yn@      004c4d48     libucrt:fpexcept.obj
 0002:0000ad4c       ??_C@_05JGDBENOH@_logb@    004c4d4c     libucrt:fpexcept.obj
 0002:0000ad54       ??_C@_0L@KDOEJCKC@_nextafter@ 004c4d54     libucrt:fpexcept.obj
 0002:0000ade0       ___lc_category             004c4de0     libucrt:wsetlocale.obj
 0002:0000ae28       ??_C@_1O@GIFLHMA@?$AAL?$AAC?$AA_?$AAA?$AAL?$AAL@ 004c4e28     libucrt:wsetlocale.obj
 0002:0000ae38       ??_C@_1BG@PPOMIBNJ@?$AAL?$AAC?$AA_?$AAC?$AAO?$AAL?$AAL?$AAA?$AAT?$AAE@ 004c4e38     libucrt:wsetlocale.obj
 0002:0000ae50       ??_C@_1BC@FFJGAPJM@?$AAL?$AAC?$AA_?$AAC?$AAT?$AAY?$AAP?$AAE@ 004c4e50     libucrt:wsetlocale.obj
 0002:0000ae64       ??_C@_1BI@PCKFNJFB@?$AAL?$AAC?$AA_?$AAM?$AAO?$AAN?$AAE?$AAT?$AAA?$AAR?$AAY@ 004c4e64     libucrt:wsetlocale.obj
 0002:0000ae7c       ??_C@_1BG@ENIEDKID@?$AAL?$AAC?$AA_?$AAN?$AAU?$AAM?$AAE?$AAR?$AAI?$AAC@ 004c4e7c     libucrt:wsetlocale.obj
 0002:0000ae94       ??_C@_1BA@HAAOMIIG@?$AAL?$AAC?$AA_?$AAT?$AAI?$AAM?$AAE@ 004c4e94     libucrt:wsetlocale.obj
 0002:0000aea4       ??_C@_15NBPDDFIP@?$AA?$DN?$AA?$DL@ 004c4ea4     libucrt:wsetlocale.obj
 0002:0000aeac       ??_C@_13PJJBFPED@?$AA?$DL@ 004c4eac     libucrt:wsetlocale.obj
 0002:0000aeb0       ??_C@_13NMPKAAJP@?$AA?$DN@ 004c4eb0     libucrt:wsetlocale.obj
 0002:0000aeb4       ??_C@_17EFJLDFDO@?$AA?9?$AA_?$AA?4@ 004c4eb4     libucrt:wsetlocale.obj
 0002:0000aebc       ??_C@_13FHBKNHDA@?$AAC@    004c4ebc     libucrt:wsetlocale.obj
 0002:0000aec0       ??_C@_17MBJJLFDM@?$AA_?$AA?4?$AA?0@ 004c4ec0     libucrt:wsetlocale.obj
 0002:0000aec8       ??_C@_13ENNFDPBH@?$AA_@    004c4ec8     libucrt:wsetlocale.obj
 0002:0000aecc       ??_C@_13JOFGPIOO@?$AA?4@   004c4ecc     libucrt:wsetlocale.obj
 0002:0000aed0       ___lc_time_c               004c4ed0     libucrt:nlsdata.obj
 0002:0000b034       ??_C@_03KOEHGMDN@Sun@      004c5034     libucrt:nlsdata.obj
 0002:0000b038       ??_C@_03PDAGKDH@Mon@       004c5038     libucrt:nlsdata.obj
 0002:0000b03c       ??_C@_03NAGEINEP@Tue@      004c503c     libucrt:nlsdata.obj
 0002:0000b040       ??_C@_03MHOMLAJA@Wed@      004c5040     libucrt:nlsdata.obj
 0002:0000b044       ??_C@_03IOFIKPDN@Thu@      004c5044     libucrt:nlsdata.obj
 0002:0000b048       ??_C@_03IDIOELNC@Fri@      004c5048     libucrt:nlsdata.obj
 0002:0000b04c       ??_C@_03FEFJNEK@Sat@       004c504c     libucrt:nlsdata.obj
 0002:0000b050       ??_C@_06OOPIFAJ@Sunday@    004c5050     libucrt:nlsdata.obj
 0002:0000b058       ??_C@_06JLEDEDGH@Monday@   004c5058     libucrt:nlsdata.obj
 0002:0000b060       ??_C@_07BAAGCFCM@Tuesday@  004c5060     libucrt:nlsdata.obj
 0002:0000b068       ??_C@_09DLIGFAKA@Wednesday@ 004c5068     libucrt:nlsdata.obj
 0002:0000b074       ??_C@_08HACCIKIA@Thursday@ 004c5074     libucrt:nlsdata.obj
 0002:0000b080       ??_C@_06JECMNKMI@Friday@   004c5080     libucrt:nlsdata.obj
 0002:0000b088       ??_C@_08INBOOONO@Saturday@ 004c5088     libucrt:nlsdata.obj
 0002:0000b094       ??_C@_03JIHJHPIE@Jan@      004c5094     libucrt:nlsdata.obj
 0002:0000b098       ??_C@_03HJBDCHOM@Feb@      004c5098     libucrt:nlsdata.obj
 0002:0000b09c       ??_C@_03ODNJBKGA@Mar@      004c509c     libucrt:nlsdata.obj
 0002:0000b0a0       ??_C@_03LEOLGMJP@Apr@      004c50a0     libucrt:nlsdata.obj
 0002:0000b0a4       ??_C@_03CNMDKL@May@        004c50a4     libucrt:nlsdata.obj
 0002:0000b0a8       ??_C@_03IDFGHECI@Jun@      004c50a8     libucrt:nlsdata.obj
 0002:0000b0ac       ??_C@_03LBGABGKK@Jul@      004c50ac     libucrt:nlsdata.obj
 0002:0000b0b0       ??_C@_03IFJFEIGA@Aug@      004c50b0     libucrt:nlsdata.obj
 0002:0000b0b4       ??_C@_03GGCAPAJC@Sep@      004c50b4     libucrt:nlsdata.obj
 0002:0000b0b8       ??_C@_03BMAOKBAD@Oct@      004c50b8     libucrt:nlsdata.obj
 0002:0000b0bc       ??_C@_03JPJOFNIA@Nov@      004c50bc     libucrt:nlsdata.obj
 0002:0000b0c0       ??_C@_03MKABNOCG@Dec@      004c50c0     libucrt:nlsdata.obj
 0002:0000b0c4       ??_C@_07CGJPFGJA@January@  004c50c4     libucrt:nlsdata.obj
 0002:0000b0cc       ??_C@_08GNJGEPFN@February@ 004c50cc     libucrt:nlsdata.obj
 0002:0000b0d8       ??_C@_05HPCKOFNC@March@    004c50d8     libucrt:nlsdata.obj
 0002:0000b0e0       ??_C@_05DMJDNLEJ@April@    004c50e0     libucrt:nlsdata.obj
 0002:0000b0e8       ??_C@_04CNLMGBGM@June@     004c50e8     libucrt:nlsdata.obj
 0002:0000b0f0       ??_C@_04MIEPOIFP@July@     004c50f0     libucrt:nlsdata.obj
 0002:0000b0f8       ??_C@_06LBBHFDDG@August@   004c50f8     libucrt:nlsdata.obj
 0002:0000b100       ??_C@_09BHHEALKD@September@ 004c5100     libucrt:nlsdata.obj
 0002:0000b10c       ??_C@_07JJNFCEND@October@  004c510c     libucrt:nlsdata.obj
 0002:0000b114       ??_C@_08HCHEGEOA@November@ 004c5114     libucrt:nlsdata.obj
 0002:0000b120       ??_C@_08EDHMEBNP@December@ 004c5120     libucrt:nlsdata.obj
 0002:0000b12c       ??_C@_02DEDBPAFC@AM@       004c512c     libucrt:nlsdata.obj
 0002:0000b130       ??_C@_02CJNFDJBF@PM@       004c5130     libucrt:nlsdata.obj
 0002:0000b134       ??_C@_08BPBNCDIB@MM?1dd?1yy@ 004c5134     libucrt:nlsdata.obj
 0002:0000b140       ??_C@_0BE@CKGJFCPC@dddd?0?5MMMM?5dd?0?5yyyy@ 004c5140     libucrt:nlsdata.obj
 0002:0000b154       ??_C@_08JCCMCCIL@HH?3mm?3ss@ 004c5154     libucrt:nlsdata.obj
 0002:0000b160       ??_C@_17MBGCMIPB@?$AAS?$AAu?$AAn@ 004c5160     libucrt:nlsdata.obj
 0002:0000b168       ??_C@_17KBOMKBF@?$AAM?$AAo?$AAn@ 004c5168     libucrt:nlsdata.obj
 0002:0000b170       ??_C@_17BMKGEGOJ@?$AAT?$AAu?$AAe@ 004c5170     libucrt:nlsdata.obj
 0002:0000b178       ??_C@_17CJEDCEPE@?$AAW?$AAe?$AAd@ 004c5178     libucrt:nlsdata.obj
 0002:0000b180       ??_C@_17PDPHAADD@?$AAT?$AAh?$AAu@ 004c5180     libucrt:nlsdata.obj
 0002:0000b188       ??_C@_17HFOLPPLP@?$AAF?$AAr?$AAi@ 004c5188     libucrt:nlsdata.obj
 0002:0000b190       ??_C@_17GGIBDPIH@?$AAS?$AAa?$AAt@ 004c5190     libucrt:nlsdata.obj
 0002:0000b198       ??_C@_1O@IHNHDHPB@?$AAS?$AAu?$AAn?$AAd?$AAa?$AAy@ 004c5198     libucrt:nlsdata.obj
 0002:0000b1a8       ??_C@_1O@MMNBFLIA@?$AAM?$AAo?$AAn?$AAd?$AAa?$AAy@ 004c51a8     libucrt:nlsdata.obj
 0002:0000b1b8       ??_C@_1BA@ENFBFFEK@?$AAT?$AAu?$AAe?$AAs?$AAd?$AAa?$AAy@ 004c51b8     libucrt:nlsdata.obj
 0002:0000b1c8       ??_C@_1BE@EBOGMDOH@?$AAW?$AAe?$AAd?$AAn?$AAe?$AAs?$AAd?$AAa?$AAy@ 004c51c8     libucrt:nlsdata.obj
 0002:0000b1dc       ??_C@_1BC@HHMNLIHE@?$AAT?$AAh?$AAu?$AAr?$AAs?$AAd?$AAa?$AAy@ 004c51dc     libucrt:nlsdata.obj
 0002:0000b1f0       ??_C@_1O@PDICJHAG@?$AAF?$AAr?$AAi?$AAd?$AAa?$AAy@ 004c51f0     libucrt:nlsdata.obj
 0002:0000b200       ??_C@_1BC@ENMNNPAJ@?$AAS?$AAa?$AAt?$AAu?$AAr?$AAd?$AAa?$AAy@ 004c5200     libucrt:nlsdata.obj
 0002:0000b214       ??_C@_17DKNBKCHM@?$AAJ?$AAa?$AAn@ 004c5214     libucrt:nlsdata.obj
 0002:0000b21c       ??_C@_17LMDJEKJN@?$AAF?$AAe?$AAb@ 004c521c     libucrt:nlsdata.obj
 0002:0000b224       ??_C@_17CKNLEDEC@?$AAM?$AAa?$AAr@ 004c5224     libucrt:nlsdata.obj
 0002:0000b22c       ??_C@_17LFPOIHDD@?$AAA?$AAp?$AAr@ 004c522c     libucrt:nlsdata.obj
 0002:0000b234       ??_C@_17PNNKMEED@?$AAM?$AAa?$AAy@ 004c5234     libucrt:nlsdata.obj
 0002:0000b23c       ??_C@_17KCJGOCPB@?$AAJ?$AAu?$AAn@ 004c523c     libucrt:nlsdata.obj
 0002:0000b244       ??_C@_17IJPCKHK@?$AAJ?$AAu?$AAl@ 004c5244     libucrt:nlsdata.obj
 0002:0000b24c       ??_C@_17ICPELBCN@?$AAA?$AAu?$AAg@ 004c524c     libucrt:nlsdata.obj
 0002:0000b254       ??_C@_17HCHCOKMG@?$AAS?$AAe?$AAp@ 004c5254     libucrt:nlsdata.obj
 0002:0000b25c       ??_C@_17FNLKOI@?$AAO?$AAc?$AAt@ 004c525c     libucrt:nlsdata.obj
 0002:0000b264       ??_C@_17BBDMLCIG@?$AAN?$AAo?$AAv@ 004c5264     libucrt:nlsdata.obj
 0002:0000b26c       ??_C@_17EGKACKIF@?$AAD?$AAe?$AAc@ 004c526c     libucrt:nlsdata.obj
 0002:0000b274       ??_C@_1BA@EFMEIEBA@?$AAJ?$AAa?$AAn?$AAu?$AAa?$AAr?$AAy@ 004c5274     libucrt:nlsdata.obj
 0002:0000b284       ??_C@_1BC@JGDDFFAM@?$AAF?$AAe?$AAb?$AAr?$AAu?$AAa?$AAr?$AAy@ 004c5284     libucrt:nlsdata.obj
 0002:0000b298       ??_C@_1M@IKEENEDF@?$AAM?$AAa?$AAr?$AAc?$AAh@ 004c5298     libucrt:nlsdata.obj
 0002:0000b2a4       ??_C@_1M@GJNLMHFD@?$AAA?$AAp?$AAr?$AAi?$AAl@ 004c52a4     libucrt:nlsdata.obj
 0002:0000b2b0       ??_C@_19EPFLPGAP@?$AAJ?$AAu?$AAn?$AAe@ 004c52b0     libucrt:nlsdata.obj
 0002:0000b2bc       ??_C@_19BIFMLPCD@?$AAJ?$AAu?$AAl?$AAy@ 004c52bc     libucrt:nlsdata.obj
 0002:0000b2c8       ??_C@_1O@PAHLKOAC@?$AAA?$AAu?$AAg?$AAu?$AAs?$AAt@ 004c52c8     libucrt:nlsdata.obj
 0002:0000b2d8       ??_C@_1BE@DKAAMBJL@?$AAS?$AAe?$AAp?$AAt?$AAe?$AAm?$AAb?$AAe?$AAr@ 004c52d8     libucrt:nlsdata.obj
 0002:0000b2ec       ??_C@_1BA@EPANDLNG@?$AAO?$AAc?$AAt?$AAo?$AAb?$AAe?$AAr@ 004c52ec     libucrt:nlsdata.obj
 0002:0000b2fc       ??_C@_1BC@BGLIFPF@?$AAN?$AAo?$AAv?$AAe?$AAm?$AAb?$AAe?$AAr@ 004c52fc     libucrt:nlsdata.obj
 0002:0000b310       ??_C@_1BC@FEMKIFH@?$AAD?$AAe?$AAc?$AAe?$AAm?$AAb?$AAe?$AAr@ 004c5310     libucrt:nlsdata.obj
 0002:0000b324       ??_C@_15ODEHAHHF@?$AAA?$AAM@ 004c5324     libucrt:nlsdata.obj
 0002:0000b32c       ??_C@_15CLMNNGEL@?$AAP?$AAM@ 004c532c     libucrt:nlsdata.obj
 0002:0000b334       ??_C@_1BC@IEBCMHCM@?$AAM?$AAM?$AA?1?$AAd?$AAd?$AA?1?$AAy?$AAy@ 004c5334     libucrt:nlsdata.obj
 0002:0000b348       ??_C@_1CI@KNAKOEBC@?$AAd?$AAd?$AAd?$AAd?$AA?0?$AA?5?$AAM?$AAM?$AAM?$AAM?$AA?5?$AAd?$AAd?$AA?0?$AA?5@ 004c5348     libucrt:nlsdata.obj
 0002:0000b370       ??_C@_1BC@GDGBMEMK@?$AAH?$AAH?$AA?3?$AAm?$AAm?$AA?3?$AAs?$AAs@ 004c5370     libucrt:nlsdata.obj
 0002:0000b384       ??_C@_1M@BMHNFIME@?$AAe?$AAn?$AA?9?$AAU?$AAS@ 004c5384     libucrt:nlsdata.obj
 0002:0000b3d0       ??_C@_03OEIAHPBN@INF@      004c53d0     libucrt:cvt.obj
 0002:0000b3d4       ??_C@_03OJHLLCGB@inf@      004c53d4     libucrt:cvt.obj
 0002:0000b3d8       ??_C@_03LKNCIKJB@NAN@      004c53d8     libucrt:cvt.obj
 0002:0000b3dc       ??_C@_03LHCJEHON@nan@      004c53dc     libucrt:cvt.obj
 0002:0000b3e0       ??_C@_09OFJJIMPC@NAN?$CISNAN?$CJ@ 004c53e0     libucrt:cvt.obj
 0002:0000b3ec       ??_C@_09IPFBKMDL@nan?$CIsnan?$CJ@ 004c53ec     libucrt:cvt.obj
 0002:0000b3f8       ??_C@_08IKHNHAJ@NAN?$CIIND?$CJ@ 004c53f8     libucrt:cvt.obj
 0002:0000b404       ??_C@_08OFCDMILK@nan?$CIind?$CJ@ 004c5404     libucrt:cvt.obj
 0002:0000b410       ??_C@_05KLBDPFGC@e?$CL000@ 004c5410     libucrt:cvt.obj
 0002:0000b418       ??_C@_15HNJCPLHL@?$AAT?$AAZ@ 004c5418     libucrt:tzset.obj
 0002:0000b478       ??_C@_1EA@JGEFHKEI@?$AAa?$AAp?$AAi?$AA?9?$AAm?$AAs?$AA?9?$AAw?$AAi?$AAn?$AA?9?$AAc?$AAo?$AAr?$AAe@ 004c5478     libucrt:winapi_thunks.obj
 0002:0000b4b8       ??_C@_1DI@KMEPCBPN@?$AAa?$AAp?$AAi?$AA?9?$AAm?$AAs?$AA?9?$AAw?$AAi?$AAn?$AA?9?$AAc?$AAo?$AAr?$AAe@ 004c54b8     libucrt:winapi_thunks.obj
 0002:0000b4f0       ??_C@_1DI@IJCEHOCB@?$AAa?$AAp?$AAi?$AA?9?$AAm?$AAs?$AA?9?$AAw?$AAi?$AAn?$AA?9?$AAc?$AAo?$AAr?$AAe@ 004c54f0     libucrt:winapi_thunks.obj
 0002:0000b528       ??_C@_1EI@MPIAOHOC@?$AAa?$AAp?$AAi?$AA?9?$AAm?$AAs?$AA?9?$AAw?$AAi?$AAn?$AA?9?$AAc?$AAo?$AAr?$AAe@ 004c5528     libucrt:winapi_thunks.obj
 0002:0000b570       ??_C@_1FK@FPHCKFIE@?$AAa?$AAp?$AAi?$AA?9?$AAm?$AAs?$AA?9?$AAw?$AAi?$AAn?$AA?9?$AAc?$AAo?$AAr?$AAe@ 004c5570     libucrt:winapi_thunks.obj
 0002:0000b5d0       ??_C@_1EM@DILCGIIO@?$AAa?$AAp?$AAi?$AA?9?$AAm?$AAs?$AA?9?$AAw?$AAi?$AAn?$AA?9?$AAc?$AAo?$AAr?$AAe@ 004c55d0     libucrt:winapi_thunks.obj
 0002:0000b61c       ??_C@_1DM@LNCGDDPN@?$AAa?$AAp?$AAi?$AA?9?$AAm?$AAs?$AA?9?$AAw?$AAi?$AAn?$AA?9?$AAc?$AAo?$AAr?$AAe@ 004c561c     libucrt:winapi_thunks.obj
 0002:0000b658       ??_C@_1DO@FPAPJEMD@?$AAa?$AAp?$AAi?$AA?9?$AAm?$AAs?$AA?9?$AAw?$AAi?$AAn?$AA?9?$AAc?$AAo?$AAr?$AAe@ 004c5658     libucrt:winapi_thunks.obj
 0002:0000b698       ??_C@_1DK@NDHNAHIO@?$AAa?$AAp?$AAi?$AA?9?$AAm?$AAs?$AA?9?$AAw?$AAi?$AAn?$AA?9?$AAc?$AAo?$AAr?$AAe@ 004c5698     libucrt:winapi_thunks.obj
 0002:0000b6d4       ??_C@_1DM@KGHDGBCM@?$AAa?$AAp?$AAi?$AA?9?$AAm?$AAs?$AA?9?$AAw?$AAi?$AAn?$AA?9?$AAc?$AAo?$AAr?$AAe@ 004c56d4     libucrt:winapi_thunks.obj
 0002:0000b710       ??_C@_1EO@IJIOEFOH@?$AAa?$AAp?$AAi?$AA?9?$AAm?$AAs?$AA?9?$AAw?$AAi?$AAn?$AA?9?$AAr?$AAt?$AAc?$AAo@ 004c5710     libucrt:winapi_thunks.obj
 0002:0000b760       ??_C@_1FG@HHGEKANL@?$AAa?$AAp?$AAi?$AA?9?$AAm?$AAs?$AA?9?$AAw?$AAi?$AAn?$AA?9?$AAs?$AAe?$AAc?$AAu@ 004c5760     libucrt:winapi_thunks.obj
 0002:0000b7b8       ??_C@_1EG@DBIOJECG@?$AAe?$AAx?$AAt?$AA?9?$AAm?$AAs?$AA?9?$AAw?$AAi?$AAn?$AA?9?$AAn?$AAt?$AAu?$AAs@ 004c57b8     libucrt:winapi_thunks.obj
 0002:0000b800       ??_C@_1EO@FIHMJCLF@?$AAe?$AAx?$AAt?$AA?9?$AAm?$AAs?$AA?9?$AAw?$AAi?$AAn?$AA?9?$AAn?$AAt?$AAu?$AAs@ 004c5800     libucrt:winapi_thunks.obj
 0002:0000b850       ??_C@_1BC@DNHGCMLG@?$AAa?$AAd?$AAv?$AAa?$AAp?$AAi?$AA3?$AA2@ 004c5850     libucrt:winapi_thunks.obj
 0002:0000b864       ??_C@_1BG@CJPGBMEF@?$AAk?$AAe?$AAr?$AAn?$AAe?$AAl?$AAb?$AAa?$AAs?$AAe@ 004c5864     libucrt:winapi_thunks.obj
 0002:0000b87c       ??_C@_1M@OAIMIKLP@?$AAn?$AAt?$AAd?$AAl?$AAl@ 004c587c     libucrt:winapi_thunks.obj
 0002:0000b888       ??_C@_1EG@DPGNFKGC@?$AAa?$AAp?$AAi?$AA?9?$AAm?$AAs?$AA?9?$AAw?$AAi?$AAn?$AA?9?$AAa?$AAp?$AAp?$AAm@ 004c5888     libucrt:winapi_thunks.obj
 0002:0000b8d0       ??_C@_1O@BCCLBEOE@?$AAu?$AAs?$AAe?$AAr?$AA3?$AA2@ 004c58d0     libucrt:winapi_thunks.obj
 0002:0000b8e0       ??_C@_1DM@BPJLHKCE@?$AAa?$AAp?$AAi?$AA?9?$AAm?$AAs?$AA?9?$AAw?$AAi?$AAn?$AA?9?$AAc?$AAo?$AAr?$AAe@ 004c58e0     libucrt:winapi_thunks.obj
 0002:0000b91c       ??_C@_1BA@IAIFMGEF@?$AAe?$AAx?$AAt?$AA?9?$AAm?$AAs?$AA?9@ 004c591c     libucrt:winapi_thunks.obj
 0002:0000b930       ??_C@_0BA@FHFNEAED@AreFileApisANSI@ 004c5930     libucrt:winapi_thunks.obj
 0002:0000b948       ??_C@_0BA@IHGNDAEB@CompareStringEx@ 004c5948     libucrt:winapi_thunks.obj
 0002:0000b960       ??_C@_0BE@LJANKFHF@EnumSystemLocalesEx@ 004c5960     libucrt:winapi_thunks.obj
 0002:0000b97c       ??_C@_0BA@EPCJIIPD@GetDateFormatEx@ 004c597c     libucrt:winapi_thunks.obj
 0002:0000b994       ??_C@_0BA@ONOKGCMP@GetLocaleInfoEx@ 004c5994     libucrt:winapi_thunks.obj
 0002:0000b9ac       ??_C@_0BA@CIJJKCJJ@GetTimeFormatEx@ 004c59ac     libucrt:winapi_thunks.obj
 0002:0000b9c4       ??_C@_0BJ@PBCCBIPI@GetUserDefaultLocaleName@ 004c59c4     libucrt:winapi_thunks.obj
 0002:0000b9f0       ??_C@_0BC@CELBKLLA@IsValidLocaleName@ 004c59f0     libucrt:winapi_thunks.obj
 0002:0000ba0c       ??_C@_0O@KKBNKAPF@LCMapStringEx@ 004c5a0c     libucrt:winapi_thunks.obj
 0002:0000ba24       ??_C@_0BB@CDHDDLLP@LCIDToLocaleName@ 004c5a24     libucrt:winapi_thunks.obj
 0002:0000ba40       ??_C@_0BB@HBDEELFH@LocaleNameToLCID@ 004c5a40     libucrt:winapi_thunks.obj
 0002:0000ba58       ??_C@_0CF@OJOFEIGO@AppPolicyGetProcessTerminationM@ 004c5a58     libucrt:winapi_thunks.obj
 0002:0000baa0       __d_inf                    004c5aa0     libucrt:util.obj
 0002:0000baa8       __d_max                    004c5aa8     libucrt:util.obj
 0002:0000bab0       __d_mzero                  004c5ab0     libucrt:util.obj
 0002:0000bae0       ___acrt_cos_sin_ctable     004c5ae0     libucrt:cos_sin_ctable.obj
 0002:0000c300       ___acrt_acos_asin_tbl_addr 004c6300     libucrt:acos_asin_tbl_addr.obj
 0002:0000d200       ___acrt_acos_asin_t_table  004c7200     libucrt:acos_asin_t_table.obj
 0002:0000da04       __half                     004c7a04     libucrt:pow_impl.obj
 0002:0000da10       ___acrt_pow_rcp_t1         004c7a10     libucrt:pow_tables.obj
 0002:0000de20       ___acrt_pow_log2_t1        004c7e20     libucrt:pow_tables.obj
 0002:0000e630       ___acrt_pow_rcp_t2         004c8630     libucrt:pow_tables.obj
 0002:0000ea40       ___acrt_pow_log2_t2        004c8a40     libucrt:pow_tables.obj
 0002:0000f250       ___acrt_pow_rcp_t3         004c9250     libucrt:pow_tables.obj
 0002:0000fa60       ___acrt_pow_log2_t3        004c9a60     libucrt:pow_tables.obj
 0002:00010a70       ___acrt_pow_clv            004caa70     libucrt:pow_tables.obj
 0002:00010a90       ___acrt_pow_exp2_tbl       004caa90     libucrt:pow_tables.obj
 0002:000112a0       ??_C@_1M@HPNHIDJI@?$AAj?$AAa?$AA?9?$AAJ?$AAP@ 004cb2a0     libucrt:mbctype.obj
 0002:000112ac       ??_C@_1M@BIBDDEMK@?$AAz?$AAh?$AA?9?$AAC?$AAN@ 004cb2ac     libucrt:mbctype.obj
 0002:000112b8       ??_C@_1M@JLOOOEGK@?$AAk?$AAo?$AA?9?$AAK?$AAR@ 004cb2b8     libucrt:mbctype.obj
 0002:000112c4       ??_C@_1M@CLNBBOPM@?$AAz?$AAh?$AA?9?$AAT?$AAW@ 004cb2c4     libucrt:mbctype.obj
 0002:000112d0       ___acrt_rg_language        004cb2d0     libucrt:get_qualified_locale.obj
 0002:000115dc       ___acrt_rg_language_count  004cb5dc     libucrt:get_qualified_locale.obj
 0002:000115e0       ___acrt_rg_country         004cb5e0     libucrt:get_qualified_locale.obj
 0002:000116f4       ___acrt_rg_country_count   004cb6f4     libucrt:get_qualified_locale.obj
 0002:000116f8       ??_C@_1BC@LLOKLNP@?$AAa?$AAm?$AAe?$AAr?$AAi?$AAc?$AAa?$AAn@ 004cb6f8     libucrt:get_qualified_locale.obj
 0002:0001170c       ??_C@_1CC@HEIGCDGG@?$AAa?$AAm?$AAe?$AAr?$AAi?$AAc?$AAa?$AAn?$AA?5?$AAe?$AAn?$AAg?$AAl?$AAi?$AAs@ 004cb70c     libucrt:get_qualified_locale.obj
 0002:00011730       ??_C@_1CC@IHCNOMIN@?$AAa?$AAm?$AAe?$AAr?$AAi?$AAc?$AAa?$AAn?$AA?9?$AAe?$AAn?$AAg?$AAl?$AAi?$AAs@ 004cb730     libucrt:get_qualified_locale.obj
 0002:00011754       ??_C@_1BG@GKAGPCGG@?$AAa?$AAu?$AAs?$AAt?$AAr?$AAa?$AAl?$AAi?$AAa?$AAn@ 004cb754     libucrt:get_qualified_locale.obj
 0002:0001176c       ??_C@_1BA@GMENCENF@?$AAb?$AAe?$AAl?$AAg?$AAi?$AAa?$AAn@ 004cb76c     libucrt:get_qualified_locale.obj
 0002:0001177c       ??_C@_1BC@PJMIIAAN@?$AAc?$AAa?$AAn?$AAa?$AAd?$AAi?$AAa?$AAn@ 004cb77c     libucrt:get_qualified_locale.obj
 0002:00011790       ??_C@_17NOIMNFBF@?$AAc?$AAh?$AAh@ 004cb790     libucrt:get_qualified_locale.obj
 0002:00011798       ??_C@_17GGDALCHA@?$AAc?$AAh?$AAi@ 004cb798     libucrt:get_qualified_locale.obj
 0002:000117a0       ??_C@_1BA@NPNJKIBL@?$AAc?$AAh?$AAi?$AAn?$AAe?$AAs?$AAe@ 004cb7a0     libucrt:get_qualified_locale.obj
 0002:000117b0       ??_C@_1CC@DINBAMMJ@?$AAc?$AAh?$AAi?$AAn?$AAe?$AAs?$AAe?$AA?9?$AAh?$AAo?$AAn?$AAg?$AAk?$AAo?$AAn@ 004cb7b0     libucrt:get_qualified_locale.obj
 0002:000117d4       ??_C@_1CG@IOBJPACO@?$AAc?$AAh?$AAi?$AAn?$AAe?$AAs?$AAe?$AA?9?$AAs?$AAi?$AAm?$AAp?$AAl?$AAi?$AAf@ 004cb7d4     libucrt:get_qualified_locale.obj
 0002:000117fc       ??_C@_1CE@GAJNDCKG@?$AAc?$AAh?$AAi?$AAn?$AAe?$AAs?$AAe?$AA?9?$AAs?$AAi?$AAn?$AAg?$AAa?$AAp?$AAo@ 004cb7fc     libucrt:get_qualified_locale.obj
 0002:00011820       ??_C@_1CI@PAJPIOOD@?$AAc?$AAh?$AAi?$AAn?$AAe?$AAs?$AAe?$AA?9?$AAt?$AAr?$AAa?$AAd?$AAi?$AAt?$AAi@ 004cb820     libucrt:get_qualified_locale.obj
 0002:00011848       ??_C@_1BM@NILJBMMD@?$AAd?$AAu?$AAt?$AAc?$AAh?$AA?9?$AAb?$AAe?$AAl?$AAg?$AAi?$AAa?$AAn@ 004cb848     libucrt:get_qualified_locale.obj
 0002:00011864       ??_C@_1CC@OOJPJNEJ@?$AAe?$AAn?$AAg?$AAl?$AAi?$AAs?$AAh?$AA?9?$AAa?$AAm?$AAe?$AAr?$AAi?$AAc?$AAa@ 004cb864     libucrt:get_qualified_locale.obj
 0002:00011888       ??_C@_1BI@IOLFEEM@?$AAe?$AAn?$AAg?$AAl?$AAi?$AAs?$AAh?$AA?9?$AAa?$AAu?$AAs@ 004cb888     libucrt:get_qualified_locale.obj
 0002:000118a0       ??_C@_1BO@HFFNLENJ@?$AAe?$AAn?$AAg?$AAl?$AAi?$AAs?$AAh?$AA?9?$AAb?$AAe?$AAl?$AAi?$AAz?$AAe@ 004cb8a0     libucrt:get_qualified_locale.obj
 0002:000118c0       ??_C@_1BI@HAPKJMPO@?$AAe?$AAn?$AAg?$AAl?$AAi?$AAs?$AAh?$AA?9?$AAc?$AAa?$AAn@ 004cb8c0     libucrt:get_qualified_locale.obj
 0002:000118d8       ??_C@_1CE@HLNDMIOJ@?$AAe?$AAn?$AAg?$AAl?$AAi?$AAs?$AAh?$AA?9?$AAc?$AAa?$AAr?$AAi?$AAb?$AAb?$AAe@ 004cb8d8     libucrt:get_qualified_locale.obj
 0002:000118fc       ??_C@_1BI@LDHJHHAC@?$AAe?$AAn?$AAg?$AAl?$AAi?$AAs?$AAh?$AA?9?$AAi?$AAr?$AAe@ 004cb8fc     libucrt:get_qualified_locale.obj
 0002:00011914       ??_C@_1CA@NJMMCFOC@?$AAe?$AAn?$AAg?$AAl?$AAi?$AAs?$AAh?$AA?9?$AAj?$AAa?$AAm?$AAa?$AAi?$AAc?$AAa@ 004cb914     libucrt:get_qualified_locale.obj
 0002:00011934       ??_C@_1BG@BHJEBBGG@?$AAe?$AAn?$AAg?$AAl?$AAi?$AAs?$AAh?$AA?9?$AAn?$AAz@ 004cb934     libucrt:get_qualified_locale.obj
 0002:0001194c       ??_C@_1CK@FGOEJJCO@?$AAe?$AAn?$AAg?$AAl?$AAi?$AAs?$AAh?$AA?9?$AAs?$AAo?$AAu?$AAt?$AAh?$AA?5?$AAa@ 004cb94c     libucrt:get_qualified_locale.obj
 0002:00011978       ??_C@_1DE@PDBJPCJ@?$AAe?$AAn?$AAg?$AAl?$AAi?$AAs?$AAh?$AA?9?$AAt?$AAr?$AAi?$AAn?$AAi?$AAd?$AAa@ 004cb978     libucrt:get_qualified_locale.obj
 0002:000119ac       ??_C@_1BG@JGCANDME@?$AAe?$AAn?$AAg?$AAl?$AAi?$AAs?$AAh?$AA?9?$AAu?$AAk@ 004cb9ac     libucrt:get_qualified_locale.obj
 0002:000119c4       ??_C@_1BG@DINKMLE@?$AAe?$AAn?$AAg?$AAl?$AAi?$AAs?$AAh?$AA?9?$AAu?$AAs@ 004cb9c4     libucrt:get_qualified_locale.obj
 0002:000119dc       ??_C@_1BI@NMFDBHJE@?$AAe?$AAn?$AAg?$AAl?$AAi?$AAs?$AAh?$AA?9?$AAu?$AAs?$AAa@ 004cb9dc     libucrt:get_qualified_locale.obj
 0002:000119f4       ??_C@_1BO@OIHKJKII@?$AAf?$AAr?$AAe?$AAn?$AAc?$AAh?$AA?9?$AAb?$AAe?$AAl?$AAg?$AAi?$AAa?$AAn@ 004cb9f4     libucrt:get_qualified_locale.obj
 0002:00011a14       ??_C@_1CA@NKAELJKI@?$AAf?$AAr?$AAe?$AAn?$AAc?$AAh?$AA?9?$AAc?$AAa?$AAn?$AAa?$AAd?$AAi?$AAa?$AAn@ 004cba14     libucrt:get_qualified_locale.obj
 0002:00011a34       ??_C@_1CE@MGKCNLGN@?$AAf?$AAr?$AAe?$AAn?$AAc?$AAh?$AA?9?$AAl?$AAu?$AAx?$AAe?$AAm?$AAb?$AAo?$AAu@ 004cba34     libucrt:get_qualified_locale.obj
 0002:00011a58       ??_C@_1BK@CEGEAILM@?$AAf?$AAr?$AAe?$AAn?$AAc?$AAh?$AA?9?$AAs?$AAw?$AAi?$AAs?$AAs@ 004cba58     libucrt:get_qualified_locale.obj
 0002:00011a74       ??_C@_1CA@PAFKEOCC@?$AAg?$AAe?$AAr?$AAm?$AAa?$AAn?$AA?9?$AAa?$AAu?$AAs?$AAt?$AAr?$AAi?$AAa?$AAn@ 004cba74     libucrt:get_qualified_locale.obj
 0002:00011a94       ??_C@_1CI@HCFHGOFD@?$AAg?$AAe?$AAr?$AAm?$AAa?$AAn?$AA?9?$AAl?$AAi?$AAc?$AAh?$AAt?$AAe?$AAn?$AAs@ 004cba94     libucrt:get_qualified_locale.obj
 0002:00011abc       ??_C@_1CE@FEDDNPDG@?$AAg?$AAe?$AAr?$AAm?$AAa?$AAn?$AA?9?$AAl?$AAu?$AAx?$AAe?$AAm?$AAb?$AAo?$AAu@ 004cbabc     libucrt:get_qualified_locale.obj
 0002:00011ae0       ??_C@_1BK@LIMINNMN@?$AAg?$AAe?$AAr?$AAm?$AAa?$AAn?$AA?9?$AAs?$AAw?$AAi?$AAs?$AAs@ 004cbae0     libucrt:get_qualified_locale.obj
 0002:00011afc       ??_C@_1BM@LGMDBEPD@?$AAi?$AAr?$AAi?$AAs?$AAh?$AA?9?$AAe?$AAn?$AAg?$AAl?$AAi?$AAs?$AAh@ 004cbafc     libucrt:get_qualified_locale.obj
 0002:00011b18       ??_C@_1BM@NNCFBAEE@?$AAi?$AAt?$AAa?$AAl?$AAi?$AAa?$AAn?$AA?9?$AAs?$AAw?$AAi?$AAs?$AAs@ 004cbb18     libucrt:get_qualified_locale.obj
 0002:00011b34       ??_C@_1BE@FEDJNPIB@?$AAn?$AAo?$AAr?$AAw?$AAe?$AAg?$AAi?$AAa?$AAn@ 004cbb34     libucrt:get_qualified_locale.obj
 0002:00011b48       ??_C@_1CC@CILKDEIE@?$AAn?$AAo?$AAr?$AAw?$AAe?$AAg?$AAi?$AAa?$AAn?$AA?9?$AAb?$AAo?$AAk?$AAm?$AAa@ 004cbb48     libucrt:get_qualified_locale.obj
 0002:00011b6c       ??_C@_1CE@DHMMHEPL@?$AAn?$AAo?$AAr?$AAw?$AAe?$AAg?$AAi?$AAa?$AAn?$AA?9?$AAn?$AAy?$AAn?$AAo?$AAr@ 004cbb6c     libucrt:get_qualified_locale.obj
 0002:00011b90       ??_C@_1CK@OPNMHECD@?$AAp?$AAo?$AAr?$AAt?$AAu?$AAg?$AAu?$AAe?$AAs?$AAe?$AA?9?$AAb?$AAr?$AAa?$AAz@ 004cbb90     libucrt:get_qualified_locale.obj
 0002:00011bbc       ??_C@_1CE@KEEHCDB@?$AAs?$AAp?$AAa?$AAn?$AAi?$AAs?$AAh?$AA?9?$AAa?$AAr?$AAg?$AAe?$AAn?$AAt?$AAi@ 004cbbbc     libucrt:get_qualified_locale.obj
 0002:00011be0       ??_C@_1CA@GIAOLHJD@?$AAs?$AAp?$AAa?$AAn?$AAi?$AAs?$AAh?$AA?9?$AAb?$AAo?$AAl?$AAi?$AAv?$AAi?$AAa@ 004cbbe0     libucrt:get_qualified_locale.obj
 0002:00011c00       ??_C@_1BM@OJNDFNPD@?$AAs?$AAp?$AAa?$AAn?$AAi?$AAs?$AAh?$AA?9?$AAc?$AAh?$AAi?$AAl?$AAe@ 004cbc00     libucrt:get_qualified_locale.obj
 0002:00011c1c       ??_C@_1CC@OCOLPALL@?$AAs?$AAp?$AAa?$AAn?$AAi?$AAs?$AAh?$AA?9?$AAc?$AAo?$AAl?$AAo?$AAm?$AAb?$AAi@ 004cbc1c     libucrt:get_qualified_locale.obj
 0002:00011c40       ??_C@_1CG@BPOFMKBB@?$AAs?$AAp?$AAa?$AAn?$AAi?$AAs?$AAh?$AA?9?$AAc?$AAo?$AAs?$AAt?$AAa?$AA?5?$AAr@ 004cbc40     libucrt:get_qualified_locale.obj
 0002:00011c68       ??_C@_1DG@IGOBAPBB@?$AAs?$AAp?$AAa?$AAn?$AAi?$AAs?$AAh?$AA?9?$AAd?$AAo?$AAm?$AAi?$AAn?$AAi?$AAc@ 004cbc68     libucrt:get_qualified_locale.obj
 0002:00011ca0       ??_C@_1CA@JHAPGEGI@?$AAs?$AAp?$AAa?$AAn?$AAi?$AAs?$AAh?$AA?9?$AAe?$AAc?$AAu?$AAa?$AAd?$AAo?$AAr@ 004cbca0     libucrt:get_qualified_locale.obj
 0002:00011cc0       ??_C@_1CI@LAPALJPP@?$AAs?$AAp?$AAa?$AAn?$AAi?$AAs?$AAh?$AA?9?$AAe?$AAl?$AA?5?$AAs?$AAa?$AAl?$AAv@ 004cbcc0     libucrt:get_qualified_locale.obj
 0002:00011ce8       ??_C@_1CE@PDGBOFOM@?$AAs?$AAp?$AAa?$AAn?$AAi?$AAs?$AAh?$AA?9?$AAg?$AAu?$AAa?$AAt?$AAe?$AAm?$AAa@ 004cbce8     libucrt:get_qualified_locale.obj
 0002:00011d0c       ??_C@_1CC@NBEBAODI@?$AAs?$AAp?$AAa?$AAn?$AAi?$AAs?$AAh?$AA?9?$AAh?$AAo?$AAn?$AAd?$AAu?$AAr?$AAa@ 004cbd0c     libucrt:get_qualified_locale.obj
 0002:00011d30       ??_C@_1CA@LLKGHBMF@?$AAs?$AAp?$AAa?$AAn?$AAi?$AAs?$AAh?$AA?9?$AAm?$AAe?$AAx?$AAi?$AAc?$AAa?$AAn@ 004cbd30     libucrt:get_qualified_locale.obj
 0002:00011d50       ??_C@_1BO@LKNDOIGD@?$AAs?$AAp?$AAa?$AAn?$AAi?$AAs?$AAh?$AA?9?$AAm?$AAo?$AAd?$AAe?$AAr?$AAn@ 004cbd50     libucrt:get_qualified_locale.obj
 0002:00011d70       ??_C@_1CE@NMDMOEEB@?$AAs?$AAp?$AAa?$AAn?$AAi?$AAs?$AAh?$AA?9?$AAn?$AAi?$AAc?$AAa?$AAr?$AAa?$AAg@ 004cbd70     libucrt:get_qualified_locale.obj
 0002:00011d94       ??_C@_1BO@LLCBEJGB@?$AAs?$AAp?$AAa?$AAn?$AAi?$AAs?$AAh?$AA?9?$AAp?$AAa?$AAn?$AAa?$AAm?$AAa@ 004cbd94     libucrt:get_qualified_locale.obj
 0002:00011db4       ??_C@_1CC@FKPGGIHO@?$AAs?$AAp?$AAa?$AAn?$AAi?$AAs?$AAh?$AA?9?$AAp?$AAa?$AAr?$AAa?$AAg?$AAu?$AAa@ 004cbdb4     libucrt:get_qualified_locale.obj
 0002:00011dd8       ??_C@_1BK@CDEIHOOP@?$AAs?$AAp?$AAa?$AAn?$AAi?$AAs?$AAh?$AA?9?$AAp?$AAe?$AAr?$AAu@ 004cbdd8     libucrt:get_qualified_locale.obj
 0002:00011df4       ??_C@_1CI@GAHAKKGP@?$AAs?$AAp?$AAa?$AAn?$AAi?$AAs?$AAh?$AA?9?$AAp?$AAu?$AAe?$AAr?$AAt?$AAo?$AA?5@ 004cbdf4     libucrt:get_qualified_locale.obj
 0002:00011e1c       ??_C@_1CA@NKJBCAGP@?$AAs?$AAp?$AAa?$AAn?$AAi?$AAs?$AAh?$AA?9?$AAu?$AAr?$AAu?$AAg?$AAu?$AAa?$AAy@ 004cbe1c     libucrt:get_qualified_locale.obj
 0002:00011e3c       ??_C@_1CE@ODILCONM@?$AAs?$AAp?$AAa?$AAn?$AAi?$AAs?$AAh?$AA?9?$AAv?$AAe?$AAn?$AAe?$AAz?$AAu?$AAe@ 004cbe3c     libucrt:get_qualified_locale.obj
 0002:00011e60       ??_C@_1CA@OBNMCGFO@?$AAs?$AAw?$AAe?$AAd?$AAi?$AAs?$AAh?$AA?9?$AAf?$AAi?$AAn?$AAl?$AAa?$AAn?$AAd@ 004cbe60     libucrt:get_qualified_locale.obj
 0002:00011e80       ??_C@_1M@PIPDDPPI@?$AAs?$AAw?$AAi?$AAs?$AAs@ 004cbe80     libucrt:get_qualified_locale.obj
 0002:00011e8c       ??_C@_15PJPFLCCM@?$AAu?$AAk@ 004cbe8c     libucrt:get_qualified_locale.obj
 0002:00011e94       ??_C@_15GMFIMNFM@?$AAu?$AAs@ 004cbe94     libucrt:get_qualified_locale.obj
 0002:00011e9c       ??_C@_17HAEBFAGL@?$AAu?$AAs?$AAa@ 004cbe9c     libucrt:get_qualified_locale.obj
 0002:00011ea4       ??_C@_1BA@DPFJEPHB@?$AAa?$AAm?$AAe?$AAr?$AAi?$AAc?$AAa@ 004cbea4     libucrt:get_qualified_locale.obj
 0002:00011eb4       ??_C@_1BA@ELOGGFK@?$AAb?$AAr?$AAi?$AAt?$AAa?$AAi?$AAn@ 004cbeb4     libucrt:get_qualified_locale.obj
 0002:00011ec4       ??_C@_1M@GHBGIGDA@?$AAc?$AAh?$AAi?$AAn?$AAa@ 004cbec4     libucrt:get_qualified_locale.obj
 0002:00011ed0       ??_C@_1M@NCHEJOPO@?$AAc?$AAz?$AAe?$AAc?$AAh@ 004cbed0     libucrt:get_qualified_locale.obj
 0002:00011edc       ??_C@_1BA@BKPAPBLA@?$AAe?$AAn?$AAg?$AAl?$AAa?$AAn?$AAd@ 004cbedc     libucrt:get_qualified_locale.obj
 0002:00011eec       ??_C@_1BM@HKBCKIPC@?$AAg?$AAr?$AAe?$AAa?$AAt?$AA?5?$AAb?$AAr?$AAi?$AAt?$AAa?$AAi?$AAn@ 004cbeec     libucrt:get_qualified_locale.obj
 0002:00011f08       ??_C@_1BA@PPCHPGJB@?$AAh?$AAo?$AAl?$AAl?$AAa?$AAn?$AAd@ 004cbf08     libucrt:get_qualified_locale.obj
 0002:00011f18       ??_C@_1BE@JBMPEGDG@?$AAh?$AAo?$AAn?$AAg?$AA?9?$AAk?$AAo?$AAn?$AAg@ 004cbf18     libucrt:get_qualified_locale.obj
 0002:00011f2c       ??_C@_1BI@KOELBBPJ@?$AAn?$AAe?$AAw?$AA?9?$AAz?$AAe?$AAa?$AAl?$AAa?$AAn?$AAd@ 004cbf2c     libucrt:get_qualified_locale.obj
 0002:00011f44       ??_C@_15HIEBHAIO@?$AAn?$AAz@ 004cbf44     libucrt:get_qualified_locale.obj
 0002:00011f4c       ??_C@_1BC@CHBCPFPI@?$AAp?$AAr?$AA?5?$AAc?$AAh?$AAi?$AAn?$AAa@ 004cbf4c     libucrt:get_qualified_locale.obj
 0002:00011f60       ??_C@_1BC@JAOIIFKD@?$AAp?$AAr?$AA?9?$AAc?$AAh?$AAi?$AAn?$AAa@ 004cbf60     libucrt:get_qualified_locale.obj
 0002:00011f74       ??_C@_1BI@BEHPPHKC@?$AAp?$AAu?$AAe?$AAr?$AAt?$AAo?$AA?9?$AAr?$AAi?$AAc?$AAo@ 004cbf74     libucrt:get_qualified_locale.obj
 0002:00011f8c       ??_C@_1O@PAEOFKDI@?$AAs?$AAl?$AAo?$AAv?$AAa?$AAk@ 004cbf8c     libucrt:get_qualified_locale.obj
 0002:00011f9c       ??_C@_1BK@FIHMCKAM@?$AAs?$AAo?$AAu?$AAt?$AAh?$AA?5?$AAa?$AAf?$AAr?$AAi?$AAc?$AAa@ 004cbf9c     libucrt:get_qualified_locale.obj
 0002:00011fb8       ??_C@_1BI@NAEOODKB@?$AAs?$AAo?$AAu?$AAt?$AAh?$AA?5?$AAk?$AAo?$AAr?$AAe?$AAa@ 004cbfb8     libucrt:get_qualified_locale.obj
 0002:00011fd0       ??_C@_1BK@FBDGGIFF@?$AAs?$AAo?$AAu?$AAt?$AAh?$AA?9?$AAa?$AAf?$AAr?$AAi?$AAc?$AAa@ 004cbfd0     libucrt:get_qualified_locale.obj
 0002:00011fec       ??_C@_1BI@GHLEJDPK@?$AAs?$AAo?$AAu?$AAt?$AAh?$AA?9?$AAk?$AAo?$AAr?$AAe?$AAa@ 004cbfec     libucrt:get_qualified_locale.obj
 0002:00012004       ??_C@_1CE@PLHLOMJF@?$AAt?$AAr?$AAi?$AAn?$AAi?$AAd?$AAa?$AAd?$AA?5?$AA?$CG?$AA?5?$AAt?$AAo?$AAb?$AAa@ 004cc004     libucrt:get_qualified_locale.obj
 0002:00012028       ??_C@_1BO@MODIMHHI@?$AAu?$AAn?$AAi?$AAt?$AAe?$AAd?$AA?9?$AAk?$AAi?$AAn?$AAg?$AAd?$AAo?$AAm@ 004cc028     libucrt:get_qualified_locale.obj
 0002:00012048       ??_C@_1BM@FFHJONBJ@?$AAu?$AAn?$AAi?$AAt?$AAe?$AAd?$AA?9?$AAs?$AAt?$AAa?$AAt?$AAe?$AAs@ 004cc048     libucrt:get_qualified_locale.obj
 0002:00012064       ??_C@_19MPDNHKDG@?$AAu?$AAt?$AAf?$AA8@ 004cc064     libucrt:get_qualified_locale.obj
 0002:00012070       ??_C@_17DNCLJFIF@?$AAA?$AAC?$AAP@ 004cc070     libucrt:get_qualified_locale.obj
 0002:00012078       ??_C@_1M@FPEIIFAM@?$AAu?$AAt?$AAf?$AA?9?$AA8@ 004cc078     libucrt:get_qualified_locale.obj
 0002:00012084       ??_C@_17CIKBIHLH@?$AAO?$AAC?$AAP@ 004cc084     libucrt:get_qualified_locale.obj
 0002:0001208c       ___rglangidNotDefault      004cc08c     libucrt:getqloc_downlevel.obj
 0002:000120a0       ??_C@_05DNEBIAHO@1?$CDINF@ 004cc0a0     libucrt:cfout.obj
 0002:000120a8       ??_C@_06IMKFLFPG@1?$CDQNAN@ 004cc0a8     libucrt:cfout.obj
 0002:000120b0       ??_C@_06PGGFOGJG@1?$CDSNAN@ 004cc0b0     libucrt:cfout.obj
 0002:000120b8       ??_C@_05PHHOCPM@1?$CDIND@  004cc0b8     libucrt:cfout.obj
 0002:000120c0       __days                     004cc0c0     libucrt:days.obj
 0002:000120f4       __lpdays                   004cc0f4     libucrt:days.obj
 0002:00012848       ??_C@_15EMKDOKLE@?$AAa?$AAr@ 004cc848     libucrt:lcidtoname_downlevel.obj
 0002:00012850       ??_C@_15KNPADPLH@?$AAb?$AAg@ 004cc850     libucrt:lcidtoname_downlevel.obj
 0002:00012858       ??_C@_15EDMHLDMO@?$AAc?$AAa@ 004cc858     libucrt:lcidtoname_downlevel.obj
 0002:00012860       ??_C@_1O@BPEAJADD@?$AAz?$AAh?$AA?9?$AAC?$AAH?$AAS@ 004cc860     libucrt:lcidtoname_downlevel.obj
 0002:00012870       ??_C@_15LJNHCMNK@?$AAc?$AAs@ 004cc870     libucrt:lcidtoname_downlevel.obj
 0002:00012878       ??_C@_15FOMCIDHG@?$AAd?$AAa@ 004cc878     libucrt:lcidtoname_downlevel.obj
 0002:00012880       ??_C@_15NBKABECB@?$AAd?$AAe@ 004cc880     libucrt:lcidtoname_downlevel.obj
 0002:00012888       ??_C@_15GHPEIIAO@?$AAe?$AAl@ 004cc888     libucrt:lcidtoname_downlevel.obj
 0002:00012890       ??_C@_15MNPNEAIF@?$AAe?$AAn@ 004cc890     libucrt:lcidtoname_downlevel.obj
 0002:00012898       ??_C@_15GPIOMPMH@?$AAe?$AAs@ 004cc898     libucrt:lcidtoname_downlevel.obj
 0002:000128a0       ??_C@_15NGLOAKJC@?$AAf?$AAi@ 004cc8a0     libucrt:lcidtoname_downlevel.obj
 0002:000128a8       ??_C@_15FBKGNKAM@?$AAf?$AAr@ 004cc8a8     libucrt:lcidtoname_downlevel.obj
 0002:000128b0       ??_C@_15KGGCNEFK@?$AAh?$AAe@ 004cc8b0     libucrt:lcidtoname_downlevel.obj
 0002:000128b8       ??_C@_15PGHLIDMF@?$AAh?$AAu@ 004cc8b8     libucrt:lcidtoname_downlevel.obj
 0002:000128c0       ??_C@_15BIEMAPLM@?$AAi?$AAs@ 004cc8c0     libucrt:lcidtoname_downlevel.obj
 0002:000128c8       ??_C@_15IFJLDHAF@?$AAi?$AAt@ 004cc8c8     libucrt:lcidtoname_downlevel.obj
 0002:000128d0       ??_C@_15GEMIOCAG@?$AAj?$AAa@ 004cc8d0     libucrt:lcidtoname_downlevel.obj
 0002:000128d8       ??_C@_15EPELEGJA@?$AAk?$AAo@ 004cc8d8     libucrt:lcidtoname_downlevel.obj
 0002:000128e0       ??_C@_15NDDHIMN@?$AAn?$AAl@ 004cc8e0     libucrt:lcidtoname_downlevel.obj
 0002:000128e8       ??_C@_15BPIGNHCD@?$AAn?$AAo@ 004cc8e8     libucrt:lcidtoname_downlevel.obj
 0002:000128f0       ??_C@_15DEOPBLCG@?$AAp?$AAl@ 004cc8f0     libucrt:lcidtoname_downlevel.obj
 0002:000128f8       ??_C@_15KBECGEFG@?$AAp?$AAt@ 004cc8f8     libucrt:lcidtoname_downlevel.obj
 0002:00012900       ??_C@_15GLJCBFMD@?$AAr?$AAo@ 004cc900     libucrt:lcidtoname_downlevel.obj
 0002:00012908       ??_C@_15FEDGKCDI@?$AAr?$AAu@ 004cc908     libucrt:lcidtoname_downlevel.obj
 0002:00012910       ??_C@_15GLKMLLHM@?$AAh?$AAr@ 004cc910     libucrt:lcidtoname_downlevel.obj
 0002:00012918       ??_C@_15CPKMFBDB@?$AAs?$AAk@ 004cc918     libucrt:lcidtoname_downlevel.obj
 0002:00012920       ??_C@_15BAAIOGMK@?$AAs?$AAq@ 004cc920     libucrt:lcidtoname_downlevel.obj
 0002:00012928       ??_C@_15INNPNOHD@?$AAs?$AAv@ 004cc928     libucrt:lcidtoname_downlevel.obj
 0002:00012930       ??_C@_15CABMMOGH@?$AAt?$AAh@ 004cc930     libucrt:lcidtoname_downlevel.obj
 0002:00012938       ??_C@_15BPLIHJJM@?$AAt?$AAr@ 004cc938     libucrt:lcidtoname_downlevel.obj
 0002:00012940       ??_C@_15NEOEKKDJ@?$AAu?$AAr@ 004cc940     libucrt:lcidtoname_downlevel.obj
 0002:00012948       ??_C@_15NFICGAJK@?$AAi?$AAd@ 004cc948     libucrt:lcidtoname_downlevel.obj
 0002:00012950       ??_C@_15HPJPHDM@?$AAb?$AAe@ 004cc950     libucrt:lcidtoname_downlevel.obj
 0002:00012958       ??_C@_15LCHLGJII@?$AAs?$AAl@ 004cc958     libucrt:lcidtoname_downlevel.obj
 0002:00012960       ??_C@_15PCFJPHHO@?$AAe?$AAt@ 004cc960     libucrt:lcidtoname_downlevel.obj
 0002:00012968       ??_C@_15HPFPGODN@?$AAl?$AAv@ 004cc968     libucrt:lcidtoname_downlevel.obj
 0002:00012970       ??_C@_15NFFGKGLG@?$AAl?$AAt@ 004cc970     libucrt:lcidtoname_downlevel.obj
 0002:00012978       ??_C@_15BDAKCCHN@?$AAf?$AAa@ 004cc978     libucrt:lcidtoname_downlevel.obj
 0002:00012980       ??_C@_15NFGIAIAJ@?$AAv?$AAi@ 004cc980     libucrt:lcidtoname_downlevel.obj
 0002:00012988       ??_C@_15LMKNDMHN@?$AAh?$AAy@ 004cc988     libucrt:lcidtoname_downlevel.obj
 0002:00012990       ??_C@_15IJBHMCFL@?$AAa?$AAz@ 004cc990     libucrt:lcidtoname_downlevel.obj
 0002:00012998       ??_C@_15EKOFJABL@?$AAe?$AAu@ 004cc998     libucrt:lcidtoname_downlevel.obj
 0002:000129a0       ??_C@_15BGHADCNK@?$AAm?$AAk@ 004cc9a0     libucrt:lcidtoname_downlevel.obj
 0002:000129a8       ??_C@_15JDNICKHM@?$AAa?$AAf@ 004cc9a8     libucrt:lcidtoname_downlevel.obj
 0002:000129b0       ??_C@_15KPJEDBKD@?$AAk?$AAa@ 004cc9b0     libucrt:lcidtoname_downlevel.obj
 0002:000129b8       ??_C@_15PDNFFFEO@?$AAf?$AAo@ 004cc9b8     libucrt:lcidtoname_downlevel.obj
 0002:000129c0       ??_C@_15OMLEGLOC@?$AAh?$AAi@ 004cc9c0     libucrt:lcidtoname_downlevel.obj
 0002:000129c8       ??_C@_15IDNNENKK@?$AAm?$AAs@ 004cc9c8     libucrt:lcidtoname_downlevel.obj
 0002:000129d0       ??_C@_15MACJNBMH@?$AAk?$AAk@ 004cc9d0     libucrt:lcidtoname_downlevel.obj
 0002:000129d8       ??_C@_15DKDJEOND@?$AAk?$AAy@ 004cc9d8     libucrt:lcidtoname_downlevel.obj
 0002:000129e0       ??_C@_15DFGDLJBG@?$AAs?$AAw@ 004cc9e0     libucrt:lcidtoname_downlevel.obj
 0002:000129e8       ??_C@_15BBFAICNG@?$AAu?$AAz@ 004cc9e8     libucrt:lcidtoname_downlevel.obj
 0002:000129f0       ??_C@_15DKNDCGEA@?$AAt?$AAt@ 004cc9f0     libucrt:lcidtoname_downlevel.obj
 0002:000129f8       ??_C@_15MGIFMDPL@?$AAp?$AAa@ 004cc9f8     libucrt:lcidtoname_downlevel.obj
 0002:00012a00       ??_C@_15HCNDBBA@?$AAg?$AAu@ 004cca00     libucrt:lcidtoname_downlevel.obj
 0002:00012a08       ??_C@_15FNBEIBON@?$AAt?$AAa@ 004cca08     libucrt:lcidtoname_downlevel.obj
 0002:00012a10       ??_C@_15NCHGBGLK@?$AAt?$AAe@ 004cca10     libucrt:lcidtoname_downlevel.obj
 0002:00012a18       ??_C@_15PHPHCBPF@?$AAk?$AAn@ 004cca18     libucrt:lcidtoname_downlevel.obj
 0002:00012a20       ??_C@_15DLGBCKMP@?$AAm?$AAr@ 004cca20     libucrt:lcidtoname_downlevel.obj
 0002:00012a28       ??_C@_15EABBLBFF@?$AAs?$AAa@ 004cca28     libucrt:lcidtoname_downlevel.obj
 0002:00012a30       ??_C@_15CBKOMCOI@?$AAm?$AAn@ 004cca30     libucrt:lcidtoname_downlevel.obj
 0002:00012a38       ??_C@_15CKDMCJAF@?$AAg?$AAl@ 004cca38     libucrt:lcidtoname_downlevel.obj
 0002:00012a40       ??_C@_17CNJFBPG@?$AAk?$AAo?$AAk@ 004cca40     libucrt:lcidtoname_downlevel.obj
 0002:00012a48       ??_C@_17FFBJICPL@?$AAs?$AAy?$AAr@ 004cca48     libucrt:lcidtoname_downlevel.obj
 0002:00012a50       ??_C@_17KPNDCPAF@?$AAd?$AAi?$AAv@ 004cca50     libucrt:lcidtoname_downlevel.obj
 0002:00012a58       ??_C@_1M@OKAHONE@?$AAa?$AAr?$AA?9?$AAS?$AAA@ 004cca58     libucrt:lcidtoname_downlevel.obj
 0002:00012a64       ??_C@_1M@FFFIGIGK@?$AAb?$AAg?$AA?9?$AAB?$AAG@ 004cca64     libucrt:lcidtoname_downlevel.obj
 0002:00012a70       ??_C@_1M@BJNKEDC@?$AAc?$AAa?$AA?9?$AAE?$AAS@ 004cca70     libucrt:lcidtoname_downlevel.obj
 0002:00012a7c       ??_C@_1M@IJJHFJHA@?$AAc?$AAs?$AA?9?$AAC?$AAZ@ 004cca7c     libucrt:lcidtoname_downlevel.obj
 0002:00012a88       ??_C@_1M@CLPEOBGI@?$AAd?$AAa?$AA?9?$AAD?$AAK@ 004cca88     libucrt:lcidtoname_downlevel.obj
 0002:00012a94       ??_C@_1M@MCMADGCB@?$AAd?$AAe?$AA?9?$AAD?$AAE@ 004cca94     libucrt:lcidtoname_downlevel.obj
 0002:00012aa0       ??_C@_1M@OOCKEMAM@?$AAe?$AAl?$AA?9?$AAG?$AAR@ 004ccaa0     libucrt:lcidtoname_downlevel.obj
 0002:00012aac       ??_C@_1M@DDNJFGID@?$AAf?$AAi?$AA?9?$AAF?$AAI@ 004ccaac     libucrt:lcidtoname_downlevel.obj
 0002:00012ab8       ??_C@_1M@GLIPPMAC@?$AAf?$AAr?$AA?9?$AAF?$AAR@ 004ccab8     libucrt:lcidtoname_downlevel.obj
 0002:00012ac4       ??_C@_1M@GFMCHPE@?$AAh?$AAe?$AA?9?$AAI?$AAL@ 004ccac4     libucrt:lcidtoname_downlevel.obj
 0002:00012ad0       ??_C@_1M@MHLPGNKM@?$AAh?$AAu?$AA?9?$AAH?$AAU@ 004ccad0     libucrt:lcidtoname_downlevel.obj
 0002:00012adc       ??_C@_1M@LPDDNNPN@?$AAi?$AAs?$AA?9?$AAI?$AAS@ 004ccadc     libucrt:lcidtoname_downlevel.obj
 0002:00012ae8       ??_C@_1M@MADIPODN@?$AAi?$AAt?$AA?9?$AAI?$AAT@ 004ccae8     libucrt:lcidtoname_downlevel.obj
 0002:00012af4       ??_C@_1M@IHBJJGG@?$AAn?$AAl?$AA?9?$AAN?$AAL@ 004ccaf4     libucrt:lcidtoname_downlevel.obj
 0002:00012b00       ??_C@_1M@EANAGDL@?$AAn?$AAb?$AA?9?$AAN?$AAO@ 004ccb00     libucrt:lcidtoname_downlevel.obj
 0002:00012b0c       ??_C@_1M@NEIEMEGP@?$AAp?$AAl?$AA?9?$AAP?$AAL@ 004ccb0c     libucrt:lcidtoname_downlevel.obj
 0002:00012b18       ??_C@_1M@BOCFIGEP@?$AAp?$AAt?$AA?9?$AAB?$AAR@ 004ccb18     libucrt:lcidtoname_downlevel.obj
 0002:00012b24       ??_C@_1M@IMPFOPBG@?$AAr?$AAo?$AA?9?$AAR?$AAO@ 004ccb24     libucrt:lcidtoname_downlevel.obj
 0002:00012b30       ??_C@_1M@IDNNEJMM@?$AAr?$AAu?$AA?9?$AAR?$AAU@ 004ccb30     libucrt:lcidtoname_downlevel.obj
 0002:00012b3c       ??_C@_1M@LILEEOGM@?$AAh?$AAr?$AA?9?$AAH?$AAR@ 004ccb3c     libucrt:lcidtoname_downlevel.obj
 0002:00012b48       ??_C@_1M@FKIFEHPB@?$AAs?$AAk?$AA?9?$AAS?$AAK@ 004ccb48     libucrt:lcidtoname_downlevel.obj
 0002:00012b54       ??_C@_1M@LJMAMNPJ@?$AAs?$AAq?$AA?9?$AAA?$AAL@ 004ccb54     libucrt:lcidtoname_downlevel.obj
 0002:00012b60       ??_C@_1M@GIAKDKJK@?$AAs?$AAv?$AA?9?$AAS?$AAE@ 004ccb60     libucrt:lcidtoname_downlevel.obj
 0002:00012b6c       ??_C@_1M@MKJKIKCL@?$AAt?$AAh?$AA?9?$AAT?$AAH@ 004ccb6c     libucrt:lcidtoname_downlevel.obj
 0002:00012b78       ??_C@_1M@MFLCCMPB@?$AAt?$AAr?$AA?9?$AAT?$AAR@ 004ccb78     libucrt:lcidtoname_downlevel.obj
 0002:00012b84       ??_C@_1M@OIJHDKJN@?$AAu?$AAr?$AA?9?$AAP?$AAK@ 004ccb84     libucrt:lcidtoname_downlevel.obj
 0002:00012b90       ??_C@_1M@LHIPCIEK@?$AAi?$AAd?$AA?9?$AAI?$AAD@ 004ccb90     libucrt:lcidtoname_downlevel.obj
 0002:00012b9c       ??_C@_1M@MFMOBGI@?$AAu?$AAk?$AA?9?$AAU?$AAA@ 004ccb9c     libucrt:lcidtoname_downlevel.obj
 0002:00012ba8       ??_C@_1M@OBGLJIPL@?$AAb?$AAe?$AA?9?$AAB?$AAY@ 004ccba8     libucrt:lcidtoname_downlevel.obj
 0002:00012bb4       ??_C@_1M@BCFAJEAD@?$AAs?$AAl?$AA?9?$AAS?$AAI@ 004ccbb4     libucrt:lcidtoname_downlevel.obj
 0002:00012bc0       ??_C@_1M@FKFFEDDN@?$AAe?$AAt?$AA?9?$AAE?$AAE@ 004ccbc0     libucrt:lcidtoname_downlevel.obj
 0002:00012bcc       ??_C@_1M@KGKKAACI@?$AAl?$AAv?$AA?9?$AAL?$AAV@ 004ccbcc     libucrt:lcidtoname_downlevel.obj
 0002:00012bd8       ??_C@_1M@IFGBIJO@?$AAl?$AAt?$AA?9?$AAL?$AAT@ 004ccbd8     libucrt:lcidtoname_downlevel.obj
 0002:00012be4       ??_C@_1M@FGEAHEDM@?$AAf?$AAa?$AA?9?$AAI?$AAR@ 004ccbe4     libucrt:lcidtoname_downlevel.obj
 0002:00012bf0       ??_C@_1M@KBMAIBFN@?$AAv?$AAi?$AA?9?$AAV?$AAN@ 004ccbf0     libucrt:lcidtoname_downlevel.obj
 0002:00012bfc       ??_C@_1M@GPCBKDJK@?$AAh?$AAy?$AA?9?$AAA?$AAM@ 004ccbfc     libucrt:lcidtoname_downlevel.obj
 0002:00012c08       ??_C@_1BG@BECMDDJB@?$AAa?$AAz?$AA?9?$AAA?$AAZ?$AA?9?$AAL?$AAa?$AAt?$AAn@ 004ccc08     libucrt:lcidtoname_downlevel.obj
 0002:00012c20       ??_C@_1M@MAOFCAEA@?$AAe?$AAu?$AA?9?$AAE?$AAS@ 004ccc20     libucrt:lcidtoname_downlevel.obj
 0002:00012c2c       ??_C@_1M@IGHABKPI@?$AAm?$AAk?$AA?9?$AAM?$AAK@ 004ccc2c     libucrt:lcidtoname_downlevel.obj
 0002:00012c38       ??_C@_1M@IAIGNEJG@?$AAt?$AAn?$AA?9?$AAZ?$AAA@ 004ccc38     libucrt:lcidtoname_downlevel.obj
 0002:00012c44       ??_C@_1M@IIJCOJFA@?$AAx?$AAh?$AA?9?$AAZ?$AAA@ 004ccc44     libucrt:lcidtoname_downlevel.obj
 0002:00012c50       ??_C@_1M@LGPJHNJH@?$AAz?$AAu?$AA?9?$AAZ?$AAA@ 004ccc50     libucrt:lcidtoname_downlevel.obj
 0002:00012c5c       ??_C@_1M@HOKAOIO@?$AAa?$AAf?$AA?9?$AAZ?$AAA@ 004ccc5c     libucrt:lcidtoname_downlevel.obj
 0002:00012c68       ??_C@_1M@DPCLHLIE@?$AAk?$AAa?$AA?9?$AAG?$AAE@ 004ccc68     libucrt:lcidtoname_downlevel.obj
 0002:00012c74       ??_C@_1M@BLKMHJBI@?$AAf?$AAo?$AA?9?$AAF?$AAO@ 004ccc74     libucrt:lcidtoname_downlevel.obj
 0002:00012c80       ??_C@_1M@LGGJAPPB@?$AAh?$AAi?$AA?9?$AAI?$AAN@ 004ccc80     libucrt:lcidtoname_downlevel.obj
 0002:00012c8c       ??_C@_1M@FIKPIHFE@?$AAm?$AAt?$AA?9?$AAM?$AAT@ 004ccc8c     libucrt:lcidtoname_downlevel.obj
 0002:00012c98       ??_C@_1M@HEGGPBFA@?$AAs?$AAe?$AA?9?$AAN?$AAO@ 004ccc98     libucrt:lcidtoname_downlevel.obj
 0002:00012ca4       ??_C@_1M@EIBJEEPA@?$AAm?$AAs?$AA?9?$AAM?$AAY@ 004ccca4     libucrt:lcidtoname_downlevel.obj
 0002:00012cb0       ??_C@_1M@FHLBGMPP@?$AAk?$AAk?$AA?9?$AAK?$AAZ@ 004cccb0     libucrt:lcidtoname_downlevel.obj
 0002:00012cbc       ??_C@_1M@NGJJLCGI@?$AAk?$AAy?$AA?9?$AAK?$AAG@ 004cccbc     libucrt:lcidtoname_downlevel.obj
 0002:00012cc8       ??_C@_1M@GIENNBFC@?$AAs?$AAw?$AA?9?$AAK?$AAE@ 004cccc8     libucrt:lcidtoname_downlevel.obj
 0002:00012cd4       ??_C@_1BG@NDGMJIMJ@?$AAu?$AAz?$AA?9?$AAU?$AAZ?$AA?9?$AAL?$AAa?$AAt?$AAn@ 004cccd4     libucrt:lcidtoname_downlevel.obj
 0002:00012cec       ??_C@_1M@IDCCIHBC@?$AAt?$AAt?$AA?9?$AAR?$AAU@ 004cccec     libucrt:lcidtoname_downlevel.obj
 0002:00012cf8       ??_C@_1M@LOICPMOJ@?$AAb?$AAn?$AA?9?$AAI?$AAN@ 004cccf8     libucrt:lcidtoname_downlevel.obj
 0002:00012d04       ??_C@_1M@KPKKNEAH@?$AAp?$AAa?$AA?9?$AAI?$AAN@ 004ccd04     libucrt:lcidtoname_downlevel.obj
 0002:00012d10       ??_C@_1M@PJGPPBOG@?$AAg?$AAu?$AA?9?$AAI?$AAN@ 004ccd10     libucrt:lcidtoname_downlevel.obj
 0002:00012d1c       ??_C@_1M@KMKMOPHI@?$AAt?$AAa?$AA?9?$AAI?$AAN@ 004ccd1c     libucrt:lcidtoname_downlevel.obj
 0002:00012d28       ??_C@_1M@KFEHEPAC@?$AAt?$AAe?$AA?9?$AAI?$AAN@ 004ccd28     libucrt:lcidtoname_downlevel.obj
 0002:00012d34       ??_C@_1M@CDCLMGHI@?$AAk?$AAn?$AA?9?$AAI?$AAN@ 004ccd34     libucrt:lcidtoname_downlevel.obj
 0002:00012d40       ??_C@_1M@MIODLDKF@?$AAm?$AAl?$AA?9?$AAI?$AAN@ 004ccd40     libucrt:lcidtoname_downlevel.obj
 0002:00012d4c       ??_C@_1M@PBIEACPO@?$AAm?$AAr?$AA?9?$AAI?$AAN@ 004ccd4c     libucrt:lcidtoname_downlevel.obj
 0002:00012d58       ??_C@_1M@NIDEAGPH@?$AAs?$AAa?$AA?9?$AAI?$AAN@ 004ccd58     libucrt:lcidtoname_downlevel.obj
 0002:00012d64       ??_C@_1M@FHIHCBIO@?$AAm?$AAn?$AA?9?$AAM?$AAN@ 004ccd64     libucrt:lcidtoname_downlevel.obj
 0002:00012d70       ??_C@_1M@JAIJPENP@?$AAc?$AAy?$AA?9?$AAG?$AAB@ 004ccd70     libucrt:lcidtoname_downlevel.obj
 0002:00012d7c       ??_C@_1M@PHGFBEPN@?$AAg?$AAl?$AA?9?$AAE?$AAS@ 004ccd7c     libucrt:lcidtoname_downlevel.obj
 0002:00012d88       ??_C@_1O@KPIPDNCP@?$AAk?$AAo?$AAk?$AA?9?$AAI?$AAN@ 004ccd88     libucrt:lcidtoname_downlevel.obj
 0002:00012d98       ??_C@_1O@KNHJLDJA@?$AAs?$AAy?$AAr?$AA?9?$AAS?$AAY@ 004ccd98     libucrt:lcidtoname_downlevel.obj
 0002:00012da8       ??_C@_1O@MKEKBLAH@?$AAd?$AAi?$AAv?$AA?9?$AAM?$AAV@ 004ccda8     libucrt:lcidtoname_downlevel.obj
 0002:00012db8       ??_C@_1O@OHDCKDDF@?$AAq?$AAu?$AAz?$AA?9?$AAB?$AAO@ 004ccdb8     libucrt:lcidtoname_downlevel.obj
 0002:00012dc8       ??_C@_1M@LEPJNLFD@?$AAn?$AAs?$AA?9?$AAZ?$AAA@ 004ccdc8     libucrt:lcidtoname_downlevel.obj
 0002:00012dd4       ??_C@_1M@OMLEIIJB@?$AAm?$AAi?$AA?9?$AAN?$AAZ@ 004ccdd4     libucrt:lcidtoname_downlevel.obj
 0002:00012de0       ??_C@_1M@PMPEAILG@?$AAa?$AAr?$AA?9?$AAI?$AAQ@ 004ccde0     libucrt:lcidtoname_downlevel.obj
 0002:00012dec       ??_C@_1M@CNKPNOEE@?$AAd?$AAe?$AA?9?$AAC?$AAH@ 004ccdec     libucrt:lcidtoname_downlevel.obj
 0002:00012df8       ??_C@_1M@LKMGMLKO@?$AAe?$AAn?$AA?9?$AAG?$AAB@ 004ccdf8     libucrt:lcidtoname_downlevel.obj
 0002:00012e04       ??_C@_1M@PGKJFFGL@?$AAe?$AAs?$AA?9?$AAM?$AAX@ 004cce04     libucrt:lcidtoname_downlevel.obj
 0002:00012e10       ??_C@_1M@DNNANBDC@?$AAf?$AAr?$AA?9?$AAB?$AAE@ 004cce10     libucrt:lcidtoname_downlevel.obj
 0002:00012e1c       ??_C@_1M@HLGMDFHM@?$AAi?$AAt?$AA?9?$AAC?$AAH@ 004cce1c     libucrt:lcidtoname_downlevel.obj
 0002:00012e28       ??_C@_1M@CLLBGJH@?$AAn?$AAl?$AA?9?$AAB?$AAE@ 004cce28     libucrt:lcidtoname_downlevel.obj
 0002:00012e34       ??_C@_1M@BODBOGLF@?$AAn?$AAn?$AA?9?$AAN?$AAO@ 004cce34     libucrt:lcidtoname_downlevel.obj
 0002:00012e40       ??_C@_1M@HFFAHKAD@?$AAp?$AAt?$AA?9?$AAP?$AAT@ 004cce40     libucrt:lcidtoname_downlevel.obj
 0002:00012e4c       ??_C@_1BG@LNOAKHIE@?$AAs?$AAr?$AA?9?$AAS?$AAP?$AA?9?$AAL?$AAa?$AAt?$AAn@ 004cce4c     libucrt:lcidtoname_downlevel.obj
 0002:00012e64       ??_C@_1M@HBMHBGAK@?$AAs?$AAv?$AA?9?$AAF?$AAI@ 004cce64     libucrt:lcidtoname_downlevel.obj
 0002:00012e70       ??_C@_1BG@DGCJGJBE@?$AAa?$AAz?$AA?9?$AAA?$AAZ?$AA?9?$AAC?$AAy?$AAr?$AAl@ 004cce70     libucrt:lcidtoname_downlevel.obj
 0002:00012e88       ??_C@_1M@KEJDAAHB@?$AAs?$AAe?$AA?9?$AAS?$AAE@ 004cce88     libucrt:lcidtoname_downlevel.obj
 0002:00012e94       ??_C@_1M@HEIBJJAD@?$AAm?$AAs?$AA?9?$AAB?$AAN@ 004cce94     libucrt:lcidtoname_downlevel.obj
 0002:00012ea0       ??_C@_1BG@PBGJMCEM@?$AAu?$AAz?$AA?9?$AAU?$AAZ?$AA?9?$AAC?$AAy?$AAr?$AAl@ 004ccea0     libucrt:lcidtoname_downlevel.obj
 0002:00012eb8       ??_C@_1O@LAOBCMDF@?$AAq?$AAu?$AAz?$AA?9?$AAE?$AAC@ 004cceb8     libucrt:lcidtoname_downlevel.obj
 0002:00012ec8       ??_C@_1M@POEEMAIO@?$AAa?$AAr?$AA?9?$AAE?$AAG@ 004ccec8     libucrt:lcidtoname_downlevel.obj
 0002:00012ed4       ??_C@_1M@EFAKDEDL@?$AAz?$AAh?$AA?9?$AAH?$AAK@ 004cced4     libucrt:lcidtoname_downlevel.obj
 0002:00012ee0       ??_C@_1M@HKKIJHGI@?$AAd?$AAe?$AA?9?$AAA?$AAT@ 004ccee0     libucrt:lcidtoname_downlevel.obj
 0002:00012eec       ??_C@_1M@KBFBEHJF@?$AAe?$AAn?$AA?9?$AAA?$AAU@ 004cceec     libucrt:lcidtoname_downlevel.obj
 0002:00012ef8       ??_C@_1M@MNPLFAAH@?$AAe?$AAs?$AA?9?$AAE?$AAS@ 004ccef8     libucrt:lcidtoname_downlevel.obj
 0002:00012f04       ??_C@_1M@HJOOJFMA@?$AAf?$AAr?$AA?9?$AAC?$AAA@ 004ccf04     libucrt:lcidtoname_downlevel.obj
 0002:00012f10       ??_C@_1BG@JPOFPNAB@?$AAs?$AAr?$AA?9?$AAS?$AAP?$AA?9?$AAC?$AAy?$AAr?$AAl@ 004ccf10     libucrt:lcidtoname_downlevel.obj
 0002:00012f28       ??_C@_1M@LNFOCMOB@?$AAs?$AAe?$AA?9?$AAF?$AAI@ 004ccf28     libucrt:lcidtoname_downlevel.obj
 0002:00012f34       ??_C@_1O@MGJBOAMB@?$AAq?$AAu?$AAz?$AA?9?$AAP?$AAE@ 004ccf34     libucrt:lcidtoname_downlevel.obj
 0002:00012f44       ??_C@_1M@GJINLBOK@?$AAa?$AAr?$AA?9?$AAL?$AAY@ 004ccf44     libucrt:lcidtoname_downlevel.obj
 0002:00012f50       ??_C@_1M@GGMNHJNL@?$AAz?$AAh?$AA?9?$AAS?$AAG@ 004ccf50     libucrt:lcidtoname_downlevel.obj
 0002:00012f5c       ??_C@_1M@HOIKODND@?$AAd?$AAe?$AA?9?$AAL?$AAU@ 004ccf5c     libucrt:lcidtoname_downlevel.obj
 0002:00012f68       ??_C@_1M@DDOCCGFG@?$AAe?$AAn?$AA?9?$AAC?$AAA@ 004ccf68     libucrt:lcidtoname_downlevel.obj
 0002:00012f74       ??_C@_1M@BNOEMJLF@?$AAe?$AAs?$AA?9?$AAG?$AAT@ 004ccf74     libucrt:lcidtoname_downlevel.obj
 0002:00012f80       ??_C@_1M@EOGNKEK@?$AAf?$AAr?$AA?9?$AAC?$AAH@ 004ccf80     libucrt:lcidtoname_downlevel.obj
 0002:00012f8c       ??_C@_1M@FLIDJFHL@?$AAh?$AAr?$AA?9?$AAB?$AAA@ 004ccf8c     libucrt:lcidtoname_downlevel.obj
 0002:00012f98       ??_C@_1O@FMCELNAJ@?$AAs?$AAm?$AAj?$AA?9?$AAN?$AAO@ 004ccf98     libucrt:lcidtoname_downlevel.obj
 0002:00012fa8       ??_C@_1M@JHGLJMGJ@?$AAa?$AAr?$AA?9?$AAD?$AAZ@ 004ccfa8     libucrt:lcidtoname_downlevel.obj
 0002:00012fb4       ??_C@_1M@JKKFDCNP@?$AAz?$AAh?$AA?9?$AAM?$AAO@ 004ccfb4     libucrt:lcidtoname_downlevel.obj
 0002:00012fc0       ??_C@_1M@GEEFALPE@?$AAd?$AAe?$AA?9?$AAL?$AAI@ 004ccfc0     libucrt:lcidtoname_downlevel.obj
 0002:00012fcc       ??_C@_1M@IGEOFBG@?$AAe?$AAn?$AA?9?$AAN?$AAZ@ 004ccfcc     libucrt:lcidtoname_downlevel.obj
 0002:00012fd8       ??_C@_1M@KDBONEHP@?$AAe?$AAs?$AA?9?$AAC?$AAR@ 004ccfd8     libucrt:lcidtoname_downlevel.obj
 0002:00012fe4       ??_C@_1M@FHMDOHNN@?$AAf?$AAr?$AA?9?$AAL?$AAU@ 004ccfe4     libucrt:lcidtoname_downlevel.obj
 0002:00012ff0       ??_C@_1BG@NFKKMAFG@?$AAb?$AAs?$AA?9?$AAB?$AAA?$AA?9?$AAL?$AAa?$AAt?$AAn@ 004ccff0     libucrt:lcidtoname_downlevel.obj
 0002:00013008       ??_C@_1O@IMNBEMCI@?$AAs?$AAm?$AAj?$AA?9?$AAS?$AAE@ 004cd008     libucrt:lcidtoname_downlevel.obj
 0002:00013018       ??_C@_1M@DHHMBNDP@?$AAa?$AAr?$AA?9?$AAM?$AAA@ 004cd018     libucrt:lcidtoname_downlevel.obj
 0002:00013024       ??_C@_1M@BNBLJCGH@?$AAe?$AAn?$AA?9?$AAI?$AAE@ 004cd024     libucrt:lcidtoname_downlevel.obj
 0002:00013030       ??_C@_1M@GEPAFMDL@?$AAe?$AAs?$AA?9?$AAP?$AAA@ 004cd030     libucrt:lcidtoname_downlevel.obj
 0002:0001303c       ??_C@_1M@OJONDMDL@?$AAf?$AAr?$AA?9?$AAM?$AAC@ 004cd03c     libucrt:lcidtoname_downlevel.obj
 0002:00013048       ??_C@_1BG@OBCNFJB@?$AAs?$AAr?$AA?9?$AAB?$AAA?$AA?9?$AAL?$AAa?$AAt?$AAn@ 004cd048     libucrt:lcidtoname_downlevel.obj
 0002:00013060       ??_C@_1O@KEMEEGPO@?$AAs?$AAm?$AAa?$AA?9?$AAN?$AAO@ 004cd060     libucrt:lcidtoname_downlevel.obj
 0002:00013070       ??_C@_1M@ELMGFODK@?$AAa?$AAr?$AA?9?$AAT?$AAN@ 004cd070     libucrt:lcidtoname_downlevel.obj
 0002:0001307c       ??_C@_1M@BHDLHFAF@?$AAe?$AAn?$AA?9?$AAZ?$AAA@ 004cd07c     libucrt:lcidtoname_downlevel.obj
 0002:00013088       ??_C@_1M@BMGIGLIF@?$AAe?$AAs?$AA?9?$AAD?$AAO@ 004cd088     libucrt:lcidtoname_downlevel.obj
 0002:00013094       ??_C@_1BG@CMBHIPBE@?$AAs?$AAr?$AA?9?$AAB?$AAA?$AA?9?$AAC?$AAy?$AAr?$AAl@ 004cd094     libucrt:lcidtoname_downlevel.obj
 0002:000130ac       ??_C@_1O@HEDBLHNP@?$AAs?$AAm?$AAa?$AA?9?$AAS?$AAE@ 004cd0ac     libucrt:lcidtoname_downlevel.obj
 0002:000130bc       ??_C@_1M@DAGCADIM@?$AAa?$AAr?$AA?9?$AAO?$AAM@ 004cd0bc     libucrt:lcidtoname_downlevel.obj
 0002:000130c8       ??_C@_1M@FODLMICG@?$AAe?$AAn?$AA?9?$AAJ?$AAM@ 004cd0c8     libucrt:lcidtoname_downlevel.obj
 0002:000130d4       ??_C@_1M@DNMLCIHB@?$AAe?$AAs?$AA?9?$AAV?$AAE@ 004cd0d4     libucrt:lcidtoname_downlevel.obj
 0002:000130e0       ??_C@_1O@EOKHMKJK@?$AAs?$AAm?$AAs?$AA?9?$AAF?$AAI@ 004cd0e0     libucrt:lcidtoname_downlevel.obj
 0002:000130f0       ??_C@_1M@CAFJMKOF@?$AAa?$AAr?$AA?9?$AAY?$AAE@ 004cd0f0     libucrt:lcidtoname_downlevel.obj
 0002:000130fc       ??_C@_1M@CBFHIJLI@?$AAe?$AAn?$AA?9?$AAC?$AAB@ 004cd0fc     libucrt:lcidtoname_downlevel.obj
 0002:00013108       ??_C@_1M@BGNFLDN@?$AAe?$AAs?$AA?9?$AAC?$AAO@ 004cd108     libucrt:lcidtoname_downlevel.obj
 0002:00013114       ??_C@_1O@JMPHMAMC@?$AAs?$AAm?$AAn?$AA?9?$AAF?$AAI@ 004cd114     libucrt:lcidtoname_downlevel.obj
 0002:00013124       ??_C@_1M@JLANABKE@?$AAa?$AAr?$AA?9?$AAS?$AAY@ 004cd124     libucrt:lcidtoname_downlevel.obj
 0002:00013130       ??_C@_1M@HPKGCFGN@?$AAe?$AAn?$AA?9?$AAB?$AAZ@ 004cd130     libucrt:lcidtoname_downlevel.obj
 0002:0001313c       ??_C@_1M@OLJCMLGM@?$AAe?$AAs?$AA?9?$AAP?$AAE@ 004cd13c     libucrt:lcidtoname_downlevel.obj
 0002:00013148       ??_C@_1M@MKKGFKLE@?$AAa?$AAr?$AA?9?$AAJ?$AAO@ 004cd148     libucrt:lcidtoname_downlevel.obj
 0002:00013154       ??_C@_1M@EKPGLDNI@?$AAe?$AAn?$AA?9?$AAT?$AAT@ 004cd154     libucrt:lcidtoname_downlevel.obj
 0002:00013160       ??_C@_1M@OONGHFHE@?$AAe?$AAs?$AA?9?$AAA?$AAR@ 004cd160     libucrt:lcidtoname_downlevel.obj
 0002:0001316c       ??_C@_1M@OOJFGBHE@?$AAa?$AAr?$AA?9?$AAL?$AAB@ 004cd16c     libucrt:lcidtoname_downlevel.obj
 0002:00013178       ??_C@_1M@GCEJHNEG@?$AAe?$AAn?$AA?9?$AAZ?$AAW@ 004cd178     libucrt:lcidtoname_downlevel.obj
 0002:00013184       ??_C@_1M@JNOCAHJI@?$AAe?$AAs?$AA?9?$AAE?$AAC@ 004cd184     libucrt:lcidtoname_downlevel.obj
 0002:00013190       ??_C@_1M@JEFHPGGB@?$AAa?$AAr?$AA?9?$AAK?$AAW@ 004cd190     libucrt:lcidtoname_downlevel.obj
 0002:0001319c       ??_C@_1M@MLKIBJOJ@?$AAe?$AAn?$AA?9?$AAP?$AAH@ 004cd19c     libucrt:lcidtoname_downlevel.obj
 0002:000131a8       ??_C@_1M@BDNIPEND@?$AAe?$AAs?$AA?9?$AAC?$AAL@ 004cd1a8     libucrt:lcidtoname_downlevel.obj
 0002:000131b4       ??_C@_1M@MPNMEKBD@?$AAa?$AAr?$AA?9?$AAA?$AAE@ 004cd1b4     libucrt:lcidtoname_downlevel.obj
 0002:000131c0       ??_C@_1M@KBJALCPI@?$AAe?$AAs?$AA?9?$AAU?$AAY@ 004cd1c0     libucrt:lcidtoname_downlevel.obj
 0002:000131cc       ??_C@_1M@LLCCOAGA@?$AAa?$AAr?$AA?9?$AAB?$AAH@ 004cd1cc     libucrt:lcidtoname_downlevel.obj
 0002:000131d8       ??_C@_1M@PBFNCDEL@?$AAe?$AAs?$AA?9?$AAP?$AAY@ 004cd1d8     libucrt:lcidtoname_downlevel.obj
 0002:000131e4       ??_C@_1M@EDGINPNP@?$AAa?$AAr?$AA?9?$AAQ?$AAA@ 004cd1e4     libucrt:lcidtoname_downlevel.obj
 0002:000131f0       ??_C@_1M@MKDBIIJI@?$AAe?$AAs?$AA?9?$AAB?$AAO@ 004cd1f0     libucrt:lcidtoname_downlevel.obj
 0002:000131fc       ??_C@_1M@CPKKEBLD@?$AAe?$AAs?$AA?9?$AAS?$AAV@ 004cd1fc     libucrt:lcidtoname_downlevel.obj
 0002:00013208       ??_C@_1M@NDBGMMJL@?$AAe?$AAs?$AA?9?$AAH?$AAN@ 004cd208     libucrt:lcidtoname_downlevel.obj
 0002:00013214       ??_C@_1M@JIJIBHDP@?$AAe?$AAs?$AA?9?$AAN?$AAI@ 004cd214     libucrt:lcidtoname_downlevel.obj
 0002:00013220       ??_C@_1M@CGFMKEEK@?$AAe?$AAs?$AA?9?$AAP?$AAR@ 004cd220     libucrt:lcidtoname_downlevel.obj
 0002:0001322c       ??_C@_1O@ICJHKIIK@?$AAz?$AAh?$AA?9?$AAC?$AAH?$AAT@ 004cd22c     libucrt:lcidtoname_downlevel.obj
 0002:0001323c       ??_C@_15CLNEJCE@?$AAs?$AAr@ 004cd23c     libucrt:lcidtoname_downlevel.obj
 0002:00013968       ??_C@_1M@KAHEKEIG@?$AAa?$AAf?$AA?9?$AAz?$AAa@ 004cd968     libucrt:lcidtoname_downlevel.obj
 0002:00013974       ??_C@_1M@GIECOABL@?$AAa?$AAr?$AA?9?$AAa?$AAe@ 004cd974     libucrt:lcidtoname_downlevel.obj
 0002:00013980       ??_C@_1M@BMLMEKGI@?$AAa?$AAr?$AA?9?$AAb?$AAh@ 004cd980     libucrt:lcidtoname_downlevel.obj
 0002:0001398c       ??_C@_1M@DAPFDGGB@?$AAa?$AAr?$AA?9?$AAd?$AAz@ 004cd98c     libucrt:lcidtoname_downlevel.obj
 0002:00013998       ??_C@_1M@FJNKGKIG@?$AAa?$AAr?$AA?9?$AAe?$AAg@ 004cd998     libucrt:lcidtoname_downlevel.obj
 0002:000139a4       ??_C@_1M@FLGKKCLO@?$AAa?$AAr?$AA?9?$AAi?$AAq@ 004cd9a4     libucrt:lcidtoname_downlevel.obj
 0002:000139b0       ??_C@_1M@GNDIPALM@?$AAa?$AAr?$AA?9?$AAj?$AAo@ 004cd9b0     libucrt:lcidtoname_downlevel.obj
 0002:000139bc       ??_C@_1M@DDMJFMGJ@?$AAa?$AAr?$AA?9?$AAk?$AAw@ 004cd9bc     libucrt:lcidtoname_downlevel.obj
 0002:000139c8       ??_C@_1M@EJALMLHM@?$AAa?$AAr?$AA?9?$AAl?$AAb@ 004cd9c8     libucrt:lcidtoname_downlevel.obj
 0002:000139d4       ??_C@_1M@MOBDBLOC@?$AAa?$AAr?$AA?9?$AAl?$AAy@ 004cd9d4     libucrt:lcidtoname_downlevel.obj
 0002:000139e0       ??_C@_1M@JAOCLHDH@?$AAa?$AAr?$AA?9?$AAm?$AAa@ 004cd9e0     libucrt:lcidtoname_downlevel.obj
 0002:000139ec       ??_C@_1M@JHPMKJIE@?$AAa?$AAr?$AA?9?$AAo?$AAm@ 004cd9ec     libucrt:lcidtoname_downlevel.obj
 0002:000139f8       ??_C@_1M@OEPGHFNH@?$AAa?$AAr?$AA?9?$AAq?$AAa@ 004cd9f8     libucrt:lcidtoname_downlevel.obj
 0002:00013a04       ??_C@_1M@KJDONENM@?$AAa?$AAr?$AA?9?$AAs?$AAa@ 004cda04     libucrt:lcidtoname_downlevel.obj
 0002:00013a10       ??_C@_1M@DMJDKLKM@?$AAa?$AAr?$AA?9?$AAs?$AAy@ 004cda10     libucrt:lcidtoname_downlevel.obj
 0002:00013a1c       ??_C@_1M@OMFIPEDC@?$AAa?$AAr?$AA?9?$AAt?$AAn@ 004cda1c     libucrt:lcidtoname_downlevel.obj
 0002:00013a28       ??_C@_1M@IHMHGAON@?$AAa?$AAr?$AA?9?$AAy?$AAe@ 004cda28     libucrt:lcidtoname_downlevel.obj
 0002:00013a34       ??_C@_1BG@KDCPGJGB@?$AAa?$AAz?$AA?9?$AAa?$AAz?$AA?9?$AAc?$AAy?$AAr?$AAl@ 004cda34     libucrt:lcidtoname_downlevel.obj
 0002:00013a4c       ??_C@_1BG@IBCKDDOE@?$AAa?$AAz?$AA?9?$AAa?$AAz?$AA?9?$AAl?$AAa?$AAt?$AAn@ 004cda4c     libucrt:lcidtoname_downlevel.obj
 0002:00013a64       ??_C@_1M@EGPFDCPD@?$AAb?$AAe?$AA?9?$AAb?$AAy@ 004cda64     libucrt:lcidtoname_downlevel.obj
 0002:00013a70       ??_C@_1M@PCMGMCGC@?$AAb?$AAg?$AA?9?$AAb?$AAg@ 004cda70     libucrt:lcidtoname_downlevel.obj
 0002:00013a7c       ??_C@_1M@BJBMFGOB@?$AAb?$AAn?$AA?9?$AAi?$AAn@ 004cda7c     libucrt:lcidtoname_downlevel.obj
 0002:00013a88       ??_C@_1BG@EAKMMACD@?$AAb?$AAs?$AA?9?$AAb?$AAa?$AA?9?$AAl?$AAa?$AAt?$AAn@ 004cda88     libucrt:lcidtoname_downlevel.obj
 0002:00013aa0       ??_C@_1M@KGADAODK@?$AAc?$AAa?$AA?9?$AAe?$AAs@ 004cdaa0     libucrt:lcidtoname_downlevel.obj
 0002:00013aac       ??_C@_1M@COAJPDHI@?$AAc?$AAs?$AA?9?$AAc?$AAz@ 004cdaac     libucrt:lcidtoname_downlevel.obj
 0002:00013ab8       ??_C@_1M@DHBHFONH@?$AAc?$AAy?$AA?9?$AAg?$AAb@ 004cdab8     libucrt:lcidtoname_downlevel.obj
 0002:00013ac4       ??_C@_1M@IMGKELGA@?$AAd?$AAa?$AA?9?$AAd?$AAk@ 004cdac4     libucrt:lcidtoname_downlevel.obj
 0002:00013ad0       ??_C@_1M@NNDGDNGA@?$AAd?$AAe?$AA?9?$AAa?$AAt@ 004cdad0     libucrt:lcidtoname_downlevel.obj
 0002:00013adc       ??_C@_1M@IKDBHEEM@?$AAd?$AAe?$AA?9?$AAc?$AAh@ 004cdadc     libucrt:lcidtoname_downlevel.obj
 0002:00013ae8       ??_C@_1M@GFFOJMCJ@?$AAd?$AAe?$AA?9?$AAd?$AAe@ 004cdae8     libucrt:lcidtoname_downlevel.obj
 0002:00013af4       ??_C@_1M@MDNLKBPM@?$AAd?$AAe?$AA?9?$AAl?$AAi@ 004cdaf4     libucrt:lcidtoname_downlevel.obj
 0002:00013b00       ??_C@_1M@NJBEEJNL@?$AAd?$AAe?$AA?9?$AAl?$AAu@ 004cdb00     libucrt:lcidtoname_downlevel.obj
 0002:00013b0c       ??_C@_1O@GNNELBAP@?$AAd?$AAi?$AAv?$AA?9?$AAm?$AAv@ 004cdb0c     libucrt:lcidtoname_downlevel.obj
 0002:00013b1c       ??_C@_1M@EJLEOGAE@?$AAe?$AAl?$AA?9?$AAg?$AAr@ 004cdb1c     libucrt:lcidtoname_downlevel.obj
 0002:00013b28       ??_C@_1M@GMPONJN@?$AAe?$AAn?$AA?9?$AAa?$AAu@ 004cdb28     libucrt:lcidtoname_downlevel.obj
 0002:00013b34       ??_C@_1M@NIDIIPGF@?$AAe?$AAn?$AA?9?$AAb?$AAz@ 004cdb34     libucrt:lcidtoname_downlevel.obj
 0002:00013b40       ??_C@_1M@JEHMIMFO@?$AAe?$AAn?$AA?9?$AAc?$AAa@ 004cdb40     libucrt:lcidtoname_downlevel.obj
 0002:00013b4c       ??_C@_1M@IGMJCDLA@?$AAe?$AAn?$AA?9?$AAc?$AAb@ 004cdb4c     libucrt:lcidtoname_downlevel.obj
 0002:00013b58       ??_C@_1M@BNFIGBKG@?$AAe?$AAn?$AA?9?$AAg?$AAb@ 004cdb58     libucrt:lcidtoname_downlevel.obj
 0002:00013b64       ??_C@_1M@LKIFDIGP@?$AAe?$AAn?$AA?9?$AAi?$AAe@ 004cdb64     libucrt:lcidtoname_downlevel.obj
 0002:00013b70       ??_C@_1M@PJKFGCCO@?$AAe?$AAn?$AA?9?$AAj?$AAm@ 004cdb70     libucrt:lcidtoname_downlevel.obj
 0002:00013b7c       ??_C@_1M@KPPKEPBO@?$AAe?$AAn?$AA?9?$AAn?$AAz@ 004cdb7c     libucrt:lcidtoname_downlevel.obj
 0002:00013b88       ??_C@_1M@GMDGLDOB@?$AAe?$AAn?$AA?9?$AAp?$AAh@ 004cdb88     libucrt:lcidtoname_downlevel.obj
 0002:00013b94       ??_C@_1M@ONGIBJNA@?$AAe?$AAn?$AA?9?$AAt?$AAt@ 004cdb94     libucrt:lcidtoname_downlevel.obj
 0002:00013ba0       ??_C@_1M@LLODPCMM@?$AAe?$AAn?$AA?9?$AAu?$AAs@ 004cdba0     libucrt:lcidtoname_downlevel.obj
 0002:00013bac       ??_C@_1M@LAKFNPAN@?$AAe?$AAn?$AA?9?$AAz?$AAa@ 004cdbac     libucrt:lcidtoname_downlevel.obj
 0002:00013bb8       ??_C@_1M@MFNHNHEO@?$AAe?$AAn?$AA?9?$AAz?$AAw@ 004cdbb8     libucrt:lcidtoname_downlevel.obj
 0002:00013bc4       ??_C@_1M@EJEINPHM@?$AAe?$AAs?$AA?9?$AAa?$AAr@ 004cdbc4     libucrt:lcidtoname_downlevel.obj
 0002:00013bd0       ??_C@_1M@GNKPCCJA@?$AAe?$AAs?$AA?9?$AAb?$AAo@ 004cdbd0     libucrt:lcidtoname_downlevel.obj
 0002:00013bdc       ??_C@_1M@LEEGFONL@?$AAe?$AAs?$AA?9?$AAc?$AAl@ 004cdbdc     libucrt:lcidtoname_downlevel.obj
 0002:00013be8       ??_C@_1M@KGPDPBDF@?$AAe?$AAs?$AA?9?$AAc?$AAo@ 004cdbe8     libucrt:lcidtoname_downlevel.obj
 0002:00013bf4       ??_C@_1M@EIAHOHH@?$AAe?$AAs?$AA?9?$AAc?$AAr@ 004cdbf4     libucrt:lcidtoname_downlevel.obj
 0002:00013c00       ??_C@_1M@LLPGMBIN@?$AAe?$AAs?$AA?9?$AAd?$AAo@ 004cdc00     libucrt:lcidtoname_downlevel.obj
 0002:00013c0c       ??_C@_1M@DKHMKNJA@?$AAe?$AAs?$AA?9?$AAe?$AAc@ 004cdc0c     libucrt:lcidtoname_downlevel.obj
 0002:00013c18       ??_C@_1M@GKGFPKAP@?$AAe?$AAs?$AA?9?$AAe?$AAs@ 004cdc18     libucrt:lcidtoname_downlevel.obj
 0002:00013c24       ??_C@_1M@LKHKGDLN@?$AAe?$AAs?$AA?9?$AAg?$AAt@ 004cdc24     libucrt:lcidtoname_downlevel.obj
 0002:00013c30       ??_C@_1M@HEIIGGJD@?$AAe?$AAs?$AA?9?$AAh?$AAn@ 004cdc30     libucrt:lcidtoname_downlevel.obj
 0002:00013c3c       ??_C@_1M@FBDHPPGD@?$AAe?$AAs?$AA?9?$AAm?$AAx@ 004cdc3c     libucrt:lcidtoname_downlevel.obj
 0002:00013c48       ??_C@_1M@DPAGLNDH@?$AAe?$AAs?$AA?9?$AAn?$AAi@ 004cdc48     libucrt:lcidtoname_downlevel.obj
 0002:00013c54       ??_C@_1M@MDGOPGDD@?$AAe?$AAs?$AA?9?$AAp?$AAa@ 004cdc54     libucrt:lcidtoname_downlevel.obj
 0002:00013c60       ??_C@_1M@EMAMGBGE@?$AAe?$AAs?$AA?9?$AAp?$AAe@ 004cdc60     libucrt:lcidtoname_downlevel.obj
 0002:00013c6c       ??_C@_1M@IBMCAOEC@?$AAe?$AAs?$AA?9?$AAp?$AAr@ 004cdc6c     libucrt:lcidtoname_downlevel.obj
 0002:00013c78       ??_C@_1M@FGMDIJED@?$AAe?$AAs?$AA?9?$AAp?$AAy@ 004cdc78     libucrt:lcidtoname_downlevel.obj
 0002:00013c84       ??_C@_1M@IIDEOLLL@?$AAe?$AAs?$AA?9?$AAs?$AAv@ 004cdc84     libucrt:lcidtoname_downlevel.obj
 0002:00013c90       ??_C@_1M@GAOBIPA@?$AAe?$AAs?$AA?9?$AAu?$AAy@ 004cdc90     libucrt:lcidtoname_downlevel.obj
 0002:00013c9c       ??_C@_1M@JKFFICHJ@?$AAe?$AAs?$AA?9?$AAv?$AAe@ 004cdc9c     libucrt:lcidtoname_downlevel.obj
 0002:00013ca8       ??_C@_1M@PNMLOJDF@?$AAe?$AAt?$AA?9?$AAe?$AAe@ 004cdca8     libucrt:lcidtoname_downlevel.obj
 0002:00013cb4       ??_C@_1M@GHHLIKEI@?$AAe?$AAu?$AA?9?$AAe?$AAs@ 004cdcb4     libucrt:lcidtoname_downlevel.obj
 0002:00013cc0       ??_C@_1M@PBNONODE@?$AAf?$AAa?$AA?9?$AAi?$AAr@ 004cdcc0     libucrt:lcidtoname_downlevel.obj
 0002:00013ccc       ??_C@_1M@JEEHPMIL@?$AAf?$AAi?$AA?9?$AAf?$AAi@ 004cdccc     libucrt:lcidtoname_downlevel.obj
 0002:00013cd8       ??_C@_1M@LMDCNDBA@?$AAf?$AAo?$AA?9?$AAf?$AAo@ 004cdcd8     libucrt:lcidtoname_downlevel.obj
 0002:00013ce4       ??_C@_1M@JKEOHLDK@?$AAf?$AAr?$AA?9?$AAb?$AAe@ 004cdce4     libucrt:lcidtoname_downlevel.obj
 0002:00013cf0       ??_C@_1M@NOHADPMI@?$AAf?$AAr?$AA?9?$AAc?$AAa@ 004cdcf0     libucrt:lcidtoname_downlevel.obj
 0002:00013cfc       ??_C@_1M@KDHIHAEC@?$AAf?$AAr?$AA?9?$AAc?$AAh@ 004cdcfc     libucrt:lcidtoname_downlevel.obj
 0002:00013d08       ??_C@_1M@MMBBFGAK@?$AAf?$AAr?$AA?9?$AAf?$AAr@ 004cdd08     libucrt:lcidtoname_downlevel.obj
 0002:00013d14       ??_C@_1M@PAFNENNF@?$AAf?$AAr?$AA?9?$AAl?$AAu@ 004cdd14     libucrt:lcidtoname_downlevel.obj
 0002:00013d20       ??_C@_1M@EOHDJGDD@?$AAf?$AAr?$AA?9?$AAm?$AAc@ 004cdd20     libucrt:lcidtoname_downlevel.obj
 0002:00013d2c       ??_C@_1M@FAPLLOPF@?$AAg?$AAl?$AA?9?$AAe?$AAs@ 004cdd2c     libucrt:lcidtoname_downlevel.obj
 0002:00013d38       ??_C@_1M@FOPBFLOO@?$AAg?$AAu?$AA?9?$AAi?$AAn@ 004cdd38     libucrt:lcidtoname_downlevel.obj
 0002:00013d44       ??_C@_1M@KBMCINPM@?$AAh?$AAe?$AA?9?$AAi?$AAl@ 004cdd44     libucrt:lcidtoname_downlevel.obj
 0002:00013d50       ??_C@_1M@BBPHKFPJ@?$AAh?$AAi?$AA?9?$AAi?$AAn@ 004cdd50     libucrt:lcidtoname_downlevel.obj
 0002:00013d5c       ??_C@_1M@PMBNDPHD@?$AAh?$AAr?$AA?9?$AAb?$AAa@ 004cdd5c     libucrt:lcidtoname_downlevel.obj
 0002:00013d68       ??_C@_1M@BPCKOEGE@?$AAh?$AAr?$AA?9?$AAh?$AAr@ 004cdd68     libucrt:lcidtoname_downlevel.obj
 0002:00013d74       ??_C@_1M@GACBMHKE@?$AAh?$AAu?$AA?9?$AAh?$AAu@ 004cdd74     libucrt:lcidtoname_downlevel.obj
 0002:00013d80       ??_C@_1M@MILPAJJC@?$AAh?$AAy?$AA?9?$AAa?$AAm@ 004cdd80     libucrt:lcidtoname_downlevel.obj
 0002:00013d8c       ??_C@_1M@BABBICEC@?$AAi?$AAd?$AA?9?$AAi?$AAd@ 004cdd8c     libucrt:lcidtoname_downlevel.obj
 0002:00013d98       ??_C@_1M@BIKNHHPF@?$AAi?$AAs?$AA?9?$AAi?$AAs@ 004cdd98     libucrt:lcidtoname_downlevel.obj
 0002:00013da4       ??_C@_1M@NMPCJPHE@?$AAi?$AAt?$AA?9?$AAc?$AAh@ 004cdda4     libucrt:lcidtoname_downlevel.obj
 0002:00013db0       ??_C@_1M@GHKGFEDF@?$AAi?$AAt?$AA?9?$AAi?$AAt@ 004cddb0     libucrt:lcidtoname_downlevel.obj
 0002:00013dbc       ??_C@_1M@NIEJCJJA@?$AAj?$AAa?$AA?9?$AAj?$AAp@ 004cddbc     libucrt:lcidtoname_downlevel.obj
 0002:00013dc8       ??_C@_1M@JILFNBIM@?$AAk?$AAa?$AA?9?$AAg?$AAe@ 004cddc8     libucrt:lcidtoname_downlevel.obj
 0002:00013dd4       ??_C@_1M@PACPMGPH@?$AAk?$AAk?$AA?9?$AAk?$AAz@ 004cddd4     libucrt:lcidtoname_downlevel.obj
 0002:00013de0       ??_C@_1M@IELFGMHA@?$AAk?$AAn?$AA?9?$AAi?$AAn@ 004cdde0     libucrt:lcidtoname_downlevel.obj
 0002:00013dec       ??_C@_1O@IBBJHCH@?$AAk?$AAo?$AAk?$AA?9?$AAi?$AAn@ 004cddec     libucrt:lcidtoname_downlevel.obj
 0002:00013dfc       ??_C@_1M@DMHAEOGC@?$AAk?$AAo?$AA?9?$AAk?$AAr@ 004cddfc     libucrt:lcidtoname_downlevel.obj
 0002:00013e08       ??_C@_1M@HBAHBIGA@?$AAk?$AAy?$AA?9?$AAk?$AAg@ 004cde08     libucrt:lcidtoname_downlevel.obj
 0002:00013e14       ??_C@_1M@KPMILCJG@?$AAl?$AAt?$AA?9?$AAl?$AAt@ 004cde14     libucrt:lcidtoname_downlevel.obj
 0002:00013e20       ??_C@_1M@BDEKKCA@?$AAl?$AAv?$AA?9?$AAl?$AAv@ 004cde20     libucrt:lcidtoname_downlevel.obj
 0002:00013e2c       ??_C@_1M@ELCKCCJJ@?$AAm?$AAi?$AA?9?$AAn?$AAz@ 004cde2c     libucrt:lcidtoname_downlevel.obj
 0002:00013e38       ??_C@_1M@CBOOLAPA@?$AAm?$AAk?$AA?9?$AAm?$AAk@ 004cde38     libucrt:lcidtoname_downlevel.obj
 0002:00013e44       ??_C@_1M@GPHNBJKN@?$AAm?$AAl?$AA?9?$AAi?$AAn@ 004cde44     libucrt:lcidtoname_downlevel.obj
 0002:00013e50       ??_C@_1M@PABJILIG@?$AAm?$AAn?$AA?9?$AAm?$AAn@ 004cde50     libucrt:lcidtoname_downlevel.obj
 0002:00013e5c       ??_C@_1M@FGBKKIPG@?$AAm?$AAr?$AA?9?$AAi?$AAn@ 004cde5c     libucrt:lcidtoname_downlevel.obj
 0002:00013e68       ??_C@_1M@NDBPDDAL@?$AAm?$AAs?$AA?9?$AAb?$AAn@ 004cde68     libucrt:lcidtoname_downlevel.obj
 0002:00013e74       ??_C@_1M@OPIHOOPI@?$AAm?$AAs?$AA?9?$AAm?$AAy@ 004cde74     libucrt:lcidtoname_downlevel.obj
 0002:00013e80       ??_C@_1M@PPDBCNFM@?$AAm?$AAt?$AA?9?$AAm?$AAt@ 004cde80     libucrt:lcidtoname_downlevel.obj
 0002:00013e8c       ??_C@_1M@KDJDKMDD@?$AAn?$AAb?$AA?9?$AAn?$AAo@ 004cde8c     libucrt:lcidtoname_downlevel.obj
 0002:00013e98       ??_C@_1M@KFCFLMJP@?$AAn?$AAl?$AA?9?$AAb?$AAe@ 004cde98     libucrt:lcidtoname_downlevel.obj
 0002:00013ea4       ??_C@_1M@KPOPDDGO@?$AAn?$AAl?$AA?9?$AAn?$AAl@ 004cdea4     libucrt:lcidtoname_downlevel.obj
 0002:00013eb0       ??_C@_1M@LJKPEMLN@?$AAn?$AAn?$AA?9?$AAn?$AAo@ 004cdeb0     libucrt:lcidtoname_downlevel.obj
 0002:00013ebc       ??_C@_1M@BDGHHBFL@?$AAn?$AAs?$AA?9?$AAz?$AAa@ 004cdebc     libucrt:lcidtoname_downlevel.obj
 0002:00013ec8       ??_C@_1M@IDEHOAP@?$AAp?$AAa?$AA?9?$AAi?$AAn@ 004cdec8     libucrt:lcidtoname_downlevel.obj
 0002:00013ed4       ??_C@_1M@HDBKGOGH@?$AAp?$AAl?$AA?9?$AAp?$AAl@ 004cded4     libucrt:lcidtoname_downlevel.obj
 0002:00013ee0       ??_C@_1M@LJLLCMEH@?$AAp?$AAt?$AA?9?$AAb?$AAr@ 004cdee0     libucrt:lcidtoname_downlevel.obj
 0002:00013eec       ??_C@_1M@NCMONAAL@?$AAp?$AAt?$AA?9?$AAp?$AAt@ 004cdeec     libucrt:lcidtoname_downlevel.obj
 0002:00013ef8       ??_C@_1O@EAKMAJDN@?$AAq?$AAu?$AAz?$AA?9?$AAb?$AAo@ 004cdef8     libucrt:lcidtoname_downlevel.obj
 0002:00013f08       ??_C@_1O@BHHPIGDN@?$AAq?$AAu?$AAz?$AA?9?$AAe?$AAc@ 004cdf08     libucrt:lcidtoname_downlevel.obj
 0002:00013f18       ??_C@_1O@GBAPEKMJ@?$AAq?$AAu?$AAz?$AA?9?$AAp?$AAe@ 004cdf18     libucrt:lcidtoname_downlevel.obj
 0002:00013f28       ??_C@_1M@CLGLEFBO@?$AAr?$AAo?$AA?9?$AAr?$AAo@ 004cdf28     libucrt:lcidtoname_downlevel.obj
 0002:00013f34       ??_C@_1M@CEEDODME@?$AAr?$AAu?$AA?9?$AAr?$AAu@ 004cdf34     libucrt:lcidtoname_downlevel.obj
 0002:00013f40       ??_C@_1M@HPKKKMPP@?$AAs?$AAa?$AA?9?$AAi?$AAn@ 004cdf40     libucrt:lcidtoname_downlevel.obj
 0002:00013f4c       ??_C@_1M@BKMAIGOJ@?$AAs?$AAe?$AA?9?$AAf?$AAi@ 004cdf4c     libucrt:lcidtoname_downlevel.obj
 0002:00013f58       ??_C@_1M@NDPIFLFI@?$AAs?$AAe?$AA?9?$AAn?$AAo@ 004cdf58     libucrt:lcidtoname_downlevel.obj
 0002:00013f64       ??_C@_1M@DANKKHJ@?$AAs?$AAe?$AA?9?$AAs?$AAe@ 004cdf64     libucrt:lcidtoname_downlevel.obj
 0002:00013f70       ??_C@_1M@PNBLONPJ@?$AAs?$AAk?$AA?9?$AAs?$AAk@ 004cdf70     libucrt:lcidtoname_downlevel.obj
 0002:00013f7c       ??_C@_1M@LFMODOAL@?$AAs?$AAl?$AA?9?$AAs?$AAi@ 004cdf7c     libucrt:lcidtoname_downlevel.obj
 0002:00013f88       ??_C@_1O@DFKOMPG@?$AAs?$AAm?$AAa?$AA?9?$AAn?$AAo@ 004cdf88     libucrt:lcidtoname_downlevel.obj
 0002:00013f98       ??_C@_1O@NDKPBNNH@?$AAs?$AAm?$AAa?$AA?9?$AAs?$AAe@ 004cdf98     libucrt:lcidtoname_downlevel.obj
 0002:00013fa8       ??_C@_1O@PLLKBHAB@?$AAs?$AAm?$AAj?$AA?9?$AAn?$AAo@ 004cdfa8     libucrt:lcidtoname_downlevel.obj
 0002:00013fb8       ??_C@_1O@CLEPOGCA@?$AAs?$AAm?$AAj?$AA?9?$AAs?$AAe@ 004cdfb8     libucrt:lcidtoname_downlevel.obj
 0002:00013fc8       ??_C@_1O@DLGJGKMK@?$AAs?$AAm?$AAn?$AA?9?$AAf?$AAi@ 004cdfc8     libucrt:lcidtoname_downlevel.obj
 0002:00013fd8       ??_C@_1O@OJDJGAJC@?$AAs?$AAm?$AAs?$AA?9?$AAf?$AAi@ 004cdfd8     libucrt:lcidtoname_downlevel.obj
 0002:00013fe8       ??_C@_1M@BOFOGHPB@?$AAs?$AAq?$AA?9?$AAa?$AAl@ 004cdfe8     libucrt:lcidtoname_downlevel.obj
 0002:00013ff4       ??_C@_1BG@LJBBIPGB@?$AAs?$AAr?$AA?9?$AAb?$AAa?$AA?9?$AAc?$AAy?$AAr?$AAl@ 004cdff4     libucrt:lcidtoname_downlevel.obj
 0002:0001400c       ??_C@_1BG@JLBENFOE@?$AAs?$AAr?$AA?9?$AAb?$AAa?$AA?9?$AAl?$AAa?$AAt?$AAn@ 004ce00c     libucrt:lcidtoname_downlevel.obj
 0002:00014024       ??_C@_1BG@KODPNHE@?$AAs?$AAr?$AA?9?$AAs?$AAp?$AA?9?$AAc?$AAy?$AAr?$AAl@ 004ce024     libucrt:lcidtoname_downlevel.obj
 0002:0001403c       ??_C@_1BG@CIOGKHPB@?$AAs?$AAr?$AA?9?$AAs?$AAp?$AA?9?$AAl?$AAa?$AAt?$AAn@ 004ce03c     libucrt:lcidtoname_downlevel.obj
 0002:00014054       ??_C@_1M@NGFJLMAC@?$AAs?$AAv?$AA?9?$AAf?$AAi@ 004ce054     libucrt:lcidtoname_downlevel.obj
 0002:00014060       ??_C@_1M@MPJEJAJC@?$AAs?$AAv?$AA?9?$AAs?$AAe@ 004ce060     libucrt:lcidtoname_downlevel.obj
 0002:0001406c       ??_C@_1M@MPNDHLFK@?$AAs?$AAw?$AA?9?$AAk?$AAe@ 004ce06c     libucrt:lcidtoname_downlevel.obj
 0002:00014078       ??_C@_1O@KOHBJJI@?$AAs?$AAy?$AAr?$AA?9?$AAs?$AAy@ 004ce078     libucrt:lcidtoname_downlevel.obj
 0002:00014088       ??_C@_1M@LDCEFHA@?$AAt?$AAa?$AA?9?$AAi?$AAn@ 004ce088     libucrt:lcidtoname_downlevel.obj
 0002:00014094       ??_C@_1M@CNJOFAK@?$AAt?$AAe?$AA?9?$AAi?$AAn@ 004ce094     libucrt:lcidtoname_downlevel.obj
 0002:000140a0       ??_C@_1M@GNAECACD@?$AAt?$AAh?$AA?9?$AAt?$AAh@ 004ce0a0     libucrt:lcidtoname_downlevel.obj
 0002:000140ac       ??_C@_1M@CHBIHOJO@?$AAt?$AAn?$AA?9?$AAz?$AAa@ 004ce0ac     libucrt:lcidtoname_downlevel.obj
 0002:000140b8       ??_C@_1M@GCCMIGPJ@?$AAt?$AAr?$AA?9?$AAt?$AAr@ 004ce0b8     libucrt:lcidtoname_downlevel.obj
 0002:000140c4       ??_C@_1M@CELMCNBK@?$AAt?$AAt?$AA?9?$AAr?$AAu@ 004ce0c4     libucrt:lcidtoname_downlevel.obj
 0002:000140d0       ??_C@_1M@KLMCELGA@?$AAu?$AAk?$AA?9?$AAu?$AAa@ 004ce0d0     libucrt:lcidtoname_downlevel.obj
 0002:000140dc       ??_C@_1M@EPAJJAJF@?$AAu?$AAr?$AA?9?$AAp?$AAk@ 004ce0dc     libucrt:lcidtoname_downlevel.obj
 0002:000140e8       ??_C@_1BG@GEGPMCDJ@?$AAu?$AAz?$AA?9?$AAu?$AAz?$AA?9?$AAc?$AAy?$AAr?$AAl@ 004ce0e8     libucrt:lcidtoname_downlevel.obj
 0002:00014100       ??_C@_1BG@EGGKJILM@?$AAu?$AAz?$AA?9?$AAu?$AAz?$AA?9?$AAl?$AAa?$AAt?$AAn@ 004ce100     libucrt:lcidtoname_downlevel.obj
 0002:00014118       ??_C@_1M@GFOCLFF@?$AAv?$AAi?$AA?9?$AAv?$AAn@ 004ce118     libucrt:lcidtoname_downlevel.obj
 0002:00014124       ??_C@_1M@CPAMEDFI@?$AAx?$AAh?$AA?9?$AAz?$AAa@ 004ce124     libucrt:lcidtoname_downlevel.obj
 0002:00014130       ??_C@_1O@EBKIFIGN@?$AAz?$AAh?$AA?9?$AAc?$AAh?$AAs@ 004ce130     libucrt:lcidtoname_downlevel.obj
 0002:00014140       ??_C@_1O@NMHPGANE@?$AAz?$AAh?$AA?9?$AAc?$AAh?$AAt@ 004ce140     libucrt:lcidtoname_downlevel.obj
 0002:00014150       ??_C@_1M@LPINJOMC@?$AAz?$AAh?$AA?9?$AAc?$AAn@ 004ce150     libucrt:lcidtoname_downlevel.obj
 0002:0001415c       ??_C@_1M@OCJEJODD@?$AAz?$AAh?$AA?9?$AAh?$AAk@ 004ce15c     libucrt:lcidtoname_downlevel.obj
 0002:00014168       ??_C@_1M@DNDLJINH@?$AAz?$AAh?$AA?9?$AAm?$AAo@ 004ce168     libucrt:lcidtoname_downlevel.obj
 0002:00014174       ??_C@_1M@MBFDNDND@?$AAz?$AAh?$AA?9?$AAs?$AAg@ 004ce174     libucrt:lcidtoname_downlevel.obj
 0002:00014180       ??_C@_1M@IMEPLEPE@?$AAz?$AAh?$AA?9?$AAt?$AAw@ 004ce180     libucrt:lcidtoname_downlevel.obj
 0002:0001418c       ??_C@_1M@BBGHNHJP@?$AAz?$AAu?$AA?9?$AAz?$AAa@ 004ce18c     libucrt:lcidtoname_downlevel.obj
 0002:00014250       __indefinite               004ce250     libucrt:87disp.obj
 0002:0001425a       __piby2                    004ce25a     libucrt:87disp.obj
 0002:00014264       __piby4                    004ce264     libucrt:87disp.obj
 0002:00014298       __DEFAULT_CW_in_mem        004ce298     libucrt:common.obj
 0002:0001429a       __pi_by_2_to_61            004ce29a     libucrt:common.obj
 0002:00014530       __infinity                 004ce530     libucrt:87tran.obj
 0002:0001453a       __minfinity                004ce53a     libucrt:87tran.obj
 0002:00014544       __logemax                  004ce544     libucrt:87tran.obj
 0002:0001456a       __OP_EXPjmptab             004ce56a     libucrt:87tran.obj
 0002:00014598       ??_C@_1BA@BALFACEM@?$AAC?$AAO?$AAN?$AAO?$AAU?$AAT?$AA$@ 004ce598     libucrt:initcon.obj
 0002:000146b0       ___acrt_log10_table_t      004ce6b0     libucrt:log10_tables.obj
 0002:00014ac0       ___acrt_log10_table_cb     004ceac0     libucrt:log10_tables.obj
 0002:00014ee0       __xmm@00000000000000000000000000000000 004ceee0     libvcruntime:wcschr.obj
 0002:00014ef0       __Asan_string_should_annotate 004ceef0     libcpmt:asan_noop.obj
 0002:00014ef0       __Asan_string_should_annotate_default 004ceef0     libcpmt:asan_noop.obj
 0002:00014ef1       __Asan_vector_should_annotate_default 004ceef1     libcpmt:asan_noop.obj
 0002:00014ef8       __load_config_used         004ceef8     LIBCMT:loadcfg.obj
 0002:00015040       __tls_used                 004cf040     LIBCMT:tlssup.obj
 0002:00015058       ??_R4exception@std@@6B@    004cf058     TimeLog.obj
 0002:0001506c       ??_R3exception@std@@8      004cf06c     TimeLog.obj
 0002:0001507c       ??_R2exception@std@@8      004cf07c     TimeLog.obj
 0002:00015084       ??_R1A@?0A@EA@exception@std@@8 004cf084     TimeLog.obj
 0002:000150a0       ??_R4bad_alloc@std@@6B@    004cf0a0     TimeLog.obj
 0002:000150b4       ??_R3bad_alloc@std@@8      004cf0b4     TimeLog.obj
 0002:000150c4       ??_R2bad_alloc@std@@8      004cf0c4     TimeLog.obj
 0002:000150d0       ??_R1A@?0A@EA@bad_alloc@std@@8 004cf0d0     TimeLog.obj
 0002:000150ec       ??_R4bad_array_new_length@std@@6B@ 004cf0ec     TimeLog.obj
 0002:00015100       ??_R3bad_array_new_length@std@@8 004cf100     TimeLog.obj
 0002:00015110       ??_R2bad_array_new_length@std@@8 004cf110     TimeLog.obj
 0002:00015120       ??_R1A@?0A@EA@bad_array_new_length@std@@8 004cf120     TimeLog.obj
 0002:0001513c       ??_R4runtime_error@std@@6B@ 004cf13c     TimeLog.obj
 0002:00015150       ??_R3runtime_error@std@@8  004cf150     TimeLog.obj
 0002:00015160       ??_R2runtime_error@std@@8  004cf160     TimeLog.obj
 0002:0001516c       ??_R1A@?0A@EA@runtime_error@std@@8 004cf16c     TimeLog.obj
 0002:00015188       ??_R3error_category@std@@8 004cf188     TimeLog.obj
 0002:00015198       ??_R2error_category@std@@8 004cf198     TimeLog.obj
 0002:000151a0       ??_R1A@?0A@EA@error_category@std@@8 004cf1a0     TimeLog.obj
 0002:000151bc       ??_R4_System_error@std@@6B@ 004cf1bc     TimeLog.obj
 0002:000151d0       ??_R3_System_error@std@@8  004cf1d0     TimeLog.obj
 0002:000151e0       ??_R2_System_error@std@@8  004cf1e0     TimeLog.obj
 0002:000151f0       ??_R1A@?0A@EA@_System_error@std@@8 004cf1f0     TimeLog.obj
 0002:0001520c       ??_R4system_error@std@@6B@ 004cf20c     TimeLog.obj
 0002:00015220       ??_R3system_error@std@@8   004cf220     TimeLog.obj
 0002:00015230       ??_R2system_error@std@@8   004cf230     TimeLog.obj
 0002:00015244       ??_R1A@?0A@EA@system_error@std@@8 004cf244     TimeLog.obj
 0002:00015260       ??_R4_Iostream_error_category2@std@@6B@ 004cf260     TimeLog.obj
 0002:00015274       ??_R3_Iostream_error_category2@std@@8 004cf274     TimeLog.obj
 0002:00015284       ??_R2_Iostream_error_category2@std@@8 004cf284     TimeLog.obj
 0002:00015290       ??_R1A@?0A@EA@_Iostream_error_category2@std@@8 004cf290     TimeLog.obj
 0002:000152ac       ??_R4failure@ios_base@std@@6B@ 004cf2ac     TimeLog.obj
 0002:000152c0       ??_R3failure@ios_base@std@@8 004cf2c0     TimeLog.obj
 0002:000152d0       ??_R2failure@ios_base@std@@8 004cf2d0     TimeLog.obj
 0002:000152e8       ??_R1A@?0A@EA@failure@ios_base@std@@8 004cf2e8     TimeLog.obj
 0002:00015304       ??_R4bad_cast@std@@6B@     004cf304     S04_MyWork05.obj
 0002:00015318       ??_R3bad_cast@std@@8       004cf318     S04_MyWork05.obj
 0002:00015328       ??_R2bad_cast@std@@8       004cf328     S04_MyWork05.obj
 0002:00015334       ??_R1A@?0A@EA@bad_cast@std@@8 004cf334     S04_MyWork05.obj
 0002:00015350       ??_R4_Facet_base@std@@6B@  004cf350     S04_MyWork05.obj
 0002:00015364       ??_R3_Facet_base@std@@8    004cf364     S04_MyWork05.obj
 0002:00015374       ??_R2_Facet_base@std@@8    004cf374     S04_MyWork05.obj
 0002:0001537c       ??_R1A@?0A@EA@_Facet_base@std@@8 004cf37c     S04_MyWork05.obj
 0002:00015398       ??_R3facet@locale@std@@8   004cf398     S04_MyWork05.obj
 0002:000153a8       ??_R2facet@locale@std@@8   004cf3a8     S04_MyWork05.obj
 0002:000153b8       ??_R1A@?0A@EA@facet@locale@std@@8 004cf3b8     S04_MyWork05.obj
 0002:000153d4       ??_R13?0A@EA@_Crt_new_delete@std@@8 004cf3d4     S04_MyWork05.obj
 0002:000153f0       ??_R3_Crt_new_delete@std@@8 004cf3f0     S04_MyWork05.obj
 0002:00015400       ??_R2_Crt_new_delete@std@@8 004cf400     S04_MyWork05.obj
 0002:00015408       ??_R1A@?0A@EA@_Crt_new_delete@std@@8 004cf408     S04_MyWork05.obj
 0002:00015424       ??_R3ctype_base@std@@8     004cf424     S04_MyWork05.obj
 0002:00015434       ??_R2ctype_base@std@@8     004cf434     S04_MyWork05.obj
 0002:00015448       ??_R1A@?0A@EA@ctype_base@std@@8 004cf448     S04_MyWork05.obj
 0002:00015464       ??_R4?$ctype@D@std@@6B@    004cf464     S04_MyWork05.obj
 0002:00015478       ??_R3?$ctype@D@std@@8      004cf478     S04_MyWork05.obj
 0002:00015488       ??_R2?$ctype@D@std@@8      004cf488     S04_MyWork05.obj
 0002:000154a0       ??_R1A@?0A@EA@?$ctype@D@std@@8 004cf4a0     S04_MyWork05.obj
 0002:000154bc       ??_R4?$num_put@DV?$ostreambuf_iterator@DU?$char_traits@D@std@@@std@@@std@@6B@ 004cf4bc     S04_MyWork05.obj
 0002:000154d0       ??_R3?$num_put@DV?$ostreambuf_iterator@DU?$char_traits@D@std@@@std@@@std@@8 004cf4d0     S04_MyWork05.obj
 0002:000154e0       ??_R2?$num_put@DV?$ostreambuf_iterator@DU?$char_traits@D@std@@@std@@@std@@8 004cf4e0     S04_MyWork05.obj
 0002:000154f4       ??_R1A@?0A@EA@?$num_put@DV?$ostreambuf_iterator@DU?$char_traits@D@std@@@std@@@std@@8 004cf4f4     S04_MyWork05.obj
 0002:00015510       ??_R4?$numpunct@D@std@@6B@ 004cf510     S04_MyWork05.obj
 0002:00015524       ??_R3?$numpunct@D@std@@8   004cf524     S04_MyWork05.obj
 0002:00015534       ??_R2?$numpunct@D@std@@8   004cf534     S04_MyWork05.obj
 0002:00015548       ??_R1A@?0A@EA@?$numpunct@D@std@@8 004cf548     S04_MyWork05.obj
 0002:00015564       ??_R4CSphinx@@6B@          004cf564     S11_Sphinx.obj
 0002:00015578       ??_R3CSphinx@@8            004cf578     S11_Sphinx.obj
 0002:00015588       ??_R2CSphinx@@8            004cf588     S11_Sphinx.obj
 0002:00015590       ??_R1A@?0A@EA@CSphinx@@8   004cf590     S11_Sphinx.obj
 0002:000155ac       ??_R4logic_error@std@@6B@  004cf5ac     libcpmt:xthrow.obj
 0002:000155c0       ??_R3logic_error@std@@8    004cf5c0     libcpmt:xthrow.obj
 0002:000155d0       ??_R2logic_error@std@@8    004cf5d0     libcpmt:xthrow.obj
 0002:000155dc       ??_R1A@?0A@EA@logic_error@std@@8 004cf5dc     libcpmt:xthrow.obj
 0002:000155f8       ??_R4length_error@std@@6B@ 004cf5f8     libcpmt:xthrow.obj
 0002:0001560c       ??_R3length_error@std@@8   004cf60c     libcpmt:xthrow.obj
 0002:0001561c       ??_R2length_error@std@@8   004cf61c     libcpmt:xthrow.obj
 0002:0001562c       ??_R1A@?0A@EA@length_error@std@@8 004cf62c     libcpmt:xthrow.obj
 0002:00015648       ??_R4out_of_range@std@@6B@ 004cf648     libcpmt:xthrow.obj
 0002:0001565c       ??_R3out_of_range@std@@8   004cf65c     libcpmt:xthrow.obj
 0002:0001566c       ??_R2out_of_range@std@@8   004cf66c     libcpmt:xthrow.obj
 0002:0001567c       ??_R1A@?0A@EA@out_of_range@std@@8 004cf67c     libcpmt:xthrow.obj
 0002:00015698       ??_R4ios_base@std@@6B@     004cf698     libcpmt:cout.obj
 0002:000156ac       ??_R3ios_base@std@@8       004cf6ac     libcpmt:cout.obj
 0002:000156bc       ??_R2ios_base@std@@8       004cf6bc     libcpmt:cout.obj
 0002:000156c8       ??_R1A@?0A@EA@ios_base@std@@8 004cf6c8     libcpmt:cout.obj
 0002:000156e4       ??_R17?0A@EA@?$_Iosb@H@std@@8 004cf6e4     libcpmt:cout.obj
 0002:00015700       ??_R3?$_Iosb@H@std@@8      004cf700     libcpmt:cout.obj
 0002:00015710       ??_R2?$_Iosb@H@std@@8      004cf710     libcpmt:cout.obj
 0002:00015718       ??_R1A@?0A@EA@?$_Iosb@H@std@@8 004cf718     libcpmt:cout.obj
 0002:00015734       ??_R4?$basic_ios@DU?$char_traits@D@std@@@std@@6B@ 004cf734     libcpmt:cout.obj
 0002:00015748       ??_R3?$basic_ios@DU?$char_traits@D@std@@@std@@8 004cf748     libcpmt:cout.obj
 0002:00015758       ??_R2?$basic_ios@DU?$char_traits@D@std@@@std@@8 004cf758     libcpmt:cout.obj
 0002:00015768       ??_R1A@?0A@EA@?$basic_ios@DU?$char_traits@D@std@@@std@@8 004cf768     libcpmt:cout.obj
 0002:00015784       ??_R4?$basic_streambuf@DU?$char_traits@D@std@@@std@@6B@ 004cf784     libcpmt:cout.obj
 0002:00015798       ??_R3?$basic_streambuf@DU?$char_traits@D@std@@@std@@8 004cf798     libcpmt:cout.obj
 0002:000157a8       ??_R2?$basic_streambuf@DU?$char_traits@D@std@@@std@@8 004cf7a8     libcpmt:cout.obj
 0002:000157b0       ??_R1A@?0A@EA@?$basic_streambuf@DU?$char_traits@D@std@@@std@@8 004cf7b0     libcpmt:cout.obj
 0002:000157cc       ??_R1A@A@3FA@?$basic_ios@DU?$char_traits@D@std@@@std@@8 004cf7cc     libcpmt:cout.obj
 0002:000157e8       ??_R1A@A@3EA@ios_base@std@@8 004cf7e8     libcpmt:cout.obj
 0002:00015804       ??_R17A@3EA@?$_Iosb@H@std@@8 004cf804     libcpmt:cout.obj
 0002:00015820       ??_R4?$basic_ostream@DU?$char_traits@D@std@@@std@@6B@ 004cf820     libcpmt:cout.obj
 0002:00015834       ??_R3?$basic_ostream@DU?$char_traits@D@std@@@std@@8 004cf834     libcpmt:cout.obj
 0002:00015844       ??_R2?$basic_ostream@DU?$char_traits@D@std@@@std@@8 004cf844     libcpmt:cout.obj
 0002:00015858       ??_R1A@?0A@EA@?$basic_ostream@DU?$char_traits@D@std@@@std@@8 004cf858     libcpmt:cout.obj
 0002:00015874       ??_R4?$basic_filebuf@DU?$char_traits@D@std@@@std@@6B@ 004cf874     libcpmt:cout.obj
 0002:00015888       ??_R3?$basic_filebuf@DU?$char_traits@D@std@@@std@@8 004cf888     libcpmt:cout.obj
 0002:00015898       ??_R2?$basic_filebuf@DU?$char_traits@D@std@@@std@@8 004cf898     libcpmt:cout.obj
 0002:000158a4       ??_R1A@?0A@EA@?$basic_filebuf@DU?$char_traits@D@std@@@std@@8 004cf8a4     libcpmt:cout.obj
 0002:000158c0       ??_R3codecvt_base@std@@8   004cf8c0     libcpmt:cout.obj
 0002:000158d0       ??_R2codecvt_base@std@@8   004cf8d0     libcpmt:cout.obj
 0002:000158e4       ??_R1A@?0A@EA@codecvt_base@std@@8 004cf8e4     libcpmt:cout.obj
 0002:00015900       ??_R4?$codecvt@DDU_Mbstatet@@@std@@6B@ 004cf900     libcpmt:cout.obj
 0002:00015914       ??_R3?$codecvt@DDU_Mbstatet@@@std@@8 004cf914     libcpmt:cout.obj
 0002:00015924       ??_R2?$codecvt@DDU_Mbstatet@@@std@@8 004cf924     libcpmt:cout.obj
 0002:0001593c       ??_R1A@?0A@EA@?$codecvt@DDU_Mbstatet@@@std@@8 004cf93c     libcpmt:cout.obj
 0002:00015958       ??_R4_Generic_error_category@std@@6B@ 004cf958     libcpmt:thread0.obj
 0002:0001596c       ??_R3_Generic_error_category@std@@8 004cf96c     libcpmt:thread0.obj
 0002:0001597c       ??_R2_Generic_error_category@std@@8 004cf97c     libcpmt:thread0.obj
 0002:00015988       ??_R1A@?0A@EA@_Generic_error_category@std@@8 004cf988     libcpmt:thread0.obj
 0002:000159a4       ??_R4_Locimp@locale@std@@6B@ 004cf9a4     libcpmt:locale0.obj
 0002:000159b8       ??_R3_Locimp@locale@std@@8 004cf9b8     libcpmt:locale0.obj
 0002:000159c8       ??_R2_Locimp@locale@std@@8 004cf9c8     libcpmt:locale0.obj
 0002:000159dc       ??_R1A@?0A@EA@_Locimp@locale@std@@8 004cf9dc     libcpmt:locale0.obj
 0002:000159f8       ??_R4type_info@@6B@        004cf9f8     LIBCMT:std_type_info_static.obj
 0002:00015a0c       ??_R3type_info@@8          004cfa0c     LIBCMT:std_type_info_static.obj
 0002:00015a1c       ??_R2type_info@@8          004cfa1c     LIBCMT:std_type_info_static.obj
 0002:00015a24       ??_R1A@?0A@EA@type_info@@8 004cfa24     LIBCMT:std_type_info_static.obj
 0002:00015a40       ??_R4bad_exception@std@@6B@ 004cfa40     libvcruntime:frame.obj
 0002:00015a54       ??_R3bad_exception@std@@8  004cfa54     libvcruntime:frame.obj
 0002:00015a64       ??_R2bad_exception@std@@8  004cfa64     libvcruntime:frame.obj
 0002:00015a70       ??_R1A@?0A@EA@bad_exception@std@@8 004cfa70     libvcruntime:frame.obj
 0002:00015a8c       ___safe_se_handler_table   004cfa8c     <linker-defined>
 0002:00015b40       ___volatile_metadata       004cfb40     <linker-defined>
 0002:000162fc       ___rtc_iaa                 004d02fc     LIBCMT:initsect.obj
 0002:00016300       ___rtc_izz                 004d0300     LIBCMT:initsect.obj
 0002:00016304       ___rtc_taa                 004d0304     LIBCMT:initsect.obj
 0002:00016308       ___rtc_tzz                 004d0308     LIBCMT:initsect.obj
 0002:0001630c       __tls_start                004d030c     LIBCMT:tlssup.obj
 0002:00016310       __Init_thread_epoch        004d0310     LIBCMT:thread_safe_statics.obj
 0002:00016314       __tls_end                  004d0314     LIBCMT:tlssup.obj
 0002:0001651c       __CT??_R0?AVexception@std@@@8??0exception@std@@QAE@ABV01@@Z12 004d051c     TimeLog.obj
 0002:00016538       __TI3?AVbad_array_new_length@std@@ 004d0538     TimeLog.obj
 0002:00016548       __CTA3?AVbad_array_new_length@std@@ 004d0548     TimeLog.obj
 0002:00016558       __CT??_R0?AVbad_array_new_length@std@@@8??0bad_array_new_length@std@@QAE@ABV01@@Z12 004d0558     TimeLog.obj
 0002:00016574       __CT??_R0?AVbad_alloc@std@@@8??0bad_alloc@std@@QAE@ABV01@@Z12 004d0574     TimeLog.obj
 0002:00016590       __CT??_R0?AVruntime_error@std@@@8??0runtime_error@std@@QAE@ABV01@@Z12 004d0590     TimeLog.obj
 0002:000165ac       __CT??_R0?AVsystem_error@std@@@8??0system_error@std@@QAE@ABV01@@Z20 004d05ac     TimeLog.obj
 0002:000165c8       __CT??_R0?AV_System_error@std@@@8??0_System_error@std@@QAE@ABV01@@Z20 004d05c8     TimeLog.obj
 0002:000165e4       __TI5?AVfailure@ios_base@std@@ 004d05e4     TimeLog.obj
 0002:000165f4       __CTA5?AVfailure@ios_base@std@@ 004d05f4     TimeLog.obj
 0002:0001660c       __CT??_R0?AVfailure@ios_base@std@@@8??0failure@ios_base@std@@QAE@ABV012@@Z20 004d060c     TimeLog.obj
 0002:00016994       __TI2?AVbad_cast@std@@     004d0994     S04_MyWork05.obj
 0002:000169a4       __CTA2?AVbad_cast@std@@    004d09a4     S04_MyWork05.obj
 0002:000169b0       __CT??_R0?AVbad_cast@std@@@8??0bad_cast@std@@QAE@ABV01@@Z12 004d09b0     S04_MyWork05.obj
 0002:00016aec       __TI2?AVbad_alloc@std@@    004d0aec     libcpmt:xthrow.obj
 0002:00016afc       __CTA2?AVbad_alloc@std@@   004d0afc     libcpmt:xthrow.obj
 0002:00016b08       __CT??_R0?AVlogic_error@std@@@8??0logic_error@std@@QAE@ABV01@@Z12 004d0b08     libcpmt:xthrow.obj
 0002:00016b24       __TI3?AVlength_error@std@@ 004d0b24     libcpmt:xthrow.obj
 0002:00016b34       __CTA3?AVlength_error@std@@ 004d0b34     libcpmt:xthrow.obj
 0002:00016b44       __CT??_R0?AVlength_error@std@@@8??0length_error@std@@QAE@ABV01@@Z12 004d0b44     libcpmt:xthrow.obj
 0002:00016b60       __TI3?AVout_of_range@std@@ 004d0b60     libcpmt:xthrow.obj
 0002:00016b70       __CTA3?AVout_of_range@std@@ 004d0b70     libcpmt:xthrow.obj
 0002:00016b80       __CT??_R0?AVout_of_range@std@@@8??0out_of_range@std@@QAE@ABV01@@Z12 004d0b80     libcpmt:xthrow.obj
 0002:00016b9c       __TI2?AVruntime_error@std@@ 004d0b9c     libcpmt:xthrow.obj
 0002:00016bac       __CTA2?AVruntime_error@std@@ 004d0bac     libcpmt:xthrow.obj
 0002:00016c70       __TI4?AVsystem_error@std@@ 004d0c70     libcpmt:thread0.obj
 0002:00016c80       __CTA4?AVsystem_error@std@@ 004d0c80     libcpmt:thread0.obj
 0002:00016e64       __TI2?AVbad_exception@std@@ 004d0e64     libvcruntime:frame.obj
 0002:00016e74       __CTA2?AVbad_exception@std@@ 004d0e74     libvcruntime:frame.obj
 0002:00016e80       __CT??_R0?AVbad_exception@std@@@8??0bad_exception@std@@QAE@ABV01@@Z12 004d0e80     libvcruntime:frame.obj
 0002:000174ac       __IMPORT_DESCRIPTOR_KERNEL32 004d14ac     kernel32:KERNEL32.dll
 0002:000174c0       __IMPORT_DESCRIPTOR_USER32 004d14c0     user32:USER32.dll
 0002:000174d4       __IMPORT_DESCRIPTOR_GDI32  004d14d4     gdi32:GDI32.dll
 0002:000174e8       __IMPORT_DESCRIPTOR_BugTrap 004d14e8     BugTrap:BugTrap.dll
 0002:000174fc       __IMPORT_DESCRIPTOR_WS2_32 004d14fc     WS2_32:WS2_32.dll
 0002:00017510       __NULL_IMPORT_DESCRIPTOR   004d1510     kernel32:KERNEL32.dll
 0003:00000000       ?_Static@?1???$_Immortalize_memcpy_image@V_Iostream_error_category2@std@@@std@@YAABV_Iostream_error_category2@1@XZ@4U?$_Constexpr_immortalize_impl@V_Iostream_error_category2@std@@@1@A 004d2000     TimeLog.obj
 0003:00001390       ?mGAME@@3VMyGame@@A        004d3390     S07_MyGame01.obj
 0003:00009938       ?mUTIL@@3VMyUtil@@A        004db938     S07_MyGame03.obj
 0003:00009a68       ?mLEVEL@@3VLEVELSYSTEM@@A  004dba68     S08_MyGameSystem.obj
 0003:0000b5f8       ?mPAT@@3VPATSYSTEM@@A      004dd5f8     S08_MyGameSystem.obj
 0003:0000b618       ?mSphinx@@3VCSphinx@@A     004dd618     S11_Sphinx.obj
 0003:00015800       ?mSERVER_INFO@@3USERVER_INFO@@A 004e7800     Server_Map.obj
 0003:000159a8       ?_Static@?1???$_Immortalize_memcpy_image@V_Generic_error_category@std@@@std@@YAABV_Generic_error_category@1@XZ@4V21@B 004e79a8     libcpmt:thread0.obj
 0003:000159b4       ?_Sync@ios_base@std@@0_NA  004e79b4     libcpmt:ios.obj
 0003:000159bc       ___scrt_native_dllmain_reason 004e79bc     LIBCMT:utility.obj
 0003:000159c0       __Init_global_epoch        004e79c0     LIBCMT:thread_safe_statics.obj
 0003:00015a00       ___security_cookie         004e7a00     LIBCMT:gs_cookie.obj
 0003:00015a40       ___security_cookie_complement 004e7a40     LIBCMT:gs_cookie.obj
 0003:00015a50       ___isa_enabled             004e7a50     LIBCMT:cpu_disp.obj
 0003:00015a54       __fltused                  004e7a54     LIBCMT:fltused.obj
 0003:00015a60       ___scrt_default_matherr    004e7a60     LIBCMT:matherr.obj
 0003:00015a80       __NLG_Destination          004e7a80     libvcruntime:exsup.obj
 0003:00015a90       ___acrt_lconv_c            004e7a90     libucrt:localeconv.obj
 0003:00015ae0       ___acrt_lconv              004e7ae0     libucrt:localeconv.obj
 0003:00015ae4       ___acrt_lconv_static_decimal 004e7ae4     libucrt:localeconv.obj
 0003:00015ae8       ___acrt_lconv_static_W_decimal 004e7ae8     libucrt:localeconv.obj
 0003:00015af0       __iob                      004e7af0     libucrt:_file.obj
 0003:00015bb0       ___abort_behavior          004e7bb0     libucrt:abort.obj
 0003:00015bb4       __pctype                   004e7bb4     libucrt:ctype.obj
 0003:00015bb8       __pwctype                  004e7bb8     libucrt:ctype.obj
 0003:00015bc8       ___acrt_initial_locale_data 004e7bc8     libucrt:nlsdata.obj
 0003:00015c80       ___acrt_initial_locale_pointers 004e7c80     libucrt:nlsdata.obj
 0003:00015c88       ___acrt_wide_c_locale_string 004e7c88     libucrt:nlsdata.obj
 0003:00015c8c       ___mb_cur_max              004e7c8c     libucrt:nlsdata.obj
 0003:00015c90       ___badioinfo               004e7c90     libucrt:ioinit.obj
 0003:00015e80       __lookuptrailbytes         004e7e80     libucrt:read.obj
 0003:00015f80       ___globallocalestatus      004e7f80     libucrt:glstatus.obj
 0003:00015f88       ___acrt_initial_multibyte_data 004e7f88     libucrt:mbctype.obj
 0003:000164c0       ??_R0?AVexception@std@@@8  004e84c0     TimeLog.obj
 0003:000164dc       ??_R0?AVbad_array_new_length@std@@@8 004e84dc     TimeLog.obj
 0003:00016504       ??_R0?AVbad_alloc@std@@@8  004e8504     TimeLog.obj
 0003:00016520       ??_R0?AVruntime_error@std@@@8 004e8520     TimeLog.obj
 0003:00016540       ??_R0?AVsystem_error@std@@@8 004e8540     TimeLog.obj
 0003:00016560       ??_R0?AV_System_error@std@@@8 004e8560     TimeLog.obj
 0003:00016580       ??_R0?AVfailure@ios_base@std@@@8 004e8580     TimeLog.obj
 0003:000165a4       ??_R0?AVbad_cast@std@@@8   004e85a4     S04_MyWork05.obj
 0003:000165c0       ??_R0?AVlogic_error@std@@@8 004e85c0     libcpmt:xthrow.obj
 0003:000165e0       ??_R0?AVlength_error@std@@@8 004e85e0     libcpmt:xthrow.obj
 0003:00016600       ??_R0?AVout_of_range@std@@@8 004e8600     libcpmt:xthrow.obj
 0003:00016620       ??_R0?AVbad_exception@std@@@8 004e8620     libvcruntime:frame.obj
 0003:00016640       ??_R0?AVerror_category@std@@@8 004e8640     TimeLog.obj
 0003:00016664       ??_R0?AV_Iostream_error_category2@std@@@8 004e8664     TimeLog.obj
 0003:00016690       ??_R0?AV_Facet_base@std@@@8 004e8690     S04_MyWork05.obj
 0003:000166b0       ??_R0?AVfacet@locale@std@@@8 004e86b0     S04_MyWork05.obj
 0003:000166d0       ??_R0?AU_Crt_new_delete@std@@@8 004e86d0     S04_MyWork05.obj
 0003:000166f4       ??_R0?AUctype_base@std@@@8 004e86f4     S04_MyWork05.obj
 0003:00016714       ??_R0?AV?$ctype@D@std@@@8  004e8714     S04_MyWork05.obj
 0003:00016730       ??_R0?AV?$num_put@DV?$ostreambuf_iterator@DU?$char_traits@D@std@@@std@@@std@@@8 004e8730     S04_MyWork05.obj
 0003:00016784       ??_R0?AV?$numpunct@D@std@@@8 004e8784     S04_MyWork05.obj
 0003:000167a4       ??_R0?AVCSphinx@@@8        004e87a4     S11_Sphinx.obj
 0003:000167bc       ??_R0?AVios_base@std@@@8   004e87bc     libcpmt:cout.obj
 0003:000167d8       ??_R0?AV?$_Iosb@H@std@@@8  004e87d8     libcpmt:cout.obj
 0003:000167f4       ??_R0?AV?$basic_ios@DU?$char_traits@D@std@@@std@@@8 004e87f4     libcpmt:cout.obj
 0003:0001682c       ??_R0?AV?$basic_streambuf@DU?$char_traits@D@std@@@std@@@8 004e882c     libcpmt:cout.obj
 0003:00016868       ??_R0?AV?$basic_ostream@DU?$char_traits@D@std@@@std@@@8 004e8868     libcpmt:cout.obj
 0003:000168a4       ??_R0?AV?$basic_filebuf@DU?$char_traits@D@std@@@std@@@8 004e88a4     libcpmt:cout.obj
 0003:000168e0       ??_R0?AVcodecvt_base@std@@@8 004e88e0     libcpmt:cout.obj
 0003:00016900       ??_R0?AV?$codecvt@DDU_Mbstatet@@@std@@@8 004e8900     libcpmt:cout.obj
 0003:0001692c       ??_R0?AV_Generic_error_category@std@@@8 004e892c     libcpmt:thread0.obj
 0003:00016958       ??_R0?AV_Locimp@locale@std@@@8 004e8958     libcpmt:locale0.obj
 0003:0001697c       ??_R0?AVtype_info@@@8      004e897c     LIBCMT:std_type_info_static.obj
 0003:00016998       ?_OptionsStorage@?1??__local_stdio_printf_options@@9@4_KA 004e8998     TimeLog.obj
 0003:000181c8       ?mTRANSFER@@3VMyTransfer@@A 004ea1c8     H05_MyTransfer.obj
 0003:00021e4c       ?pGetTickCount64@?1??getMSTime@@YA_JXZ@4P6G_KXZA 004f3e4c     Helpers.obj
 0003:00021e50       ?id@?$num_put@DV?$ostreambuf_iterator@DU?$char_traits@D@std@@@std@@@std@@2V0locale@2@A 004f3e50     S04_MyWork05.obj
 0003:00021e54       ?id@?$numpunct@D@std@@2V0locale@2@A 004f3e54     S04_MyWork05.obj
 0003:00021e58       ?_Psave@?$_Facetptr@V?$ctype@D@std@@@std@@2PBVfacet@locale@2@B 004f3e58     S04_MyWork05.obj
 0003:00021e5c       ?_Psave@?$_Facetptr@V?$num_put@DV?$ostreambuf_iterator@DU?$char_traits@D@std@@@std@@@std@@@std@@2PBVfacet@locale@2@B 004f3e5c     S04_MyWork05.obj
 0003:00021e60       ?_Psave@?$_Facetptr@V?$numpunct@D@std@@@std@@2PBVfacet@locale@2@B 004f3e60     S04_MyWork05.obj
 0003:00021e68       ?mSERVER@@3VMyServer@@A    004f3e68     S02_MyServer.obj
 0003:0002201c       ?mUSER@@3PAVMyUser@@A      004f401c     S03_MyUser.obj
 0003:00022020       ?mWORK@@3VMyWork@@A        004f4020     S04_MyWork01.obj
 0003:00022420       ?W_FUNCTION@@3PAUWORKER_FUNCTION@@A 004f4420     S04_MyWork02.obj
 0003:00022820       ?_OptionsStorage@?1??__local_stdio_scanf_options@@9@4_KA 004f4820     S04_MyWork02.obj
 0003:00022828       ?mPLAYUSER_COM@@3VMyPlayUserCom@@A 004f4828     S06_MyUpperCom.obj
 0003:0003d898       ?mVALETINFO@@3VMyValetInfo@@A 0050f898     S06_MyUpperCom.obj
 0003:000562c8       ?mRELAY_COM@@3VMyRelayCom@@A 005282c8     S06_MyUpperCom.obj
 0003:0006e9c8       ?mEXTRA_COM@@3VMyExtraCom@@A 005409c8     S06_MyUpperCom.obj
 0003:0008a2a8       ?mGAMELOG@@3VMyGameLog@@A  0055c2a8     S06_MyUpperCom.obj
 0003:000917f8       ?mCENTER_COM@@3VMyCenterCom@@A 005637f8     S06_MyUpperCom.obj
 0003:000a9f58       ?mAVATAR_OBJECT@@3PAVAVATAR_OBJECT@@A 0057bf58     S07_MyGame04.obj
 0003:0054b818       ?mMONSTER_OBJECT@@3PAVMONSTER_OBJECT@@A 00a1d818     S07_MyGame05.obj
 0003:007f4a88       ?mITEM_OBJECT@@3PAVITEM_OBJECT@@A 00cc6a88     S07_MyGame06.obj
 0003:0082b588       ?mZONEMAININFO@@3VZONEMAININFO@@A 00cfd588     S07_MyGame06.obj
 0003:0082cb68       ?mZONENPCINFO@@3VZONENPCINFO@@A 00cfeb68     S07_MyGame06.obj
 0003:008d7f40       ?mHACKINFO@@3VHACKINFO@@A  00da9f40     S07_MyGame06.obj
 0003:008e1b88       ?mSHOP_OBJECT@@3PAVSHOP_OBJECT@@A 00db3b88     S07_MyGame08.obj
 0003:00aa0fc8       ?mNPC@@3VNPCSYSTEM@@A      00f72fc8     S08_MyGameSystem.obj
 0003:00aa0fe8       ?mSKILL@@3VSKILLSYSTEM@@A  00f72fe8     S08_MyGameSystem.obj
 0003:00aa0ff0       ?mMONSTER@@3VMONSTERSYSTEM@@A 00f72ff0     S08_MyGameSystem.obj
 0003:00aa1010       ?mITEM@@3VITEMSYSTEM@@A    00f73010     S08_MyGameSystem.obj
 0003:00b16c30       ?mQUEST@@3VQUESTSYSTEM@@A  00fe8c30     S08_MyGameSystem.obj
 0003:00b16c50       ?mSocket@@3VSOCKETSYSTEM@@A 00fe8c50     S08_MyGameSystem.obj
 0003:00b16c70       ?mWORLD@@3VWORLD_FOR_GXD@@A 00fe8c70     S09_MyWorld.obj
 0003:00b16c88       ?mSUMMON@@3VMySummonSystem@@A 00fe8c88     S10_MySummonSystem.obj
 0003:00b1ab20       ?mBaseTickCountForLogic@@3KA 00fecb20     Server_Map.obj
 0003:00b1ab24       ?mPostTickCountForLogic@@3KA 00fecb24     Server_Map.obj
 0003:00b1ab28       ?mCheckLogicFlag@@3HA      00fecb28     Server_Map.obj
 0003:00b1ab2c       ?hMainWindow@@3PAUHWND__@@A 00fecb2c     Server_Map.obj
 0003:00b1ab38       ?cout@std@@3V?$basic_ostream@DU?$char_traits@D@std@@@1@A 00fecb38     libcpmt:cout.obj
 0003:00b1abe0       ?id@?$codecvt@DDU_Mbstatet@@@std@@2V0locale@2@A 00fecbe0     libcpmt:cout.obj
 0003:00b1abe4       ?_Stinit@?1??_Init@?$basic_filebuf@DU?$char_traits@D@std@@@std@@IAEXPAU_iobuf@@W4_Initfl@23@@Z@4U_Mbstatet@@A 00fecbe4     libcpmt:cout.obj
 0003:00b1abec       ?_Psave@?$_Facetptr@V?$codecvt@DDU_Mbstatet@@@std@@@std@@2PBVfacet@locale@2@B 00fecbec     libcpmt:cout.obj
 0003:00b1acb8       ?_Id_cnt@id@locale@std@@0HA 00feccb8     libcpmt:locale0.obj
 0003:00b1acbc       ?_Clocptr@_Locimp@locale@std@@0PAV123@A 00feccbc     libcpmt:locale0.obj
 0003:00b1acc0       ?id@?$ctype@G@std@@2V0locale@2@A 00feccc0     libcpmt:locale0.obj
 0003:00b1acc4       ?id@?$codecvt@_WDU_Mbstatet@@@std@@2V0locale@2@A 00feccc4     libcpmt:locale0.obj
 0003:00b1acc8       ?id@?$codecvt@GDU_Mbstatet@@@std@@2V0locale@2@A 00feccc8     libcpmt:locale0.obj
 0003:00b1accc       ?id@?$ctype@_W@std@@2V0locale@2@A 00fecccc     libcpmt:locale0.obj
 0003:00b1acd0       ?id@?$ctype@D@std@@2V0locale@2@A 00feccd0     libcpmt:locale0.obj
 0003:00b1acec       ?_Index@ios_base@std@@0HA  00feccec     libcpmt:ios.obj
 0003:00b1ad24       ?_Ptr_cin@std@@3PAV?$basic_istream@DU?$char_traits@D@std@@@1@A 00fecd24     libcpmt:iosptrs.obj
 0003:00b1ad28       ?_Ptr_cout@std@@3PAV?$basic_ostream@DU?$char_traits@D@std@@@1@A 00fecd28     libcpmt:iosptrs.obj
 0003:00b1ad2c       ?_Ptr_cerr@std@@3PAV?$basic_ostream@DU?$char_traits@D@std@@@1@A 00fecd2c     libcpmt:iosptrs.obj
 0003:00b1ad30       ?_Ptr_clog@std@@3PAV?$basic_ostream@DU?$char_traits@D@std@@@1@A 00fecd30     libcpmt:iosptrs.obj
 0003:00b1ad34       ?_Ptr_wcin@std@@3PAV?$basic_istream@_WU?$char_traits@_W@std@@@1@A 00fecd34     libcpmt:iosptrs.obj
 0003:00b1ad38       ?_Ptr_wcout@std@@3PAV?$basic_ostream@_WU?$char_traits@_W@std@@@1@A 00fecd38     libcpmt:iosptrs.obj
 0003:00b1ad3c       ?_Ptr_wcerr@std@@3PAV?$basic_ostream@_WU?$char_traits@_W@std@@@1@A 00fecd3c     libcpmt:iosptrs.obj
 0003:00b1ad40       ?_Ptr_wclog@std@@3PAV?$basic_ostream@_WU?$char_traits@_W@std@@@1@A 00fecd40     libcpmt:iosptrs.obj
 0003:00b1ad70       ?id@?$num_get@DV?$istreambuf_iterator@DU?$char_traits@D@std@@@std@@@std@@2V0locale@2@A 00fecd70     libcpmt:locale.obj
 0003:00b1ad80       ?id@?$time_put@_WV?$ostreambuf_iterator@_WU?$char_traits@_W@std@@@std@@@std@@2V0locale@2@A 00fecd80     libcpmt:wlocale.obj
 0003:00b1ad84       ?id@?$num_get@_WV?$istreambuf_iterator@_WU?$char_traits@_W@std@@@std@@@std@@2V0locale@2@A 00fecd84     libcpmt:wlocale.obj
 0003:00b1ad88       ?id@?$num_put@_WV?$ostreambuf_iterator@_WU?$char_traits@_W@std@@@std@@@std@@2V0locale@2@A 00fecd88     libcpmt:wlocale.obj
 0003:00b1ad8c       ?id@?$numpunct@_W@std@@2V0locale@2@A 00fecd8c     libcpmt:wlocale.obj
 0003:00b1ad90       ?id@?$collate@_W@std@@2V0locale@2@A 00fecd90     libcpmt:wlocale.obj
 0003:00b1ad94       ?id@?$messages@_W@std@@2V0locale@2@A 00fecd94     libcpmt:wlocale.obj
 0003:00b1ad98       ?id@?$money_get@_WV?$istreambuf_iterator@_WU?$char_traits@_W@std@@@std@@@std@@2V0locale@2@A 00fecd98     libcpmt:wlocale.obj
 0003:00b1ad9c       ?id@?$money_put@_WV?$ostreambuf_iterator@_WU?$char_traits@_W@std@@@std@@@std@@2V0locale@2@A 00fecd9c     libcpmt:wlocale.obj
 0003:00b1ada0       ?id@?$moneypunct@_W$0A@@std@@2V0locale@2@A 00fecda0     libcpmt:wlocale.obj
 0003:00b1ada4       ?id@?$moneypunct@_W$00@std@@2V0locale@2@A 00fecda4     libcpmt:wlocale.obj
 0003:00b1ada8       ?id@?$time_get@_WV?$istreambuf_iterator@_WU?$char_traits@_W@std@@@std@@@std@@2V0locale@2@A 00fecda8     libcpmt:wlocale.obj
 0003:00b1adac       ?id@?$num_get@GV?$istreambuf_iterator@GU?$char_traits@G@std@@@std@@@std@@2V0locale@2@A 00fecdac     libcpmt:wlocale.obj
 0003:00b1adb0       ?id@?$num_put@GV?$ostreambuf_iterator@GU?$char_traits@G@std@@@std@@@std@@2V0locale@2@A 00fecdb0     libcpmt:wlocale.obj
 0003:00b1adb4       ?id@?$numpunct@G@std@@2V0locale@2@A 00fecdb4     libcpmt:wlocale.obj
 0003:00b1adb8       ?id@?$collate@G@std@@2V0locale@2@A 00fecdb8     libcpmt:wlocale.obj
 0003:00b1adbc       ?id@?$messages@G@std@@2V0locale@2@A 00fecdbc     libcpmt:wlocale.obj
 0003:00b1adc0       ?id@?$money_get@GV?$istreambuf_iterator@GU?$char_traits@G@std@@@std@@@std@@2V0locale@2@A 00fecdc0     libcpmt:wlocale.obj
 0003:00b1adc4       ?id@?$money_put@GV?$ostreambuf_iterator@GU?$char_traits@G@std@@@std@@@std@@2V0locale@2@A 00fecdc4     libcpmt:wlocale.obj
 0003:00b1adc8       ?id@?$moneypunct@G$0A@@std@@2V0locale@2@A 00fecdc8     libcpmt:wlocale.obj
 0003:00b1adcc       ?id@?$moneypunct@G$00@std@@2V0locale@2@A 00fecdcc     libcpmt:wlocale.obj
 0003:00b1add0       ?id@?$time_get@GV?$istreambuf_iterator@GU?$char_traits@G@std@@@std@@@std@@2V0locale@2@A 00fecdd0     libcpmt:wlocale.obj
 0003:00b1add4       ?id@?$time_put@GV?$ostreambuf_iterator@GU?$char_traits@G@std@@@std@@@std@@2V0locale@2@A 00fecdd4     libcpmt:wlocale.obj
 0003:00b1add8       ?id@?$collate@D@std@@2V0locale@2@A 00fecdd8     libcpmt:xlocale.obj
 0003:00b1addc       ?id@?$messages@D@std@@2V0locale@2@A 00fecddc     libcpmt:xlocale.obj
 0003:00b1ade0       ?id@?$money_get@DV?$istreambuf_iterator@DU?$char_traits@D@std@@@std@@@std@@2V0locale@2@A 00fecde0     libcpmt:xlocale.obj
 0003:00b1ade4       ?id@?$money_put@DV?$ostreambuf_iterator@DU?$char_traits@D@std@@@std@@@std@@2V0locale@2@A 00fecde4     libcpmt:xlocale.obj
 0003:00b1ade8       ?id@?$moneypunct@D$0A@@std@@2V0locale@2@A 00fecde8     libcpmt:xlocale.obj
 0003:00b1adec       ?id@?$moneypunct@D$00@std@@2V0locale@2@A 00fecdec     libcpmt:xlocale.obj
 0003:00b1adf0       ?id@?$time_get@DV?$istreambuf_iterator@DU?$char_traits@D@std@@@std@@@std@@2V0locale@2@A 00fecdf0     libcpmt:xlocale.obj
 0003:00b1adf4       ?id@?$time_put@DV?$ostreambuf_iterator@DU?$char_traits@D@std@@@std@@@std@@2V0locale@2@A 00fecdf4     libcpmt:xlocale.obj
 0003:00b1adf8       ___scrt_current_native_startup_state 00fecdf8     LIBCMT:utility.obj
 0003:00b1adfc       ___scrt_native_startup_lock 00fecdfc     LIBCMT:utility.obj
 0003:00b1b144       __tls_index                00fed144     LIBCMT:tlssup.obj
 0003:00b1b148       ___isa_available           00fed148     LIBCMT:cpu_disp.obj
 0003:00b1b14c       ___favor                   00fed14c     LIBCMT:cpu_disp.obj
 0003:00b1b150       ___scrt_debugger_hook_flag 00fed150     LIBCMT:utility_desktop.obj
 0003:00b1b158       ?__type_info_root_node@@3U__type_info_node@@A 00fed158     LIBCMT:tncleanup.obj
 0003:00b1b160       ?__WinRTOutOfMemoryExceptionCallback@@3P6GPAXXZA 00fed160     libvcruntime:ehhelpers.obj
 0003:00b1b18c       ___pPurecall               00fed18c     libvcruntime:purevirt_data.obj
 0003:00b1b1ac       ?pArgList@UnDecorator@@0PAVReplicator@@A 00fed1ac     libvcruntime:undname.obj
 0003:00b1b1b0       ?pZNameList@UnDecorator@@0PAVReplicator@@A 00fed1b0     libvcruntime:undname.obj
 0003:00b1b1b4       ?pTemplateArgList@UnDecorator@@0PAVReplicator@@A 00fed1b4     libvcruntime:undname.obj
 0003:00b1b1b8       ?gName@UnDecorator@@0PBDB  00fed1b8     libvcruntime:undname.obj
 0003:00b1b1bc       ?name@UnDecorator@@0PBDB   00fed1bc     libvcruntime:undname.obj
 0003:00b1b1c0       ?disableFlags@UnDecorator@@0KA 00fed1c0     libvcruntime:undname.obj
 0003:00b1b1c4       ?fExplicitTemplateParams@UnDecorator@@0_NA 00fed1c4     libvcruntime:undname.obj
 0003:00b1b1c5       ?fGetTemplateArgumentList@UnDecorator@@0_NA 00fed1c5     libvcruntime:undname.obj
 0003:00b1b1c8       ?m_pGetParameter@UnDecorator@@0P6APADJ@ZA 00fed1c8     libvcruntime:undname.obj
 0003:00b1b1cc       ?m_CHPENameOffset@UnDecorator@@0KA 00fed1cc     libvcruntime:undname.obj
 0003:00b1b1d0       ?m_recursionLevel@UnDecorator@@0KA 00fed1d0     libvcruntime:undname.obj
 0003:00b1b20c       ___acrt_lconv_static_null  00fed20c     libucrt:localeconv.obj
 0003:00b1b210       ___acrt_lconv_static_W_null 00fed210     libucrt:localeconv.obj
 0003:00b1b214       __nstream                  00fed214     libucrt:_file.obj
 0003:00b1b218       ___piob                    00fed218     libucrt:_file.obj
 0003:00b1b21c       __cflush                   00fed21c     libucrt:_file.obj
 0003:00b1b490       __environ_table            00fed490     libucrt:environment_initialization.obj
 0003:00b1b494       __wenviron_table           00fed494     libucrt:environment_initialization.obj
 0003:00b1b498       ___dcrt_initial_wide_environment 00fed498     libucrt:environment_initialization.obj
 0003:00b1b49c       ___dcrt_initial_narrow_environment 00fed49c     libucrt:environment_initialization.obj
 0003:00b1b4a0       ___acrt_atexit_table       00fed4a0     libucrt:onexit.obj
 0003:00b1b4ac       ___acrt_at_quick_exit_table 00fed4ac     libucrt:onexit.obj
 0003:00b1b4c0       __pgmptr                   00fed4c0     libucrt:argv_data.obj
 0003:00b1b4c4       ___argc                    00fed4c4     libucrt:argv_data.obj
 0003:00b1b4c8       ___argv                    00fed4c8     libucrt:argv_data.obj
 0003:00b1b4cc       ___wargv                   00fed4cc     libucrt:argv_data.obj
 0003:00b1b4d0       __acmdln                   00fed4d0     libucrt:argv_data.obj
 0003:00b1b4d4       __wcmdln                   00fed4d4     libucrt:argv_data.obj
 0003:00b1b4d8       ___acrt_locale_changed_data 00fed4d8     libucrt:wsetlocale.obj
 0003:00b1b4e0       __commode                  00fed4e0     libucrt:ncommode.obj
 0003:00b1b4e4       ___acrt_current_locale_data 00fed4e4     libucrt:nlsdata.obj
 0003:00b1b4f4       ___acrt_stdout_buffer      00fed4f4     libucrt:_sftbuf.obj
 0003:00b1b4f8       ___acrt_stderr_buffer      00fed4f8     libucrt:_sftbuf.obj
 0003:00b1b500       ___pioinfo                 00fed500     libucrt:ioinit.obj
 0003:00b1b700       __nhandle                  00fed700     libucrt:ioinit.obj
 0003:00b1b704       ?_timezone@@3V?$dual_state_global@J@__crt_state_management@@A 00fed704     libucrt:timeset.obj
 0003:00b1b708       ?_daylight@@3V?$dual_state_global@H@__crt_state_management@@A 00fed708     libucrt:timeset.obj
 0003:00b1b70c       ?_dstbias@@3V?$dual_state_global@J@__crt_state_management@@A 00fed70c     libucrt:timeset.obj
 0003:00b1b8d4       __mbctype                  00fed8d4     libucrt:mbctype.obj
 0003:00b1b8d8       __mbcasemap                00fed8d8     libucrt:mbctype.obj
 0003:00b1b8dc       ___acrt_current_multibyte_data 00fed8dc     libucrt:mbctype.obj
 0003:00b1b8e8       ___acrt_heap               00fed8e8     libucrt:heap_handle.obj
 0003:00b1b8ec       __fmode                    00fed8ec     libucrt:txtmode.obj
 0003:00b1b8f0       ___fastflag                00fed8f0     libucrt:fp_flags.obj
 0003:00b1b904       ___dyn_tls_dtor_callback   00fed904     <common>
 0003:00b1b908       ___dyn_tls_init_callback   00fed908     <common>
 0003:00b1b90c       ___scrt_ucrt_dll_is_in_use 00fed90c     <common>
 0003:00b1b910       ___use_sse2_mathfcns       00fed910     <common>
 0003:00b1b914       __pmatherr                 00fed914     <common>

 entry point at        0001:00091471

 Static symbols

 0000:ff3fd000       .debug$S                   00400000     BugTrap:BugTrap.dll
 0000:ff3fd000       .debug$S                   00400000     BugTrap:BugTrap.dll
 0000:ff3fd000       .debug$S                   00400000     BugTrap:BugTrap.dll
 0000:ff3fd000       .debug$S                   00400000     BugTrap:BugTrap.dll
 0000:ff3fd000       .debug$S                   00400000     WS2_32:WS2_32.dll
 0000:ff3fd000       .debug$S                   00400000     WS2_32:WS2_32.dll
 0000:ff3fd000       .debug$S                   00400000     WS2_32:WS2_32.dll
 0000:ff3fd000       .debug$S                   00400000     WS2_32:WS2_32.dll
 0000:ff3fd000       .debug$S                   00400000     WS2_32:WS2_32.dll
 0000:ff3fd000       .debug$S                   00400000     WS2_32:WS2_32.dll
 0000:ff3fd000       .debug$S                   00400000     WS2_32:WS2_32.dll
 0000:ff3fd000       .debug$S                   00400000     WS2_32:WS2_32.dll
 0000:ff3fd000       .debug$S                   00400000     WS2_32:WS2_32.dll
 0000:ff3fd000       .debug$S                   00400000     WS2_32:WS2_32.dll
 0000:ff3fd000       .debug$S                   00400000     WS2_32:WS2_32.dll
 0000:ff3fd000       .debug$S                   00400000     WS2_32:WS2_32.dll
 0000:ff3fd000       .debug$S                   00400000     WS2_32:WS2_32.dll
 0000:ff3fd000       .debug$S                   00400000     WS2_32:WS2_32.dll
 0000:ff3fd000       .debug$S                   00400000     WS2_32:WS2_32.dll
 0000:ff3fd000       .debug$S                   00400000     WS2_32:WS2_32.dll
 0000:ff3fd000       .debug$S                   00400000     WS2_32:WS2_32.dll
 0000:ff3fd000       .debug$S                   00400000     WS2_32:WS2_32.dll
 0000:ff3fd000       .debug$S                   00400000     gdi32:GDI32.dll
 0000:ff3fd000       .debug$S                   00400000     kernel32:KERNEL32.dll
 0000:ff3fd000       .debug$S                   00400000     kernel32:KERNEL32.dll
 0000:ff3fd000       .debug$S                   00400000     kernel32:KERNEL32.dll
 0000:ff3fd000       .debug$S                   00400000     kernel32:KERNEL32.dll
 0000:ff3fd000       .debug$S                   00400000     kernel32:KERNEL32.dll
 0000:ff3fd000       .debug$S                   00400000     kernel32:KERNEL32.dll
 0000:ff3fd000       .debug$S                   00400000     kernel32:KERNEL32.dll
 0000:ff3fd000       .debug$S                   00400000     kernel32:KERNEL32.dll
 0000:ff3fd000       .debug$S                   00400000     kernel32:KERNEL32.dll
 0000:ff3fd000       .debug$S                   00400000     kernel32:KERNEL32.dll
 0000:ff3fd000       .debug$S                   00400000     kernel32:KERNEL32.dll
 0000:ff3fd000       .debug$S                   00400000     kernel32:KERNEL32.dll
 0000:ff3fd000       .debug$S                   00400000     kernel32:KERNEL32.dll
 0000:ff3fd000       .debug$S                   00400000     kernel32:KERNEL32.dll
 0000:ff3fd000       .debug$S                   00400000     kernel32:KERNEL32.dll
 0000:ff3fd000       .debug$S                   00400000     kernel32:KERNEL32.dll
 0000:ff3fd000       .debug$S                   00400000     kernel32:KERNEL32.dll
 0000:ff3fd000       .debug$S                   00400000     kernel32:KERNEL32.dll
 0000:ff3fd000       .debug$S                   00400000     kernel32:KERNEL32.dll
 0000:ff3fd000       .debug$S                   00400000     kernel32:KERNEL32.dll
 0000:ff3fd000       .debug$S                   00400000     kernel32:KERNEL32.dll
 0000:ff3fd000       .debug$S                   00400000     kernel32:KERNEL32.dll
 0000:ff3fd000       .debug$S                   00400000     kernel32:KERNEL32.dll
 0000:ff3fd000       .debug$S                   00400000     kernel32:KERNEL32.dll
 0000:ff3fd000       .debug$S                   00400000     kernel32:KERNEL32.dll
 0000:ff3fd000       .debug$S                   00400000     kernel32:KERNEL32.dll
 0000:ff3fd000       .debug$S                   00400000     kernel32:KERNEL32.dll
 0000:ff3fd000       .debug$S                   00400000     kernel32:KERNEL32.dll
 0000:ff3fd000       .debug$S                   00400000     kernel32:KERNEL32.dll
 0000:ff3fd000       .debug$S                   00400000     kernel32:KERNEL32.dll
 0000:ff3fd000       .debug$S                   00400000     kernel32:KERNEL32.dll
 0000:ff3fd000       .debug$S                   00400000     kernel32:KERNEL32.dll
 0000:ff3fd000       .debug$S                   00400000     kernel32:KERNEL32.dll
 0000:ff3fd000       .debug$S                   00400000     kernel32:KERNEL32.dll
 0000:ff3fd000       .debug$S                   00400000     kernel32:KERNEL32.dll
 0000:ff3fd000       .debug$S                   00400000     kernel32:KERNEL32.dll
 0000:ff3fd000       .debug$S                   00400000     kernel32:KERNEL32.dll
 0000:ff3fd000       .debug$S                   00400000     kernel32:KERNEL32.dll
 0000:ff3fd000       .debug$S                   00400000     kernel32:KERNEL32.dll
 0000:ff3fd000       .debug$S                   00400000     kernel32:KERNEL32.dll
 0000:ff3fd000       .debug$S                   00400000     kernel32:KERNEL32.dll
 0000:ff3fd000       .debug$S                   00400000     kernel32:KERNEL32.dll
 0000:ff3fd000       .debug$S                   00400000     kernel32:KERNEL32.dll
 0000:ff3fd000       .debug$S                   00400000     kernel32:KERNEL32.dll
 0000:ff3fd000       .debug$S                   00400000     kernel32:KERNEL32.dll
 0000:ff3fd000       .debug$S                   00400000     kernel32:KERNEL32.dll
 0000:ff3fd000       .debug$S                   00400000     kernel32:KERNEL32.dll
 0000:ff3fd000       .debug$S                   00400000     kernel32:KERNEL32.dll
 0000:ff3fd000       .debug$S                   00400000     kernel32:KERNEL32.dll
 0000:ff3fd000       .debug$S                   00400000     kernel32:KERNEL32.dll
 0000:ff3fd000       .debug$S                   00400000     kernel32:KERNEL32.dll
 0000:ff3fd000       .debug$S                   00400000     kernel32:KERNEL32.dll
 0000:ff3fd000       .debug$S                   00400000     kernel32:KERNEL32.dll
 0000:ff3fd000       .debug$S                   00400000     kernel32:KERNEL32.dll
 0000:ff3fd000       .debug$S                   00400000     kernel32:KERNEL32.dll
 0000:ff3fd000       .debug$S                   00400000     kernel32:KERNEL32.dll
 0000:ff3fd000       .debug$S                   00400000     kernel32:KERNEL32.dll
 0000:ff3fd000       .debug$S                   00400000     kernel32:KERNEL32.dll
 0000:ff3fd000       .debug$S                   00400000     kernel32:KERNEL32.dll
 0000:ff3fd000       .debug$S                   00400000     kernel32:KERNEL32.dll
 0000:ff3fd000       .debug$S                   00400000     kernel32:KERNEL32.dll
 0000:ff3fd000       .debug$S                   00400000     kernel32:KERNEL32.dll
 0000:ff3fd000       .debug$S                   00400000     kernel32:KERNEL32.dll
 0000:ff3fd000       .debug$S                   00400000     kernel32:KERNEL32.dll
 0000:ff3fd000       .debug$S                   00400000     kernel32:KERNEL32.dll
 0000:ff3fd000       .debug$S                   00400000     kernel32:KERNEL32.dll
 0000:ff3fd000       .debug$S                   00400000     kernel32:KERNEL32.dll
 0000:ff3fd000       .debug$S                   00400000     kernel32:KERNEL32.dll
 0000:ff3fd000       .debug$S                   00400000     kernel32:KERNEL32.dll
 0000:ff3fd000       .debug$S                   00400000     kernel32:KERNEL32.dll
 0000:ff3fd000       .debug$S                   00400000     kernel32:KERNEL32.dll
 0000:ff3fd000       .debug$S                   00400000     kernel32:KERNEL32.dll
 0000:ff3fd000       .debug$S                   00400000     kernel32:KERNEL32.dll
 0000:ff3fd000       .debug$S                   00400000     kernel32:KERNEL32.dll
 0000:ff3fd000       .debug$S                   00400000     kernel32:KERNEL32.dll
 0000:ff3fd000       .debug$S                   00400000     kernel32:KERNEL32.dll
 0000:ff3fd000       .debug$S                   00400000     kernel32:KERNEL32.dll
 0000:ff3fd000       .debug$S                   00400000     kernel32:KERNEL32.dll
 0000:ff3fd000       .debug$S                   00400000     kernel32:KERNEL32.dll
 0000:ff3fd000       .debug$S                   00400000     kernel32:KERNEL32.dll
 0000:ff3fd000       .debug$S                   00400000     kernel32:KERNEL32.dll
 0000:ff3fd000       .debug$S                   00400000     kernel32:KERNEL32.dll
 0000:ff3fd000       .debug$S                   00400000     kernel32:KERNEL32.dll
 0000:ff3fd000       .debug$S                   00400000     kernel32:KERNEL32.dll
 0000:ff3fd000       .debug$S                   00400000     kernel32:KERNEL32.dll
 0000:ff3fd000       .debug$S                   00400000     kernel32:KERNEL32.dll
 0000:ff3fd000       .debug$S                   00400000     kernel32:KERNEL32.dll
 0000:ff3fd000       .debug$S                   00400000     kernel32:KERNEL32.dll
 0000:ff3fd000       .debug$S                   00400000     kernel32:KERNEL32.dll
 0000:ff3fd000       .debug$S                   00400000     kernel32:KERNEL32.dll
 0000:ff3fd000       .debug$S                   00400000     kernel32:KERNEL32.dll
 0000:ff3fd000       .debug$S                   00400000     kernel32:KERNEL32.dll
 0000:ff3fd000       .debug$S                   00400000     kernel32:KERNEL32.dll
 0000:ff3fd000       .debug$S                   00400000     kernel32:KERNEL32.dll
 0000:ff3fd000       .debug$S                   00400000     kernel32:KERNEL32.dll
 0000:ff3fd000       .debug$S                   00400000     kernel32:KERNEL32.dll
 0000:ff3fd000       .debug$S                   00400000     kernel32:KERNEL32.dll
 0000:ff3fd000       .debug$S                   00400000     kernel32:KERNEL32.dll
 0000:ff3fd000       .debug$S                   00400000     kernel32:KERNEL32.dll
 0000:ff3fd000       .debug$S                   00400000     kernel32:KERNEL32.dll
 0000:ff3fd000       .debug$S                   00400000     kernel32:KERNEL32.dll
 0000:ff3fd000       .debug$S                   00400000     kernel32:KERNEL32.dll
 0000:ff3fd000       .debug$S                   00400000     kernel32:KERNEL32.dll
 0000:ff3fd000       .debug$S                   00400000     kernel32:KERNEL32.dll
 0000:ff3fd000       .debug$S                   00400000     kernel32:KERNEL32.dll
 0000:ff3fd000       .debug$S                   00400000     kernel32:KERNEL32.dll
 0000:ff3fd000       .debug$S                   00400000     kernel32:KERNEL32.dll
 0000:ff3fd000       .debug$S                   00400000     kernel32:KERNEL32.dll
 0000:ff3fd000       .debug$S                   00400000     kernel32:KERNEL32.dll
 0000:ff3fd000       .debug$S                   00400000     kernel32:KERNEL32.dll
 0000:ff3fd000       .debug$S                   00400000     kernel32:KERNEL32.dll
 0000:ff3fd000       .debug$S                   00400000     kernel32:KERNEL32.dll
 0000:ff3fd000       .debug$S                   00400000     kernel32:KERNEL32.dll
 0000:ff3fd000       .debug$S                   00400000     kernel32:KERNEL32.dll
 0000:ff3fd000       .debug$S                   00400000     kernel32:KERNEL32.dll
 0000:ff3fd000       .debug$S                   00400000     kernel32:KERNEL32.dll
 0000:ff3fd000       .debug$S                   00400000     kernel32:KERNEL32.dll
 0000:ff3fd000       .debug$S                   00400000     kernel32:KERNEL32.dll
 0000:ff3fd000       .debug$S                   00400000     kernel32:KERNEL32.dll
 0000:ff3fd000       .debug$S                   00400000     kernel32:KERNEL32.dll
 0000:ff3fd000       .debug$S                   00400000     kernel32:KERNEL32.dll
 0000:ff3fd000       .debug$S                   00400000     kernel32:KERNEL32.dll
 0000:ff3fd000       .debug$S                   00400000     kernel32:KERNEL32.dll
 0000:ff3fd000       .debug$S                   00400000     kernel32:KERNEL32.dll
 0000:ff3fd000       .debug$S                   00400000     kernel32:KERNEL32.dll
 0000:ff3fd000       .debug$S                   00400000     kernel32:KERNEL32.dll
 0000:ff3fd000       .debug$S                   00400000     kernel32:KERNEL32.dll
 0000:ff3fd000       .debug$S                   00400000     kernel32:KERNEL32.dll
 0000:ff3fd000       .debug$S                   00400000     user32:USER32.dll
 0000:ff3fd000       .debug$S                   00400000     user32:USER32.dll
 0000:ff3fd000       .debug$S                   00400000     user32:USER32.dll
 0000:ff3fd000       .debug$S                   00400000     user32:USER32.dll
 0000:ff3fd000       .debug$S                   00400000     user32:USER32.dll
 0000:ff3fd000       .debug$S                   00400000     user32:USER32.dll
 0000:ff3fd000       .debug$S                   00400000     user32:USER32.dll
 0000:ff3fd000       .debug$S                   00400000     user32:USER32.dll
 0000:ff3fd000       .debug$S                   00400000     user32:USER32.dll
 0000:ff3fd000       .debug$S                   00400000     user32:USER32.dll
 0001:00000000       ??__Es_randomNumberGenerator@@YAXXZ 00401000 f   Helpers.obj
 0001:00000040       ??__Es_rngLock@@YAXXZ      00401040 f   Helpers.obj
 0001:00000060       ??__EmITEM@@YAXXZ          00401060 f   S08_MyGameSystem.obj
 0001:000000c0       ??__EmSphinx@@YAXXZ        004010c0 f   S11_Sphinx.obj
 0001:000000f0       ??__EmSERVER_INFO@@YAXXZ   004010f0 f   Server_Map.obj
 0001:000000fc       ??__Ecout@std@@YAXXZ       004010fc f   libcpmt:cout.obj
 0001:0000011b       ??__Efout@std@@YAXXZ       0040111b f   libcpmt:cout.obj
 0001:00000155       ??__Einit_cout@std@@YAXXZ  00401155 f   libcpmt:cout.obj
 0001:0000015f       ??__Einitlocks@@YAXXZ      0040115f f   libcpmt:cout.obj
 0001:00000175       ??__Einitlocks@std@@YAXXZ  00401175 f   libcpmt:xlock.obj
 0001:0000018b       ??__Eclassic_locale@std@@YAXXZ 0040118b f   libcpmt:locale0.obj
 0001:00000197       ??__F_Fac_tidy_reg@std@@YAXXZ 00401197 f   libcpmt:locale0.obj
 0001:000001a3       ??__Einitlocks@std@@YAXXZ  004011a3 f   libcpmt:iosptrs.obj
 0001:000001b9       ??__Finit_atexit@@YAXXZ    004011b9 f   libcpmt:iosptrs.obj
 0001:00000390       __catch$??$?6U?$char_traits@D@std@@@std@@YAAAV?$basic_ostream@DU?$char_traits@D@std@@@0@AAV10@PBD@Z$0 00401390 f i TimeLog.obj
 0001:000011c2       __catch$?_Osfx@?$basic_ostream@DU?$char_traits@D@std@@@std@@QAEXXZ$0 004021c2 f i TimeLog.obj
 0001:000015bd       __catch$?flush@?$basic_ostream@DU?$char_traits@D@std@@@std@@QAEAAV12@XZ$0 004025bd f i TimeLog.obj
 0001:00004f58       $LN38                      00405f58     MapKontrolleri.obj
 0001:00004f60       $LN37                      00405f60     MapKontrolleri.obj
 0001:00005048       $LN21                      00406048     MapKontrolleri.obj
 0001:00005050       $LN20                      00406050     MapKontrolleri.obj
 0001:00005e93       __catch$??6?$basic_ostream@DU?$char_traits@D@std@@@std@@QAEAAV01@H@Z$0 00406e93 f i S04_MyWork05.obj
 0001:00006a80       $LN70                      00407a80     S04_MyWork05.obj
 0001:00006a98       $LN69                      00407a98     S04_MyWork05.obj
 0001:00006b48       $LN71                      00407b48     S04_MyWork05.obj
 0001:00007df0       $LN84                      00408df0     S04_MyWork05.obj
 0001:00007df4       $LN83                      00408df4     S04_MyWork05.obj
 0001:00008f6c       $LN87                      00409f6c     S04_MyWork05.obj
 0001:00008f80       $LN88                      00409f80     S04_MyWork05.obj
 0001:00009fb0       $LN86                      0040afb0     S04_MyWork05.obj
 0001:00009fc0       $LN87                      0040afc0     S04_MyWork05.obj
 0001:0000a2fc       $LN51                      0040b2fc     S04_MyWork05.obj
 0001:0000a520       $LN30                      0040b520     S04_MyWork05.obj
 0001:0000b390       $LN69                      0040c390     S04_MyWork05.obj
 0001:0000b3a0       $LN70                      0040c3a0     S04_MyWork05.obj
 0001:0000b3b8       $LN71                      0040c3b8     S04_MyWork05.obj
 0001:0000bd8c       $LN12                      0040cd8c     S04_MyWork05.obj
 0001:0000c340       $LN25                      0040d340     S04_MyWork05.obj
 0001:0000dcf6       __catch$?put@?$basic_ostream@DU?$char_traits@D@std@@@std@@QAEAAV12@D@Z$0 0040ecf6 f i S04_MyWork05.obj
 0001:0000f758       $LN32                      00410758     ItemTypeSetBonus.obj
 0001:0000f7c0       $LN31                      004107c0     ItemTypeSetBonus.obj
 0001:000100ec       $LN136                     004110ec     AtakRate.obj
 0001:00010114       $LN135                     00411114     AtakRate.obj
 0001:00010260       $LN37                      00411260     AtakRate.obj
 0001:00010290       $LN38                      00411290     AtakRate.obj
 0001:00010470       $LN101                     00411470     AtakPower.obj
 0001:00010470       $LN101                     00411470     AtakRate.obj
 0001:000104ac       $LN102                     004114ac     AtakPower.obj
 0001:000104ac       $LN102                     004114ac     AtakRate.obj
 0001:000104e8       $LN103                     004114e8     AtakPower.obj
 0001:000104e8       $LN103                     004114e8     AtakRate.obj
 0001:00010524       $LN104                     00411524     AtakPower.obj
 0001:00010524       $LN104                     00411524     AtakRate.obj
 0001:00010560       $LN105                     00411560     AtakPower.obj
 0001:00010560       $LN105                     00411560     AtakRate.obj
 0001:00010768       $LN70                      00411768     Defans.obj
 0001:0001077c       $LN71                      0041177c     Defans.obj
 0001:000107ac       $LN72                      004117ac     Defans.obj
 0001:000107dc       $LN73                      004117dc     Defans.obj
 0001:0001080c       $LN74                      0041180c     Defans.obj
 0001:00011378       $LN157                     00412378     Defans.obj
 0001:000113a0       $LN156                     004123a0     Defans.obj
 0001:000113d4       $LN158                     004123d4     Defans.obj
 0001:00011578       $LN81                      00412578     Defans.obj
 0001:000115b4       $LN82                      004125b4     Defans.obj
 0001:000115f0       $LN83                      004125f0     Defans.obj
 0001:0001162c       $LN84                      0041262c     Defans.obj
 0001:00011768       $LN37                      00412768     DiðerStatlar.obj
 0001:00011798       $LN38                      00412798     DiðerStatlar.obj
 0001:00012158       $LN146                     00413158     DiðerStatlar.obj
 0001:00012180       $LN145                     00413180     DiðerStatlar.obj
 0001:000121b0       $LN148                     004131b0     DiðerStatlar.obj
 0001:000121c0       $LN147                     004131c0     DiðerStatlar.obj
 0001:000121cc       $LN149                     004131cc     DiðerStatlar.obj
 0001:0001267c       $LN76                      0041367c     DiðerStatlar.obj
 0001:00012688       $LN75                      00413688     DiðerStatlar.obj
 0001:0001269c       $LN78                      0041369c     DiðerStatlar.obj
 0001:000126ac       $LN77                      004136ac     DiðerStatlar.obj
 0001:000126c0       $LN80                      004136c0     DiðerStatlar.obj
 0001:000126d0       $LN79                      004136d0     DiðerStatlar.obj
 0001:00012ee0       $LN126                     00413ee0     DiðerStatlar.obj
 0001:00012f04       $LN125                     00413f04     DiðerStatlar.obj
 0001:00012f38       $LN128                     00413f38     DiðerStatlar.obj
 0001:00012f4c       $LN127                     00413f4c     DiðerStatlar.obj
 0001:00012f5c       $LN129                     00413f5c     DiðerStatlar.obj
 0001:00013838       $LN126                     00414838     DiðerStatlar.obj
 0001:0001385c       $LN125                     0041485c     DiðerStatlar.obj
 0001:00013890       $LN127                     00414890     DiðerStatlar.obj
 0001:000138c0       $LN129                     004148c0     DiðerStatlar.obj
 0001:000138d0       $LN128                     004148d0     DiðerStatlar.obj
 0001:00013ec0       $LN127                     00414ec0     Mana.obj
 0001:00013ec4       $LN126                     00414ec4     Mana.obj
 0001:00013ecc       $LN129                     00414ecc     Mana.obj
 0001:00013edc       $LN128                     00414edc     Mana.obj
 0001:00013ef8       $LN130                     00414ef8     Mana.obj
 0001:00014170       $LN67                      00415170     Mana.obj
 0001:0001419c       $LN69                      0041519c     Mana.obj
 0001:000141e0       $LN68                      004151e0     Mana.obj
 0001:00014400       $LN101                     00415400     Mana.obj
 0001:0001443c       $LN102                     0041543c     Mana.obj
 0001:00014478       $LN103                     00415478     Mana.obj
 0001:000144b4       $LN104                     004154b4     Mana.obj
 0001:000144f0       $LN105                     004154f0     Mana.obj
 0001:000145d4       $LN74                      004155d4     Health.obj
 0001:000145dc       $LN73                      004155dc     Health.obj
 0001:00014610       $LN76                      00415610     Health.obj
 0001:00014624       $LN75                      00415624     Health.obj
 0001:00014824       $LN22                      00415824     Health.obj
 0001:00014838       $LN21                      00415838     Health.obj
 0001:000154f4       $LN621                     004164f4     Health.obj
 0001:000154fc       $LN620                     004164fc     Health.obj
 0001:00015530       $LN623                     00416530     Health.obj
 0001:00015544       $LN622                     00416544     Health.obj
 0001:000156c4       $LN26                      004166c4     Health.obj
 0001:0001594c       $LN47                      0041694c     Health.obj
 0001:00015968       $LN46                      00416968     Health.obj
 0001:0001599c       $LN49                      0041699c     Health.obj
 0001:000159b0       $LN48                      004169b0     Health.obj
 0001:00015b78       $LN39                      00416b78     Health.obj
 0001:00015d38       $LN81                      00416d38     Health.obj
 0001:00015d74       $LN82                      00416d74     Health.obj
 0001:00015db0       $LN83                      00416db0     Health.obj
 0001:00015dec       $LN84                      00416dec     Health.obj
 0001:00016000       $LN82                      00417000     Health.obj
 0001:00016020       $LN83                      00417020     Health.obj
 0001:00016040       $LN84                      00417040     Health.obj
 0001:00016050       $LN85                      00417050     Health.obj
 0001:0001648c       $LN505                     0041748c     AtakPower.obj
 0001:0001648c       $LN505                     0041748c     Health.obj
 0001:000164b4       $LN504                     004174b4     AtakPower.obj
 0001:000164b4       $LN504                     004174b4     Health.obj
 0001:00016508       $LN507                     00417508     AtakPower.obj
 0001:00016508       $LN507                     00417508     Health.obj
 0001:0001651c       $LN506                     0041751c     AtakPower.obj
 0001:0001651c       $LN506                     0041751c     Health.obj
 0001:00016554       $LN509                     00417554     AtakPower.obj
 0001:00016554       $LN509                     00417554     Health.obj
 0001:00016570       $LN508                     00417570     AtakPower.obj
 0001:00016570       $LN508                     00417570     Health.obj
 0001:000165ac       $LN511                     004175ac     AtakPower.obj
 0001:000165ac       $LN511                     004175ac     Health.obj
 0001:000165c4       $LN510                     004175c4     AtakPower.obj
 0001:000165c4       $LN510                     004175c4     Health.obj
 0001:000165f8       $LN513                     004175f8     AtakPower.obj
 0001:000165f8       $LN513                     004175f8     Health.obj
 0001:00016608       $LN512                     00417608     AtakPower.obj
 0001:00016608       $LN512                     00417608     Health.obj
 0001:00016630       $LN514                     00417630     AtakPower.obj
 0001:00016630       $LN514                     00417630     Health.obj
 0001:0001671c       $LN516                     0041771c     AtakPower.obj
 0001:0001671c       $LN516                     0041771c     Health.obj
 0001:00016738       $LN515                     00417738     AtakPower.obj
 0001:00016738       $LN515                     00417738     Health.obj
 0001:00016770       $LN518                     00417770     AtakPower.obj
 0001:00016770       $LN518                     00417770     Health.obj
 0001:00016784       $LN517                     00417784     AtakPower.obj
 0001:00016784       $LN517                     00417784     Health.obj
 0001:000167c4       $LN520                     004177c4     AtakPower.obj
 0001:000167c4       $LN520                     004177c4     Health.obj
 0001:000167e0       $LN519                     004177e0     AtakPower.obj
 0001:000167e0       $LN519                     004177e0     Health.obj
 0001:0001681c       $LN522                     0041781c     AtakPower.obj
 0001:0001681c       $LN522                     0041781c     Health.obj
 0001:00016838       $LN521                     00417838     AtakPower.obj
 0001:00016838       $LN521                     00417838     Health.obj
 0001:00016870       $LN524                     00417870     AtakPower.obj
 0001:00016870       $LN524                     00417870     Health.obj
 0001:00016890       $LN523                     00417890     AtakPower.obj
 0001:00016890       $LN523                     00417890     Health.obj
 0001:000168cc       $LN525                     004178cc     AtakPower.obj
 0001:000168cc       $LN525                     004178cc     Health.obj
 0001:000169ac       $LN527                     004179ac     AtakPower.obj
 0001:000169ac       $LN527                     004179ac     Health.obj
 0001:000169d4       $LN526                     004179d4     AtakPower.obj
 0001:000169d4       $LN526                     004179d4     Health.obj
 0001:00016a30       $LN529                     00417a30     AtakPower.obj
 0001:00016a30       $LN529                     00417a30     Health.obj
 0001:00016a40       $LN528                     00417a40     AtakPower.obj
 0001:00016a40       $LN528                     00417a40     Health.obj
 0001:00016a70       $LN531                     00417a70     AtakPower.obj
 0001:00016a70       $LN531                     00417a70     Health.obj
 0001:00016a90       $LN530                     00417a90     AtakPower.obj
 0001:00016a90       $LN530                     00417a90     Health.obj
 0001:00016ac8       $LN533                     00417ac8     AtakPower.obj
 0001:00016ac8       $LN533                     00417ac8     Health.obj
 0001:00016ad8       $LN532                     00417ad8     AtakPower.obj
 0001:00016ad8       $LN532                     00417ad8     Health.obj
 0001:00016b04       $LN535                     00417b04     AtakPower.obj
 0001:00016b04       $LN535                     00417b04     Health.obj
 0001:00016b14       $LN534                     00417b14     AtakPower.obj
 0001:00016b14       $LN534                     00417b14     Health.obj
 0001:00016b44       $LN537                     00417b44     AtakPower.obj
 0001:00016b44       $LN537                     00417b44     Health.obj
 0001:00016b5c       $LN536                     00417b5c     AtakPower.obj
 0001:00016b5c       $LN536                     00417b5c     Health.obj
 0001:00016b94       $LN539                     00417b94     AtakPower.obj
 0001:00016b94       $LN539                     00417b94     Health.obj
 0001:00016bb0       $LN538                     00417bb0     AtakPower.obj
 0001:00016bb0       $LN538                     00417bb0     Health.obj
 0001:00016be4       $LN540                     00417be4     AtakPower.obj
 0001:00016be4       $LN540                     00417be4     Health.obj
 0001:000179bc       $LN97                      004189bc     S02_MyServer.obj
 0001:000179d0       $LN96                      004189d0     S02_MyServer.obj
 0001:00018aa8       $LN29                      00419aa8     S04_MyWork02.obj
 0001:00018ac0       $LN28                      00419ac0     S04_MyWork02.obj
 0001:00018f14       $LN398                     00419f14     S04_MyWork02.obj
 0001:00018fa0       $LN397                     00419fa0     S04_MyWork02.obj
 0001:000190a0       $LN400                     0041a0a0     S04_MyWork02.obj
 0001:000190a4       $LN399                     0041a0a4     S04_MyWork02.obj
 0001:000190ac       $LN402                     0041a0ac     S04_MyWork02.obj
 0001:000190b0       $LN401                     0041a0b0     S04_MyWork02.obj
 0001:000190b8       $LN404                     0041a0b8     S04_MyWork02.obj
 0001:000190c0       $LN403                     0041a0c0     S04_MyWork02.obj
 0001:000190c8       $LN406                     0041a0c8     S04_MyWork02.obj
 0001:000190d0       $LN405                     0041a0d0     S04_MyWork02.obj
 0001:000190d8       $LN408                     0041a0d8     S04_MyWork02.obj
 0001:000190e0       $LN407                     0041a0e0     S04_MyWork02.obj
 0001:000190e8       $LN410                     0041a0e8     S04_MyWork02.obj
 0001:000190f0       $LN409                     0041a0f0     S04_MyWork02.obj
 0001:000190f8       $LN412                     0041a0f8     S04_MyWork02.obj
 0001:00019100       $LN411                     0041a100     S04_MyWork02.obj
 0001:00019108       $LN414                     0041a108     S04_MyWork02.obj
 0001:00019110       $LN413                     0041a110     S04_MyWork02.obj
 0001:00019118       $LN416                     0041a118     S04_MyWork02.obj
 0001:0001911c       $LN415                     0041a11c     S04_MyWork02.obj
 0001:00019124       $LN418                     0041a124     S04_MyWork02.obj
 0001:00019128       $LN417                     0041a128     S04_MyWork02.obj
 0001:00019130       $LN420                     0041a130     S04_MyWork02.obj
 0001:00019134       $LN419                     0041a134     S04_MyWork02.obj
 0001:00019268       $LN45                      0041a268     S04_MyWork02.obj
 0001:00019294       $LN44                      0041a294     S04_MyWork02.obj
 0001:00019434       $LN34                      0041a434     S04_MyWork02.obj
 0001:0001945c       $LN33                      0041a45c     S04_MyWork02.obj
 0001:0001a0c0       $LN93                      0041b0c0     S04_MyWork02.obj
 0001:0001a0f8       $LN92                      0041b0f8     S04_MyWork02.obj
 0001:0001a128       $LN94                      0041b128     S04_MyWork02.obj
 0001:0001aca4       $LN190                     0041bca4     S04_MyWork02.obj
 0001:0001acc4       $LN191                     0041bcc4     S04_MyWork02.obj
 0001:0001ace4       $LN192                     0041bce4     S04_MyWork02.obj
 0001:0001ad04       $LN193                     0041bd04     S04_MyWork02.obj
 0001:0001d3a4       $LN35                      0041e3a4     S04_MyWork02.obj
 0001:0001e304       $LN37                      0041f304     S04_MyWork02.obj
 0001:0001e8f8       $LN54                      0041f8f8     S04_MyWork02.obj
 0001:0001e900       $LN53                      0041f900     S04_MyWork02.obj
 0001:0001f824       $LN95                      00420824     S04_MyWork02.obj
 0001:0001f874       $LN94                      00420874     S04_MyWork02.obj
 0001:0001f8dc       $LN96                      004208dc     S04_MyWork02.obj
 0001:0001f910       $LN98                      00420910     S04_MyWork02.obj
 0001:0001f94c       $LN97                      0042094c     S04_MyWork02.obj
 0001:0001f97c       $LN99                      0042097c     S04_MyWork02.obj
 0001:000244b0       $LN135                     004254b0     S04_MyWork02.obj
 0001:000244e4       $LN184                     004254e4     S04_MyWork02.obj
 0001:0002534c       $LN201                     0042634c     S04_MyWork02.obj
 0001:00025384       $LN200                     00426384     S04_MyWork02.obj
 0001:000253b4       $LN202                     004263b4     S04_MyWork02.obj
 0001:000253e4       $LN204                     004263e4     S04_MyWork02.obj
 0001:00025434       $LN203                     00426434     S04_MyWork02.obj
 0001:0002549c       $LN205                     0042649c     S04_MyWork02.obj
 0001:0002671c       $LN81                      0042771c     S04_MyWork02.obj
 0001:00026738       $LN80                      00427738     S04_MyWork02.obj
 0001:000267fc       $LN82                      004277fc     S04_MyWork02.obj
 0001:000275d4       $LN203                     004285d4     S04_MyWork02.obj
 0001:00027608       $LN202                     00428608     S04_MyWork02.obj
 0001:0002762c       $LN204                     0042862c     S04_MyWork02.obj
 0001:00027660       $LN206                     00428660     S04_MyWork02.obj
 0001:000276ac       $LN205                     004286ac     S04_MyWork02.obj
 0001:00027708       $LN207                     00428708     S04_MyWork02.obj
 0001:0002a570       $LN235                     0042b570     S04_MyWork02.obj
 0001:0002a59c       $LN234                     0042b59c     S04_MyWork02.obj
 0001:0002a5cc       $LN236                     0042b5cc     S04_MyWork02.obj
 0001:0002a5dc       $LN237                     0042b5dc     S04_MyWork02.obj
 0001:0002a5ec       $LN238                     0042b5ec     S04_MyWork02.obj
 0001:0002a5fc       $LN239                     0042b5fc     S04_MyWork02.obj
 0001:0002a618       $LN240                     0042b618     S04_MyWork02.obj
 0001:0002a630       $LN241                     0042b630     S04_MyWork02.obj
 0001:0002a648       $LN242                     0042b648     S04_MyWork02.obj
 0001:0002a660       $LN243                     0042b660     S04_MyWork02.obj
 0001:0002a67c       $LN244                     0042b67c     S04_MyWork02.obj
 0001:0002b4a4       $LN42                      0042c4a4     S04_MyWork02.obj
 0001:0002b4b8       $LN41                      0042c4b8     S04_MyWork02.obj
 0001:0002d43c       $LN58                      0042e43c     S04_MyWork02.obj
 0001:0002d740       $LN34                      0042e740     S04_MyWork02.obj
 0001:0002e19c       $LN105                     0042f19c     S04_MyWork02.obj
 0001:0002e1b0       $LN106                     0042f1b0     S04_MyWork02.obj
 0001:0002fa60       $LN128                     00430a60     S04_MyWork02.obj
 0001:000318f4       $LN102                     004328f4     S04_MyWork02.obj
 0001:00031904       $LN101                     00432904     S04_MyWork02.obj
 0001:00034ebc       $LN249                     00435ebc     S04_MyWork02.obj
 0001:00034f04       $LN250                     00435f04     S04_MyWork02.obj
 0001:00034f14       $LN267                     00435f14     S04_MyWork02.obj
 0001:00034f24       $LN272                     00435f24     S04_MyWork02.obj
 0001:00034f34       $LN273                     00435f34     S04_MyWork02.obj
 0001:00034f44       $LN274                     00435f44     S04_MyWork02.obj
 0001:00034f54       $LN275                     00435f54     S04_MyWork02.obj
 0001:00034f84       $LN276                     00435f84     S04_MyWork02.obj
 0001:00034f94       $LN277                     00435f94     S04_MyWork02.obj
 0001:00034fa4       $LN278                     00435fa4     S04_MyWork02.obj
 0001:00035284       $LN34                      00436284     S04_MyWork02.obj
 0001:000352b0       $LN33                      004362b0     S04_MyWork02.obj
 0001:000376a0       $LN161                     004386a0     S04_MyWork02.obj
 0001:000376dc       $LN162                     004386dc     S04_MyWork02.obj
 0001:000376f0       $LN163                     004386f0     S04_MyWork02.obj
 0001:0003770c       $LN164                     0043870c     S04_MyWork02.obj
 0001:0004620c       $LN1717                    0044720c     S04_MyWork02.obj
 0001:00046220       $LN1716                    00447220     S04_MyWork02.obj
 0001:0004623c       $LN1718                    0044723c     S04_MyWork02.obj
 0001:0004624c       $LN1720                    0044724c     S04_MyWork02.obj
 0001:000462a0       $LN1719                    004472a0     S04_MyWork02.obj
 0001:000463dc       $LN1721                    004473dc     S04_MyWork02.obj
 0001:000463fc       $LN1723                    004473fc     S04_MyWork02.obj
 0001:00046410       $LN1722                    00447410     S04_MyWork02.obj
 0001:00046434       $LN1724                    00447434     S04_MyWork02.obj
 0001:00046444       $LN1728                    00447444     S04_MyWork02.obj
 0001:00046458       $LN1725                    00447458     S04_MyWork02.obj
 0001:00046470       $LN1726                    00447470     S04_MyWork02.obj
 0001:00046480       $LN1727                    00447480     S04_MyWork02.obj
 0001:000464a4       $LN1730                    004474a4     S04_MyWork02.obj
 0001:000464f0       $LN1729                    004474f0     S04_MyWork02.obj
 0001:000465d8       $LN1731                    004475d8     S04_MyWork02.obj
 0001:000465f0       $LN1732                    004475f0     S04_MyWork02.obj
 0001:00046600       $LN1733                    00447600     S04_MyWork02.obj
 0001:00046618       $LN1734                    00447618     S04_MyWork02.obj
 0001:00046630       $LN1735                    00447630     S04_MyWork02.obj
 0001:00046648       $LN1737                    00447648     S04_MyWork02.obj
 0001:000467a4       $LN1736                    004477a4     S04_MyWork02.obj
 0001:00046894       $LN1738                    00447894     S04_MyWork02.obj
 0001:000468a8       $LN1739                    004478a8     S04_MyWork02.obj
 0001:000468bc       $LN1740                    004478bc     S04_MyWork02.obj
 0001:000468d8       $LN1741                    004478d8     S04_MyWork02.obj
 0001:000468e8       $LN1742                    004478e8     S04_MyWork02.obj
 0001:000468f8       $LN1743                    004478f8     S04_MyWork02.obj
 0001:00046908       $LN1744                    00447908     S04_MyWork02.obj
 0001:00046918       $LN1745                    00447918     S04_MyWork02.obj
 0001:00046938       $LN1747                    00447938     S04_MyWork02.obj
 0001:00046964       $LN1746                    00447964     S04_MyWork02.obj
 0001:0004699c       $LN1765                    0044799c     S04_MyWork02.obj
 0001:00046a04       $LN1764                    00447a04     S04_MyWork02.obj
 0001:00046acc       $LN1766                    00447acc     S04_MyWork02.obj
 0001:00046aec       $LN1767                    00447aec     S04_MyWork02.obj
 0001:00046b0c       $LN1768                    00447b0c     S04_MyWork02.obj
 0001:00046b2c       $LN1769                    00447b2c     S04_MyWork02.obj
 0001:00046b4c       $LN1770                    00447b4c     S04_MyWork02.obj
 0001:00046b6c       $LN1771                    00447b6c     S04_MyWork02.obj
 0001:00046b8c       $LN1772                    00447b8c     S04_MyWork02.obj
 0001:00046b9c       $LN1774                    00447b9c     S04_MyWork02.obj
 0001:00046ba8       $LN1773                    00447ba8     S04_MyWork02.obj
 0001:00046c7c       $LN1776                    00447c7c     S04_MyWork02.obj
 0001:00046c90       $LN1775                    00447c90     S04_MyWork02.obj
 0001:00046cb4       $LN1778                    00447cb4     S04_MyWork02.obj
 0001:00046cc0       $LN1777                    00447cc0     S04_MyWork02.obj
 0001:00046cc8       $LN1795                    00447cc8     S04_MyWork02.obj
 0001:00046ce0       $LN1796                    00447ce0     S04_MyWork02.obj
 0001:00046cf8       $LN1797                    00447cf8     S04_MyWork02.obj
 0001:00046d10       $LN1798                    00447d10     S04_MyWork02.obj
 0001:00046d3c       $LN1799                    00447d3c     S04_MyWork02.obj
 0001:00046d68       $LN1800                    00447d68     S04_MyWork02.obj
 0001:00046d94       $LN1802                    00447d94     S04_MyWork02.obj
 0001:00046da8       $LN1801                    00447da8     S04_MyWork02.obj
 0001:00046de8       $LN1803                    00447de8     S04_MyWork02.obj
 0001:00046dfc       $LN1804                    00447dfc     S04_MyWork02.obj
 0001:00046e18       $LN1805                    00447e18     S04_MyWork02.obj
 0001:00046e3c       $LN1807                    00447e3c     S04_MyWork02.obj
 0001:00046e40       $LN1806                    00447e40     S04_MyWork02.obj
 0001:0004a7d0       $LN430                     0044b7d0     S04_MyWork03.obj
 0001:0004a8b0       $LN432                     0044b8b0     S04_MyWork03.obj
 0001:0004a928       $LN431                     0044b928     S04_MyWork03.obj
 0001:0004a990       $LN442                     0044b990     S04_MyWork03.obj
 0001:0004a9bc       $LN441                     0044b9bc     S04_MyWork03.obj
 0001:0004c344       $LN396                     0044d344     S04_MyWork03.obj
 0001:00050004       $LN116                     00451004     S04_MyWork04.obj
 0001:000502b4       $LN110                     004512b4     S04_MyWork04.obj
 0001:000517ec       $LN25                      004527ec     S04_MyWork04.obj
 0001:00054de8       $LN349                     00455de8     S06_MyUpperCom.obj
 0001:00054e40       $LN350                     00455e40     S06_MyUpperCom.obj
 0001:00054e68       $LN359                     00455e68     S06_MyUpperCom.obj
 0001:000586a4       $LN29                      004596a4     S07_MyGame01.obj
 0001:000586b0       $LN28                      004596b0     S07_MyGame01.obj
 0001:000586bc       $LN30                      004596bc     S07_MyGame01.obj
 0001:0005880c       $LN31                      0045980c     S07_MyGame01.obj
 0001:00059234       $LN158                     0045a234     S07_MyGame01.obj
 0001:00059264       $LN159                     0045a264     S07_MyGame01.obj
 0001:000598d8       $LN244                     0045a8d8     S07_MyGame01.obj
 0001:00059908       $LN245                     0045a908     S07_MyGame01.obj
 0001:0005991c       $LN246                     0045a91c     S07_MyGame01.obj
 0001:000599d4       $LN247                     0045a9d4     S07_MyGame01.obj
 0001:000599e4       $LN248                     0045a9e4     S07_MyGame01.obj
 0001:000599f4       $LN249                     0045a9f4     S07_MyGame01.obj
 0001:00059a04       $LN250                     0045aa04     S07_MyGame01.obj
 0001:00059a14       $LN251                     0045aa14     S07_MyGame01.obj
 0001:00059a24       $LN252                     0045aa24     S07_MyGame01.obj
 0001:00059a34       $LN253                     0045aa34     S07_MyGame01.obj
 0001:00059a44       $LN254                     0045aa44     S07_MyGame01.obj
 0001:00059a54       $LN255                     0045aa54     S07_MyGame01.obj
 0001:00059a64       $LN256                     0045aa64     S07_MyGame01.obj
 0001:00059a74       $LN257                     0045aa74     S07_MyGame01.obj
 0001:00059a88       $LN258                     0045aa88     S07_MyGame01.obj
 0001:00059a9c       $LN259                     0045aa9c     S07_MyGame01.obj
 0001:0005ba7c       $LN688                     0045ca7c     S07_MyGame01.obj
 0001:0005baac       $LN687                     0045caac     S07_MyGame01.obj
 0001:0005bba4       $LN690                     0045cba4     S07_MyGame01.obj
 0001:0005bbc0       $LN689                     0045cbc0     S07_MyGame01.obj
 0001:0005bc30       $LN692                     0045cc30     S07_MyGame01.obj
 0001:0005bc5c       $LN691                     0045cc5c     S07_MyGame01.obj
 0001:0005bccc       $LN694                     0045cccc     S07_MyGame01.obj
 0001:0005bcd4       $LN693                     0045ccd4     S07_MyGame01.obj
 0001:0005bd40       $LN696                     0045cd40     S07_MyGame01.obj
 0001:0005bd48       $LN695                     0045cd48     S07_MyGame01.obj
 0001:0005bdf0       $LN698                     0045cdf0     S07_MyGame01.obj
 0001:0005bdf8       $LN697                     0045cdf8     S07_MyGame01.obj
 0001:0005be58       $LN700                     0045ce58     S07_MyGame01.obj
 0001:0005be5c       $LN699                     0045ce5c     S07_MyGame01.obj
 0001:0005be68       $LN702                     0045ce68     S07_MyGame01.obj
 0001:0005bee8       $LN701                     0045cee8     S07_MyGame01.obj
 0001:0005bf98       $LN704                     0045cf98     S07_MyGame01.obj
 0001:0005bfac       $LN703                     0045cfac     S07_MyGame01.obj
 0001:0005bfc0       $LN706                     0045cfc0     S07_MyGame01.obj
 0001:0005bfc4       $LN705                     0045cfc4     S07_MyGame01.obj
 0001:0005bfcc       $LN708                     0045cfcc     S07_MyGame01.obj
 0001:0005bfd0       $LN707                     0045cfd0     S07_MyGame01.obj
 0001:0005bfd8       $LN710                     0045cfd8     S07_MyGame01.obj
 0001:0005c014       $LN709                     0045d014     S07_MyGame01.obj
 0001:0005c05c       $LN712                     0045d05c     S07_MyGame01.obj
 0001:0005c090       $LN711                     0045d090     S07_MyGame01.obj
 0001:0005c120       $LN714                     0045d120     S07_MyGame01.obj
 0001:0005c134       $LN713                     0045d134     S07_MyGame01.obj
 0001:0005c1a8       $LN715                     0045d1a8     S07_MyGame01.obj
 0001:0005d234       $LN308                     0045e234     S07_MyGame01.obj
 0001:0005d5b0       $LN84                      0045e5b0     S07_MyGame01.obj
 0001:0005d5e8       $LN83                      0045e5e8     S07_MyGame01.obj
 0001:0005de0c       $LN52                      0045ee0c     S07_MyGame01.obj
 0001:0005e698       $LN162                     0045f698     S07_MyGame01.obj
 0001:0005e6b0       $LN163                     0045f6b0     S07_MyGame01.obj
 0001:0005ee18       $LN156                     0045fe18     S07_MyGame01.obj
 0001:0005ee30       $LN157                     0045fe30     S07_MyGame01.obj
 0001:0005ee54       $LN158                     0045fe54     S07_MyGame01.obj
 0001:0005f6b8       $LN109                     004606b8     S07_MyGame01.obj
 0001:0005f6d0       $LN110                     004606d0     S07_MyGame01.obj
 0001:00061f5c       $LN1160                    00462f5c     S07_MyGame01.obj
 0001:00061fbc       $LN1161                    00462fbc     S07_MyGame01.obj
 0001:00061fd4       $LN1162                    00462fd4     S07_MyGame01.obj
 0001:00061ffc       $LN1163                    00462ffc     S07_MyGame01.obj
 0001:00062014       $LN1164                    00463014     S07_MyGame01.obj
 0001:0006203c       $LN1165                    0046303c     S07_MyGame01.obj
 0001:0006206c       $LN1166                    0046306c     S07_MyGame01.obj
 0001:00062124       $LN1167                    00463124     S07_MyGame01.obj
 0001:0006213c       $LN1168                    0046313c     S07_MyGame01.obj
 0001:00062164       $LN1169                    00463164     S07_MyGame01.obj
 0001:00062194       $LN1170                    00463194     S07_MyGame01.obj
 0001:0006224c       $LN1171                    0046324c     S07_MyGame01.obj
 0001:00062264       $LN1172                    00463264     S07_MyGame01.obj
 0001:0006228c       $LN1173                    0046328c     S07_MyGame01.obj
 0001:000622bc       $LN1174                    004632bc     S07_MyGame01.obj
 0001:00062374       $LN1175                    00463374     S07_MyGame01.obj
 0001:00062390       $LN1176                    00463390     S07_MyGame01.obj
 0001:00062b0c       $LN149                     00463b0c     S07_MyGame01.obj
 0001:00062b24       $LN150                     00463b24     S07_MyGame01.obj
 0001:00062b34       $LN151                     00463b34     S07_MyGame01.obj
 0001:00063624       $LN94                      00464624     S07_MyGame01.obj
 0001:000641cc       $LN245                     004651cc     S07_MyGame01.obj
 0001:000641e4       $LN246                     004651e4     S07_MyGame01.obj
 0001:000641f4       $LN247                     004651f4     S07_MyGame01.obj
 0001:0006421c       $LN248                     0046521c     S07_MyGame01.obj
 0001:00064234       $LN249                     00465234     S07_MyGame01.obj
 0001:00064a60       $LN95                      00465a60     S07_MyGame01.obj
 0001:00064a90       $LN96                      00465a90     S07_MyGame01.obj
 0001:00064c50       $LN9                       00465c50     S07_MyGame01.obj
 0001:00064ca0       $LN9                       00465ca0     S07_MyGame01.obj
 0001:00064cf4       $LN9                       00465cf4     S07_MyGame01.obj
 0001:00064dc8       $LN17                      00465dc8     S07_MyGame01.obj
 0001:00068e68       $LN325                     00469e68     S07_MyGame02.obj
 0001:00068e80       $LN327                     00469e80     S07_MyGame02.obj
 0001:00068e9c       $LN326                     00469e9c     S07_MyGame02.obj
 0001:00068eb0       $LN328                     00469eb0     S07_MyGame02.obj
 0001:00068ed4       $LN329                     00469ed4     S07_MyGame02.obj
 0001:00068ee4       $LN330                     00469ee4     S07_MyGame02.obj
 0001:00068ef4       $LN331                     00469ef4     S07_MyGame02.obj
 0001:00068f04       $LN332                     00469f04     S07_MyGame02.obj
 0001:00068f1c       $LN333                     00469f1c     S07_MyGame02.obj
 0001:00068f34       $LN334                     00469f34     S07_MyGame02.obj
 0001:00068f4c       $LN335                     00469f4c     S07_MyGame02.obj
 0001:00069f9c       $LN129                     0046af9c     S07_MyGame02.obj
 0001:00069fb0       $LN130                     0046afb0     S07_MyGame02.obj
 0001:0006a87e       __catch$??$?6U?$char_traits@D@std@@@std@@YAAAV?$basic_ostream@DU?$char_traits@D@std@@@0@AAV10@D@Z$0 0046b87e f i S07_MyGame03.obj
 0001:0006b52c       $LN158                     0046c52c     S07_MyGame03.obj
 0001:0006b7c4       $LN101                     0046c7c4     S07_MyGame03.obj
 0001:0006b7cc       $LN100                     0046c7cc     S07_MyGame03.obj
 0001:0006b858       $LN103                     0046c858     S07_MyGame03.obj
 0001:0006b860       $LN102                     0046c860     S07_MyGame03.obj
 0001:0006bca8       $LN228                     0046cca8     S07_MyGame03.obj
 0001:0006bcc8       $LN229                     0046ccc8     S07_MyGame03.obj
 0001:0006bce8       $LN230                     0046cce8     S07_MyGame03.obj
 0001:0006bd08       $LN231                     0046cd08     S07_MyGame03.obj
 0001:0006bd1c       $LN233                     0046cd1c     S07_MyGame03.obj
 0001:0006bd24       $LN232                     0046cd24     S07_MyGame03.obj
 0001:0006d230       $LN118                     0046e230     S07_MyGame03.obj
 0001:0006d238       $LN117                     0046e238     S07_MyGame03.obj
 0001:0006d244       $LN120                     0046e244     S07_MyGame03.obj
 0001:0006d248       $LN119                     0046e248     S07_MyGame03.obj
 0001:0006d250       $LN122                     0046e250     S07_MyGame03.obj
 0001:0006d264       $LN121                     0046e264     S07_MyGame03.obj
 0001:0006e4cc       $LN88                      0046f4cc     S07_MyGame03.obj
 0001:0006e4d4       $LN87                      0046f4d4     S07_MyGame03.obj
 0001:0006e578       $LN90                      0046f578     S07_MyGame03.obj
 0001:0006e588       $LN89                      0046f588     S07_MyGame03.obj
 0001:0006ee14       $LN64                      0046fe14     S07_MyGame03.obj
 0001:0006f904       $LN83                      00470904     S07_MyGame03.obj
 0001:0006f91c       $LN85                      0047091c     S07_MyGame03.obj
 0001:0006f920       $LN84                      00470920     S07_MyGame03.obj
 0001:0006f92c       $LN86                      0047092c     S07_MyGame03.obj
 0001:0006f940       $LN88                      00470940     S07_MyGame03.obj
 0001:0006f94c       $LN87                      0047094c     S07_MyGame03.obj
 0001:000709e4       $LN108                     004719e4     S07_MyGame04.obj
 0001:00070a0c       $LN107                     00471a0c     S07_MyGame04.obj
 0001:00071028       $LN17                      00472028     S07_MyGame04.obj
 0001:00071034       $LN16                      00472034     S07_MyGame04.obj
 0001:00072c64       $LN143                     00473c64     S07_MyGame04.obj
 0001:00072cac       $LN142                     00473cac     S07_MyGame04.obj
 0001:00073194       $LN29                      00474194     S07_MyGame04.obj
 0001:00073480       $LN153                     00474480     S07_MyGame04.obj
 0001:00073b74       $LN125                     00474b74     S07_MyGame04.obj
 0001:00073b80       $LN124                     00474b80     S07_MyGame04.obj
 0001:00073b94       $LN127                     00474b94     S07_MyGame04.obj
 0001:00073ba0       $LN126                     00474ba0     S07_MyGame04.obj
 0001:00073bc4       $LN129                     00474bc4     S07_MyGame04.obj
 0001:00073bcc       $LN128                     00474bcc     S07_MyGame04.obj
 0001:00075ed0       $LN185                     00476ed0     S07_MyGame04.obj
 0001:00076de0       $LN166                     00477de0     S07_MyGame05.obj
 0001:00076df8       $LN168                     00477df8     S07_MyGame05.obj
 0001:00076e14       $LN167                     00477e14     S07_MyGame05.obj
 0001:00076e28       $LN169                     00477e28     S07_MyGame05.obj
 0001:00076e38       $LN170                     00477e38     S07_MyGame05.obj
 0001:000775a0       $LN20                      004785a0     S07_MyGame05.obj
 0001:00077e38       $LN42                      00478e38     S07_MyGame05.obj
 0001:00077e48       $LN44                      00478e48     S07_MyGame05.obj
 0001:00077e68       $LN43                      00478e68     S07_MyGame05.obj
 0001:00077e7c       $LN45                      00478e7c     S07_MyGame05.obj
 0001:00079be8       $LN389                     0047abe8     S07_MyGame05.obj
 0001:00079bfc       $LN390                     0047abfc     S07_MyGame05.obj
 0001:00079c0c       $LN391                     0047ac0c     S07_MyGame05.obj
 0001:00079c1c       $LN392                     0047ac1c     S07_MyGame05.obj
 0001:00079c30       $LN393                     0047ac30     S07_MyGame05.obj
 0001:00079c40       $LN394                     0047ac40     S07_MyGame05.obj
 0001:00079c50       $LN395                     0047ac50     S07_MyGame05.obj
 0001:00079c60       $LN396                     0047ac60     S07_MyGame05.obj
 0001:00079c70       $LN397                     0047ac70     S07_MyGame05.obj
 0001:00079c80       $LN398                     0047ac80     S07_MyGame05.obj
 0001:00079c90       $LN399                     0047ac90     S07_MyGame05.obj
 0001:00079ca0       $LN400                     0047aca0     S07_MyGame05.obj
 0001:0007a514       $LN40                      0047b514     S07_MyGame05.obj
 0001:0007a52c       $LN39                      0047b52c     S07_MyGame05.obj
 0001:0007a96c       $LN50                      0047b96c     S07_MyGame05.obj
 0001:0007a994       $LN49                      0047b994     S07_MyGame05.obj
 0001:0007a9a8       $LN51                      0047b9a8     S07_MyGame05.obj
 0001:0007a9bc       $LN52                      0047b9bc     S07_MyGame05.obj
 0001:0007b6f4       $LN271                     0047c6f4     S07_MyGame06.obj
 0001:0007d7a4       $LN592                     0047e7a4     S07_MyGame07.obj
 0001:0007da04       $LN591                     0047ea04     S07_MyGame07.obj
 0001:0007dd10       $LN593                     0047ed10     S07_MyGame07.obj
 0001:0007dd24       $LN671                     0047ed24     S07_MyGame07.obj
 0001:0007dd68       $LN670                     0047ed68     S07_MyGame07.obj
 0001:0007ecf0       $LN280                     0047fcf0     AtakPower.obj
 0001:0007ecfc       $LN279                     0047fcfc     AtakPower.obj
 0001:0007ed08       $LN282                     0047fd08     AtakPower.obj
 0001:0007ed30       $LN281                     0047fd30     AtakPower.obj
 0001:0007ed64       $LN283                     0047fd64     AtakPower.obj
 0001:0007ed94       $LN284                     0047fd94     AtakPower.obj
 0001:0007edc8       $LN285                     0047fdc8     AtakPower.obj
 0001:0007edf0       $LN287                     0047fdf0     AtakPower.obj
 0001:0007ee04       $LN286                     0047fe04     AtakPower.obj
 0001:00081b20       $LN40                      00482b20     S08_MyGameSystem.obj
 0001:00081b30       $LN39                      00482b30     S08_MyGameSystem.obj
 0001:000820a0       $LN70                      004830a0     S08_MyGameSystem.obj
 0001:000820b4       $LN69                      004830b4     S08_MyGameSystem.obj
 0001:000820cc       $LN72                      004830cc     S08_MyGameSystem.obj
 0001:000820d8       $LN71                      004830d8     S08_MyGameSystem.obj
 0001:000823c4       $LN67                      004833c4     S08_MyGameSystem.obj
 0001:000823d8       $LN66                      004833d8     S08_MyGameSystem.obj
 0001:000823f0       $LN69                      004833f0     S08_MyGameSystem.obj
 0001:000823fc       $LN68                      004833fc     S08_MyGameSystem.obj
 0001:0008269c       $LN71                      0048369c     S08_MyGameSystem.obj
 0001:000826cc       $LN73                      004836cc     S08_MyGameSystem.obj
 0001:00082714       $LN72                      00483714     S08_MyGameSystem.obj
 0001:00082970       $LN76                      00483970     S08_MyGameSystem.obj
 0001:00082984       $LN75                      00483984     S08_MyGameSystem.obj
 0001:0008299c       $LN78                      0048399c     S08_MyGameSystem.obj
 0001:000829a8       $LN77                      004839a8     S08_MyGameSystem.obj
 0001:00082ac0       $LN32                      00483ac0     S08_MyGameSystem.obj
 0001:00082f20       $LN62                      00483f20     S08_MyGameSystem.obj
 0001:00082f34       $LN61                      00483f34     S08_MyGameSystem.obj
 0001:00082f4c       $LN64                      00483f4c     S08_MyGameSystem.obj
 0001:00082f58       $LN63                      00483f58     S08_MyGameSystem.obj
 0001:00083120       $LN56                      00484120     S08_MyGameSystem.obj
 0001:00083134       $LN55                      00484134     S08_MyGameSystem.obj
 0001:0008314c       $LN58                      0048414c     S08_MyGameSystem.obj
 0001:00083158       $LN57                      00484158     S08_MyGameSystem.obj
 0001:00083230       $LN62                      00484230     S08_MyGameSystem.obj
 0001:00083244       $LN61                      00484244     S08_MyGameSystem.obj
 0001:0008325c       $LN64                      0048425c     S08_MyGameSystem.obj
 0001:00083268       $LN63                      00484268     S08_MyGameSystem.obj
 0001:000835c0       $LN96                      004845c0     S08_MyGameSystem.obj
 0001:000835d4       $LN97                      004845d4     S08_MyGameSystem.obj
 0001:000835fc       $LN98                      004845fc     S08_MyGameSystem.obj
 0001:00083624       $LN99                      00484624     S08_MyGameSystem.obj
 0001:0008364c       $LN100                     0048464c     S08_MyGameSystem.obj
 0001:00083674       $LN101                     00484674     S08_MyGameSystem.obj
 0001:0008395c       $LN111                     0048495c     S08_MyGameSystem.obj
 0001:00083974       $LN112                     00484974     S08_MyGameSystem.obj
 0001:0008399c       $LN113                     0048499c     S08_MyGameSystem.obj
 0001:000839c4       $LN114                     004849c4     S08_MyGameSystem.obj
 0001:000839ec       $LN115                     004849ec     S08_MyGameSystem.obj
 0001:00083a14       $LN116                     00484a14     S08_MyGameSystem.obj
 0001:00083a3c       $LN117                     00484a3c     S08_MyGameSystem.obj
 0001:00083f34       $LN43                      00484f34     S08_MyGameSystem.obj
 0001:00085f44       $LN40                      00486f44     S10_MySummonSystem.obj
 0001:00085fd4       $LN33                      00486fd4     S10_MySummonSystem.obj
 0001:00085fe0       $LN32                      00486fe0     S10_MySummonSystem.obj
 0001:00085fec       $LN35                      00486fec     S10_MySummonSystem.obj
 0001:00086000       $LN34                      00487000     S10_MySummonSystem.obj
 0001:000863d4       $LN47                      004873d4     S10_MySummonSystem.obj
 0001:0008718c       $LN78                      0048818c     S10_MySummonSystem.obj
 0001:000871c4       $LN77                      004881c4     S10_MySummonSystem.obj
 0001:00087254       $LN79                      00488254     S10_MySummonSystem.obj
 0001:000877cc       $LN43                      004887cc     S10_MySummonSystem.obj
 0001:00087bdc       $LN51                      00488bdc     S10_MySummonSystem.obj
 0001:00087ff4       $LN57                      00488ff4     S10_MySummonSystem.obj
 0001:00088960       $LN52                      00489960     S10_MySummonSystem.obj
 0001:00088dc8       $LN49                      00489dc8     S10_MySummonSystem.obj
 0001:00088ddc       $LN50                      00489ddc     S10_MySummonSystem.obj
 0001:00089578       $LN87                      0048a578     S10_MySummonSystem.obj
 0001:00089588       $LN88                      0048a588     S10_MySummonSystem.obj
 0001:00089598       $LN89                      0048a598     S10_MySummonSystem.obj
 0001:000895a8       $LN90                      0048a5a8     S10_MySummonSystem.obj
 0001:000895b8       $LN91                      0048a5b8     S10_MySummonSystem.obj
 0001:000898e8       $LN19                      0048a8e8     Socket and Refine.obj
 0001:00089da8       $LN210                     0048ada8     Socket and Refine.obj
 0001:00089e04       $LN212                     0048ae04     Socket and Refine.obj
 0001:00089e14       $LN211                     0048ae14     Socket and Refine.obj
 0001:00089e24       $LN214                     0048ae24     Socket and Refine.obj
 0001:00089e34       $LN213                     0048ae34     Socket and Refine.obj
 0001:00089e48       $LN216                     0048ae48     Socket and Refine.obj
 0001:00089e58       $LN215                     0048ae58     Socket and Refine.obj
 0001:00089e70       $LN218                     0048ae70     Socket and Refine.obj
 0001:00089e80       $LN217                     0048ae80     Socket and Refine.obj
 0001:00089e9c       $LN220                     0048ae9c     Socket and Refine.obj
 0001:00089eac       $LN219                     0048aeac     Socket and Refine.obj
 0001:00089ec8       $LN222                     0048aec8     Socket and Refine.obj
 0001:00089ed8       $LN221                     0048aed8     Socket and Refine.obj
 0001:0008b860       $LN110                     0048c860     Server_Map.obj
 0001:0008b86c       $LN109                     0048c86c     Server_Map.obj
 0001:0008cf28       $LN939                     0048df28     zlib:inflate.obj
 0001:0008cf9c       $LN940                     0048df9c     zlib:inflate.obj
 0001:0008d1a0       _updatewindow              0048e1a0 f   zlib:inflate.obj
 0001:0008d540       _crc32_little              0048e540 f   zlib:crc32.obj
 0001:0008ee2d       _initialize_environment    0048fe2d f i libucrt:initialization.obj
 0001:0008ee2d       _initialize_global_state_isolation 0048fe2d f i libucrt:initialization.obj
 0001:0008ee2d       _report_memory_leaks       0048fe2d f i libucrt:initialization.obj
 0001:0008ee2d       _uninitialize_c            0048fe2d f i libucrt:initialization.obj
 0001:0008ee2d       _uninitialize_global_state_isolation 0048fe2d f i libucrt:initialization.obj
 0001:0008f2d9       _no_op_initialize          004902d9 f i libucrt:wsetlocale.obj
 0001:0008f932       _mtx_do_lock               00490932 f   libcpmt:mutex.obj
 0001:0008ff1f       _tidy_global               00490f1f f   libcpmt:locale0.obj
 0001:000906bd       ?initialize_pointers@@YAHXZ 004916bd f   libcpmt:winapisupp.obj
 0001:00090795       ?find_pe_section@@YAPAU_IMAGE_SECTION_HEADER@@QAEI@Z 00491795 f   LIBCMT:utility.obj
 0001:00090cb0       $$000000                   00491cb0     LIBCMT:chkstk.obj
